ARM GAS  C:\Users\zoosman\AppData\Local\Temp\ccuisvXz.s 			page 1


   1              		.cpu cortex-m4
   2              		.eabi_attribute 27, 1
   3              		.eabi_attribute 28, 1
   4              		.eabi_attribute 20, 1
   5              		.eabi_attribute 21, 1
   6              		.eabi_attribute 23, 3
   7              		.eabi_attribute 24, 1
   8              		.eabi_attribute 25, 1
   9              		.eabi_attribute 26, 1
  10              		.eabi_attribute 30, 2
  11              		.eabi_attribute 34, 1
  12              		.eabi_attribute 18, 4
  13              		.file	"stm32f4xx_ll_fmc.c"
  14              		.text
  15              	.Ltext0:
  16              		.cfi_sections	.debug_frame
  17              		.section	.text.FMC_NORSRAM_Init,"ax",%progbits
  18              		.align	1
  19              		.p2align 2,,3
  20              		.global	FMC_NORSRAM_Init
  21              		.arch armv7e-m
  22              		.syntax unified
  23              		.thumb
  24              		.thumb_func
  25              		.fpu fpv4-sp-d16
  27              	FMC_NORSRAM_Init:
  28              	.LVL0:
  29              	.LFB130:
  30              		.file 1 "Drivers/STM32F4xx_HAL_Driver/Src/stm32f4xx_ll_fmc.c"
   1:Drivers/STM32F4xx_HAL_Driver/Src/stm32f4xx_ll_fmc.c **** /**
   2:Drivers/STM32F4xx_HAL_Driver/Src/stm32f4xx_ll_fmc.c ****   ******************************************************************************
   3:Drivers/STM32F4xx_HAL_Driver/Src/stm32f4xx_ll_fmc.c ****   * @file    stm32f4xx_ll_fmc.c
   4:Drivers/STM32F4xx_HAL_Driver/Src/stm32f4xx_ll_fmc.c ****   * @author  MCD Application Team
   5:Drivers/STM32F4xx_HAL_Driver/Src/stm32f4xx_ll_fmc.c ****   * @brief   FMC Low Layer HAL module driver.
   6:Drivers/STM32F4xx_HAL_Driver/Src/stm32f4xx_ll_fmc.c ****   *    
   7:Drivers/STM32F4xx_HAL_Driver/Src/stm32f4xx_ll_fmc.c ****   *          This file provides firmware functions to manage the following 
   8:Drivers/STM32F4xx_HAL_Driver/Src/stm32f4xx_ll_fmc.c ****   *          functionalities of the Flexible Memory Controller (FMC) peripheral memories:
   9:Drivers/STM32F4xx_HAL_Driver/Src/stm32f4xx_ll_fmc.c ****   *           + Initialization/de-initialization functions
  10:Drivers/STM32F4xx_HAL_Driver/Src/stm32f4xx_ll_fmc.c ****   *           + Peripheral Control functions 
  11:Drivers/STM32F4xx_HAL_Driver/Src/stm32f4xx_ll_fmc.c ****   *           + Peripheral State functions
  12:Drivers/STM32F4xx_HAL_Driver/Src/stm32f4xx_ll_fmc.c ****   *         
  13:Drivers/STM32F4xx_HAL_Driver/Src/stm32f4xx_ll_fmc.c ****   @verbatim
  14:Drivers/STM32F4xx_HAL_Driver/Src/stm32f4xx_ll_fmc.c ****   ==============================================================================
  15:Drivers/STM32F4xx_HAL_Driver/Src/stm32f4xx_ll_fmc.c ****                         ##### FMC peripheral features #####
  16:Drivers/STM32F4xx_HAL_Driver/Src/stm32f4xx_ll_fmc.c ****   ==============================================================================
  17:Drivers/STM32F4xx_HAL_Driver/Src/stm32f4xx_ll_fmc.c ****   [..] The Flexible memory controller (FMC) includes three memory controllers:
  18:Drivers/STM32F4xx_HAL_Driver/Src/stm32f4xx_ll_fmc.c ****        (+) The NOR/PSRAM memory controller
  19:Drivers/STM32F4xx_HAL_Driver/Src/stm32f4xx_ll_fmc.c ****        (+) The NAND/PC Card memory controller
  20:Drivers/STM32F4xx_HAL_Driver/Src/stm32f4xx_ll_fmc.c ****        (+) The Synchronous DRAM (SDRAM) controller 
  21:Drivers/STM32F4xx_HAL_Driver/Src/stm32f4xx_ll_fmc.c ****        
  22:Drivers/STM32F4xx_HAL_Driver/Src/stm32f4xx_ll_fmc.c ****   [..] The FMC functional block makes the interface with synchronous and asynchronous static
  23:Drivers/STM32F4xx_HAL_Driver/Src/stm32f4xx_ll_fmc.c ****        memories, SDRAM memories, and 16-bit PC memory cards. Its main purposes are:
  24:Drivers/STM32F4xx_HAL_Driver/Src/stm32f4xx_ll_fmc.c ****        (+) to translate AHB transactions into the appropriate external device protocol
  25:Drivers/STM32F4xx_HAL_Driver/Src/stm32f4xx_ll_fmc.c ****        (+) to meet the access time requirements of the external memory devices
  26:Drivers/STM32F4xx_HAL_Driver/Src/stm32f4xx_ll_fmc.c ****    
  27:Drivers/STM32F4xx_HAL_Driver/Src/stm32f4xx_ll_fmc.c ****   [..] All external memories share the addresses, data and control signals with the controller.
  28:Drivers/STM32F4xx_HAL_Driver/Src/stm32f4xx_ll_fmc.c ****        Each external device is accessed by means of a unique Chip Select. The FMC performs
ARM GAS  C:\Users\zoosman\AppData\Local\Temp\ccuisvXz.s 			page 2


  29:Drivers/STM32F4xx_HAL_Driver/Src/stm32f4xx_ll_fmc.c ****        only one access at a time to an external device.
  30:Drivers/STM32F4xx_HAL_Driver/Src/stm32f4xx_ll_fmc.c ****        The main features of the FMC controller are the following:
  31:Drivers/STM32F4xx_HAL_Driver/Src/stm32f4xx_ll_fmc.c ****         (+) Interface with static-memory mapped devices including:
  32:Drivers/STM32F4xx_HAL_Driver/Src/stm32f4xx_ll_fmc.c ****            (++) Static random access memory (SRAM)
  33:Drivers/STM32F4xx_HAL_Driver/Src/stm32f4xx_ll_fmc.c ****            (++) Read-only memory (ROM)
  34:Drivers/STM32F4xx_HAL_Driver/Src/stm32f4xx_ll_fmc.c ****            (++) NOR Flash memory/OneNAND Flash memory
  35:Drivers/STM32F4xx_HAL_Driver/Src/stm32f4xx_ll_fmc.c ****            (++) PSRAM (4 memory banks)
  36:Drivers/STM32F4xx_HAL_Driver/Src/stm32f4xx_ll_fmc.c ****            (++) 16-bit PC Card compatible devices
  37:Drivers/STM32F4xx_HAL_Driver/Src/stm32f4xx_ll_fmc.c ****            (++) Two banks of NAND Flash memory with ECC hardware to check up to 8 Kbytes of
  38:Drivers/STM32F4xx_HAL_Driver/Src/stm32f4xx_ll_fmc.c ****                 data
  39:Drivers/STM32F4xx_HAL_Driver/Src/stm32f4xx_ll_fmc.c ****         (+) Interface with synchronous DRAM (SDRAM) memories
  40:Drivers/STM32F4xx_HAL_Driver/Src/stm32f4xx_ll_fmc.c ****         (+) Independent Chip Select control for each memory bank
  41:Drivers/STM32F4xx_HAL_Driver/Src/stm32f4xx_ll_fmc.c ****         (+) Independent configuration for each memory bank
  42:Drivers/STM32F4xx_HAL_Driver/Src/stm32f4xx_ll_fmc.c ****                     
  43:Drivers/STM32F4xx_HAL_Driver/Src/stm32f4xx_ll_fmc.c ****   @endverbatim
  44:Drivers/STM32F4xx_HAL_Driver/Src/stm32f4xx_ll_fmc.c ****   ******************************************************************************
  45:Drivers/STM32F4xx_HAL_Driver/Src/stm32f4xx_ll_fmc.c ****   * @attention
  46:Drivers/STM32F4xx_HAL_Driver/Src/stm32f4xx_ll_fmc.c ****   *
  47:Drivers/STM32F4xx_HAL_Driver/Src/stm32f4xx_ll_fmc.c ****   * <h2><center>&copy; Copyright (c) 2017 STMicroelectronics.
  48:Drivers/STM32F4xx_HAL_Driver/Src/stm32f4xx_ll_fmc.c ****   * All rights reserved.</center></h2>
  49:Drivers/STM32F4xx_HAL_Driver/Src/stm32f4xx_ll_fmc.c ****   *
  50:Drivers/STM32F4xx_HAL_Driver/Src/stm32f4xx_ll_fmc.c ****   * This software component is licensed by ST under BSD 3-Clause license,
  51:Drivers/STM32F4xx_HAL_Driver/Src/stm32f4xx_ll_fmc.c ****   * the "License"; You may not use this file except in compliance with the
  52:Drivers/STM32F4xx_HAL_Driver/Src/stm32f4xx_ll_fmc.c ****   * License. You may obtain a copy of the License at:
  53:Drivers/STM32F4xx_HAL_Driver/Src/stm32f4xx_ll_fmc.c ****   *                        opensource.org/licenses/BSD-3-Clause
  54:Drivers/STM32F4xx_HAL_Driver/Src/stm32f4xx_ll_fmc.c ****   *
  55:Drivers/STM32F4xx_HAL_Driver/Src/stm32f4xx_ll_fmc.c ****   ******************************************************************************
  56:Drivers/STM32F4xx_HAL_Driver/Src/stm32f4xx_ll_fmc.c ****   */ 
  57:Drivers/STM32F4xx_HAL_Driver/Src/stm32f4xx_ll_fmc.c **** 
  58:Drivers/STM32F4xx_HAL_Driver/Src/stm32f4xx_ll_fmc.c **** /* Includes ------------------------------------------------------------------*/
  59:Drivers/STM32F4xx_HAL_Driver/Src/stm32f4xx_ll_fmc.c **** #include "stm32f4xx_hal.h"
  60:Drivers/STM32F4xx_HAL_Driver/Src/stm32f4xx_ll_fmc.c **** 
  61:Drivers/STM32F4xx_HAL_Driver/Src/stm32f4xx_ll_fmc.c **** /** @addtogroup STM32F4xx_HAL_Driver
  62:Drivers/STM32F4xx_HAL_Driver/Src/stm32f4xx_ll_fmc.c ****   * @{
  63:Drivers/STM32F4xx_HAL_Driver/Src/stm32f4xx_ll_fmc.c ****   */
  64:Drivers/STM32F4xx_HAL_Driver/Src/stm32f4xx_ll_fmc.c **** 
  65:Drivers/STM32F4xx_HAL_Driver/Src/stm32f4xx_ll_fmc.c **** /** @defgroup FMC_LL  FMC Low Layer
  66:Drivers/STM32F4xx_HAL_Driver/Src/stm32f4xx_ll_fmc.c ****   * @brief FMC driver modules
  67:Drivers/STM32F4xx_HAL_Driver/Src/stm32f4xx_ll_fmc.c ****   * @{
  68:Drivers/STM32F4xx_HAL_Driver/Src/stm32f4xx_ll_fmc.c ****   */
  69:Drivers/STM32F4xx_HAL_Driver/Src/stm32f4xx_ll_fmc.c **** 
  70:Drivers/STM32F4xx_HAL_Driver/Src/stm32f4xx_ll_fmc.c **** #if defined (HAL_SRAM_MODULE_ENABLED) || defined(HAL_NOR_MODULE_ENABLED) || defined(HAL_NAND_MODULE
  71:Drivers/STM32F4xx_HAL_Driver/Src/stm32f4xx_ll_fmc.c **** 
  72:Drivers/STM32F4xx_HAL_Driver/Src/stm32f4xx_ll_fmc.c **** #if defined(STM32F427xx) || defined(STM32F437xx) || defined(STM32F429xx) || defined(STM32F439xx) ||
  73:Drivers/STM32F4xx_HAL_Driver/Src/stm32f4xx_ll_fmc.c **** 
  74:Drivers/STM32F4xx_HAL_Driver/Src/stm32f4xx_ll_fmc.c **** /* Private typedef -----------------------------------------------------------*/
  75:Drivers/STM32F4xx_HAL_Driver/Src/stm32f4xx_ll_fmc.c **** /* Private define ------------------------------------------------------------*/
  76:Drivers/STM32F4xx_HAL_Driver/Src/stm32f4xx_ll_fmc.c **** /* Private macro -------------------------------------------------------------*/
  77:Drivers/STM32F4xx_HAL_Driver/Src/stm32f4xx_ll_fmc.c **** /* Private variables ---------------------------------------------------------*/
  78:Drivers/STM32F4xx_HAL_Driver/Src/stm32f4xx_ll_fmc.c **** /* Private function prototypes -----------------------------------------------*/
  79:Drivers/STM32F4xx_HAL_Driver/Src/stm32f4xx_ll_fmc.c **** /* Private functions ---------------------------------------------------------*/
  80:Drivers/STM32F4xx_HAL_Driver/Src/stm32f4xx_ll_fmc.c **** /** @addtogroup FMC_LL_Private_Functions
  81:Drivers/STM32F4xx_HAL_Driver/Src/stm32f4xx_ll_fmc.c ****   * @{
  82:Drivers/STM32F4xx_HAL_Driver/Src/stm32f4xx_ll_fmc.c ****   */
  83:Drivers/STM32F4xx_HAL_Driver/Src/stm32f4xx_ll_fmc.c **** 
  84:Drivers/STM32F4xx_HAL_Driver/Src/stm32f4xx_ll_fmc.c **** /** @addtogroup FMC_LL_NORSRAM
  85:Drivers/STM32F4xx_HAL_Driver/Src/stm32f4xx_ll_fmc.c ****   * @brief  NORSRAM Controller functions 
ARM GAS  C:\Users\zoosman\AppData\Local\Temp\ccuisvXz.s 			page 3


  86:Drivers/STM32F4xx_HAL_Driver/Src/stm32f4xx_ll_fmc.c ****   *
  87:Drivers/STM32F4xx_HAL_Driver/Src/stm32f4xx_ll_fmc.c ****   @verbatim 
  88:Drivers/STM32F4xx_HAL_Driver/Src/stm32f4xx_ll_fmc.c ****   ==============================================================================   
  89:Drivers/STM32F4xx_HAL_Driver/Src/stm32f4xx_ll_fmc.c ****                    ##### How to use NORSRAM device driver #####
  90:Drivers/STM32F4xx_HAL_Driver/Src/stm32f4xx_ll_fmc.c ****   ==============================================================================
  91:Drivers/STM32F4xx_HAL_Driver/Src/stm32f4xx_ll_fmc.c ****  
  92:Drivers/STM32F4xx_HAL_Driver/Src/stm32f4xx_ll_fmc.c ****   [..] 
  93:Drivers/STM32F4xx_HAL_Driver/Src/stm32f4xx_ll_fmc.c ****     This driver contains a set of APIs to interface with the FMC NORSRAM banks in order
  94:Drivers/STM32F4xx_HAL_Driver/Src/stm32f4xx_ll_fmc.c ****     to run the NORSRAM external devices.
  95:Drivers/STM32F4xx_HAL_Driver/Src/stm32f4xx_ll_fmc.c ****       
  96:Drivers/STM32F4xx_HAL_Driver/Src/stm32f4xx_ll_fmc.c ****     (+) FMC NORSRAM bank reset using the function FMC_NORSRAM_DeInit() 
  97:Drivers/STM32F4xx_HAL_Driver/Src/stm32f4xx_ll_fmc.c ****     (+) FMC NORSRAM bank control configuration using the function FMC_NORSRAM_Init()
  98:Drivers/STM32F4xx_HAL_Driver/Src/stm32f4xx_ll_fmc.c ****     (+) FMC NORSRAM bank timing configuration using the function FMC_NORSRAM_Timing_Init()
  99:Drivers/STM32F4xx_HAL_Driver/Src/stm32f4xx_ll_fmc.c ****     (+) FMC NORSRAM bank extended timing configuration using the function 
 100:Drivers/STM32F4xx_HAL_Driver/Src/stm32f4xx_ll_fmc.c ****         FMC_NORSRAM_Extended_Timing_Init()
 101:Drivers/STM32F4xx_HAL_Driver/Src/stm32f4xx_ll_fmc.c ****     (+) FMC NORSRAM bank enable/disable write operation using the functions
 102:Drivers/STM32F4xx_HAL_Driver/Src/stm32f4xx_ll_fmc.c ****         FMC_NORSRAM_WriteOperation_Enable()/FMC_NORSRAM_WriteOperation_Disable()
 103:Drivers/STM32F4xx_HAL_Driver/Src/stm32f4xx_ll_fmc.c ****         
 104:Drivers/STM32F4xx_HAL_Driver/Src/stm32f4xx_ll_fmc.c **** 
 105:Drivers/STM32F4xx_HAL_Driver/Src/stm32f4xx_ll_fmc.c **** @endverbatim
 106:Drivers/STM32F4xx_HAL_Driver/Src/stm32f4xx_ll_fmc.c ****   * @{
 107:Drivers/STM32F4xx_HAL_Driver/Src/stm32f4xx_ll_fmc.c ****   */
 108:Drivers/STM32F4xx_HAL_Driver/Src/stm32f4xx_ll_fmc.c ****        
 109:Drivers/STM32F4xx_HAL_Driver/Src/stm32f4xx_ll_fmc.c **** /** @addtogroup FMC_LL_NORSRAM_Private_Functions_Group1
 110:Drivers/STM32F4xx_HAL_Driver/Src/stm32f4xx_ll_fmc.c ****   * @brief    Initialization and Configuration functions 
 111:Drivers/STM32F4xx_HAL_Driver/Src/stm32f4xx_ll_fmc.c ****   *
 112:Drivers/STM32F4xx_HAL_Driver/Src/stm32f4xx_ll_fmc.c ****   @verbatim    
 113:Drivers/STM32F4xx_HAL_Driver/Src/stm32f4xx_ll_fmc.c ****   ==============================================================================
 114:Drivers/STM32F4xx_HAL_Driver/Src/stm32f4xx_ll_fmc.c ****               ##### Initialization and de_initialization functions #####
 115:Drivers/STM32F4xx_HAL_Driver/Src/stm32f4xx_ll_fmc.c ****   ==============================================================================
 116:Drivers/STM32F4xx_HAL_Driver/Src/stm32f4xx_ll_fmc.c ****   [..]  
 117:Drivers/STM32F4xx_HAL_Driver/Src/stm32f4xx_ll_fmc.c ****     This section provides functions allowing to:
 118:Drivers/STM32F4xx_HAL_Driver/Src/stm32f4xx_ll_fmc.c ****     (+) Initialize and configure the FMC NORSRAM interface
 119:Drivers/STM32F4xx_HAL_Driver/Src/stm32f4xx_ll_fmc.c ****     (+) De-initialize the FMC NORSRAM interface 
 120:Drivers/STM32F4xx_HAL_Driver/Src/stm32f4xx_ll_fmc.c ****     (+) Configure the FMC clock and associated GPIOs    
 121:Drivers/STM32F4xx_HAL_Driver/Src/stm32f4xx_ll_fmc.c ****  
 122:Drivers/STM32F4xx_HAL_Driver/Src/stm32f4xx_ll_fmc.c **** @endverbatim
 123:Drivers/STM32F4xx_HAL_Driver/Src/stm32f4xx_ll_fmc.c ****   * @{
 124:Drivers/STM32F4xx_HAL_Driver/Src/stm32f4xx_ll_fmc.c ****   */
 125:Drivers/STM32F4xx_HAL_Driver/Src/stm32f4xx_ll_fmc.c ****   
 126:Drivers/STM32F4xx_HAL_Driver/Src/stm32f4xx_ll_fmc.c **** /**
 127:Drivers/STM32F4xx_HAL_Driver/Src/stm32f4xx_ll_fmc.c ****   * @brief  Initialize the FMC_NORSRAM device according to the specified
 128:Drivers/STM32F4xx_HAL_Driver/Src/stm32f4xx_ll_fmc.c ****   *         control parameters in the FMC_NORSRAM_InitTypeDef
 129:Drivers/STM32F4xx_HAL_Driver/Src/stm32f4xx_ll_fmc.c ****   * @param  Device Pointer to NORSRAM device instance
 130:Drivers/STM32F4xx_HAL_Driver/Src/stm32f4xx_ll_fmc.c ****   * @param  Init Pointer to NORSRAM Initialization structure   
 131:Drivers/STM32F4xx_HAL_Driver/Src/stm32f4xx_ll_fmc.c ****   * @retval HAL status
 132:Drivers/STM32F4xx_HAL_Driver/Src/stm32f4xx_ll_fmc.c ****   */
 133:Drivers/STM32F4xx_HAL_Driver/Src/stm32f4xx_ll_fmc.c **** HAL_StatusTypeDef  FMC_NORSRAM_Init(FMC_NORSRAM_TypeDef *Device, FMC_NORSRAM_InitTypeDef* Init)
 134:Drivers/STM32F4xx_HAL_Driver/Src/stm32f4xx_ll_fmc.c **** { 
  31              		.loc 1 134 1 view -0
  32              		.cfi_startproc
  33              		@ args = 0, pretend = 0, frame = 0
  34              		@ frame_needed = 0, uses_anonymous_args = 0
  35              		@ link register save eliminated.
 135:Drivers/STM32F4xx_HAL_Driver/Src/stm32f4xx_ll_fmc.c ****   uint32_t tmpr = 0U;
  36              		.loc 1 135 3 view .LVU1
 136:Drivers/STM32F4xx_HAL_Driver/Src/stm32f4xx_ll_fmc.c ****     
ARM GAS  C:\Users\zoosman\AppData\Local\Temp\ccuisvXz.s 			page 4


 137:Drivers/STM32F4xx_HAL_Driver/Src/stm32f4xx_ll_fmc.c ****   /* Check the parameters */
 138:Drivers/STM32F4xx_HAL_Driver/Src/stm32f4xx_ll_fmc.c ****   assert_param(IS_FMC_NORSRAM_DEVICE(Device));
  37              		.loc 1 138 3 view .LVU2
 139:Drivers/STM32F4xx_HAL_Driver/Src/stm32f4xx_ll_fmc.c ****   assert_param(IS_FMC_NORSRAM_BANK(Init->NSBank));
  38              		.loc 1 139 3 view .LVU3
 140:Drivers/STM32F4xx_HAL_Driver/Src/stm32f4xx_ll_fmc.c ****   assert_param(IS_FMC_MUX(Init->DataAddressMux));
  39              		.loc 1 140 3 view .LVU4
 141:Drivers/STM32F4xx_HAL_Driver/Src/stm32f4xx_ll_fmc.c ****   assert_param(IS_FMC_MEMORY(Init->MemoryType));
  40              		.loc 1 141 3 view .LVU5
 142:Drivers/STM32F4xx_HAL_Driver/Src/stm32f4xx_ll_fmc.c ****   assert_param(IS_FMC_NORSRAM_MEMORY_WIDTH(Init->MemoryDataWidth));
  41              		.loc 1 142 3 view .LVU6
 143:Drivers/STM32F4xx_HAL_Driver/Src/stm32f4xx_ll_fmc.c ****   assert_param(IS_FMC_BURSTMODE(Init->BurstAccessMode));
  42              		.loc 1 143 3 view .LVU7
 144:Drivers/STM32F4xx_HAL_Driver/Src/stm32f4xx_ll_fmc.c ****   assert_param(IS_FMC_WAIT_POLARITY(Init->WaitSignalPolarity));
  43              		.loc 1 144 3 view .LVU8
 145:Drivers/STM32F4xx_HAL_Driver/Src/stm32f4xx_ll_fmc.c **** #if defined(STM32F427xx) || defined(STM32F437xx) || defined(STM32F429xx) || defined(STM32F439xx)
 146:Drivers/STM32F4xx_HAL_Driver/Src/stm32f4xx_ll_fmc.c ****   assert_param(IS_FMC_WRAP_MODE(Init->WrapMode));
  44              		.loc 1 146 3 view .LVU9
 147:Drivers/STM32F4xx_HAL_Driver/Src/stm32f4xx_ll_fmc.c **** #endif /* STM32F427xx || STM32F437xx || STM32F429xx || STM32F439xx */
 148:Drivers/STM32F4xx_HAL_Driver/Src/stm32f4xx_ll_fmc.c ****   assert_param(IS_FMC_WAIT_SIGNAL_ACTIVE(Init->WaitSignalActive));
  45              		.loc 1 148 3 view .LVU10
 149:Drivers/STM32F4xx_HAL_Driver/Src/stm32f4xx_ll_fmc.c ****   assert_param(IS_FMC_WRITE_OPERATION(Init->WriteOperation));
  46              		.loc 1 149 3 view .LVU11
 150:Drivers/STM32F4xx_HAL_Driver/Src/stm32f4xx_ll_fmc.c ****   assert_param(IS_FMC_WAITE_SIGNAL(Init->WaitSignal));
  47              		.loc 1 150 3 view .LVU12
 151:Drivers/STM32F4xx_HAL_Driver/Src/stm32f4xx_ll_fmc.c ****   assert_param(IS_FMC_EXTENDED_MODE(Init->ExtendedMode));
  48              		.loc 1 151 3 view .LVU13
 152:Drivers/STM32F4xx_HAL_Driver/Src/stm32f4xx_ll_fmc.c ****   assert_param(IS_FMC_ASYNWAIT(Init->AsynchronousWait));
  49              		.loc 1 152 3 view .LVU14
 153:Drivers/STM32F4xx_HAL_Driver/Src/stm32f4xx_ll_fmc.c ****   assert_param(IS_FMC_WRITE_BURST(Init->WriteBurst));
  50              		.loc 1 153 3 view .LVU15
 154:Drivers/STM32F4xx_HAL_Driver/Src/stm32f4xx_ll_fmc.c ****   assert_param(IS_FMC_CONTINOUS_CLOCK(Init->ContinuousClock));
  51              		.loc 1 154 3 view .LVU16
 155:Drivers/STM32F4xx_HAL_Driver/Src/stm32f4xx_ll_fmc.c ****   assert_param(IS_FMC_PAGESIZE(Init->PageSize));
  52              		.loc 1 155 3 view .LVU17
 156:Drivers/STM32F4xx_HAL_Driver/Src/stm32f4xx_ll_fmc.c **** #if defined (STM32F446xx) || defined(STM32F469xx) || defined(STM32F479xx)
 157:Drivers/STM32F4xx_HAL_Driver/Src/stm32f4xx_ll_fmc.c ****   assert_param(IS_FMC_WRITE_FIFO(Init->WriteFifo));
 158:Drivers/STM32F4xx_HAL_Driver/Src/stm32f4xx_ll_fmc.c **** #endif /* STM32F446xx || STM32F469xx || STM32F479xx */
 159:Drivers/STM32F4xx_HAL_Driver/Src/stm32f4xx_ll_fmc.c **** 
 160:Drivers/STM32F4xx_HAL_Driver/Src/stm32f4xx_ll_fmc.c ****   /* Get the BTCR register value */
 161:Drivers/STM32F4xx_HAL_Driver/Src/stm32f4xx_ll_fmc.c ****   tmpr = Device->BTCR[Init->NSBank];
  53              		.loc 1 161 3 view .LVU18
 162:Drivers/STM32F4xx_HAL_Driver/Src/stm32f4xx_ll_fmc.c **** 
 163:Drivers/STM32F4xx_HAL_Driver/Src/stm32f4xx_ll_fmc.c **** #if defined(STM32F427xx) || defined(STM32F437xx) || defined(STM32F429xx) || defined(STM32F439xx)
 164:Drivers/STM32F4xx_HAL_Driver/Src/stm32f4xx_ll_fmc.c ****   /* Clear MBKEN, MUXEN, MTYP, MWID, FACCEN, BURSTEN, WAITPOL, WRAPMOD, WAITCFG, WREN,
 165:Drivers/STM32F4xx_HAL_Driver/Src/stm32f4xx_ll_fmc.c ****            WAITEN, EXTMOD, ASYNCWAIT, CPSIZE, CBURSTRW and CCLKEN bits */
 166:Drivers/STM32F4xx_HAL_Driver/Src/stm32f4xx_ll_fmc.c ****   tmpr &= ((uint32_t)~(FMC_BCR1_MBKEN     | FMC_BCR1_MUXEN    | FMC_BCR1_MTYP     | \
 167:Drivers/STM32F4xx_HAL_Driver/Src/stm32f4xx_ll_fmc.c ****                        FMC_BCR1_MWID      | FMC_BCR1_FACCEN   | FMC_BCR1_BURSTEN  | \
 168:Drivers/STM32F4xx_HAL_Driver/Src/stm32f4xx_ll_fmc.c ****                        FMC_BCR1_WAITPOL   | FMC_BCR1_WRAPMOD  | FMC_BCR1_WAITCFG  | \
 169:Drivers/STM32F4xx_HAL_Driver/Src/stm32f4xx_ll_fmc.c ****                        FMC_BCR1_WREN      | FMC_BCR1_WAITEN   | FMC_BCR1_EXTMOD   | \
 170:Drivers/STM32F4xx_HAL_Driver/Src/stm32f4xx_ll_fmc.c ****                        FMC_BCR1_ASYNCWAIT | FMC_BCR1_CPSIZE   | FMC_BCR1_CBURSTRW | \
 171:Drivers/STM32F4xx_HAL_Driver/Src/stm32f4xx_ll_fmc.c ****                        FMC_BCR1_CCLKEN));
 172:Drivers/STM32F4xx_HAL_Driver/Src/stm32f4xx_ll_fmc.c ****   
 173:Drivers/STM32F4xx_HAL_Driver/Src/stm32f4xx_ll_fmc.c ****   /* Set NORSRAM device control parameters */
 174:Drivers/STM32F4xx_HAL_Driver/Src/stm32f4xx_ll_fmc.c ****   tmpr |= (uint32_t)(Init->DataAddressMux       |\
  54              		.loc 1 174 49 is_stmt 0 view .LVU19
  55 0000 D1E90132 		ldrd	r3, r2, [r1, #4]
ARM GAS  C:\Users\zoosman\AppData\Local\Temp\ccuisvXz.s 			page 5


 134:Drivers/STM32F4xx_HAL_Driver/Src/stm32f4xx_ll_fmc.c ****   uint32_t tmpr = 0U;
  56              		.loc 1 134 1 view .LVU20
  57 0004 F0B4     		push	{r4, r5, r6, r7}
  58              	.LCFI0:
  59              		.cfi_def_cfa_offset 16
  60              		.cfi_offset 4, -16
  61              		.cfi_offset 5, -12
  62              		.cfi_offset 6, -8
  63              		.cfi_offset 7, -4
 175:Drivers/STM32F4xx_HAL_Driver/Src/stm32f4xx_ll_fmc.c ****                     Init->MemoryType           |\
 176:Drivers/STM32F4xx_HAL_Driver/Src/stm32f4xx_ll_fmc.c ****                     Init->MemoryDataWidth      |\
  64              		.loc 1 176 48 view .LVU21
  65 0006 D1E90375 		ldrd	r7, r5, [r1, #12]
 177:Drivers/STM32F4xx_HAL_Driver/Src/stm32f4xx_ll_fmc.c ****                     Init->BurstAccessMode      |\
 178:Drivers/STM32F4xx_HAL_Driver/Src/stm32f4xx_ll_fmc.c ****                     Init->WaitSignalPolarity   |\
  66              		.loc 1 178 48 view .LVU22
  67 000a D1E90546 		ldrd	r4, r6, [r1, #20]
 174:Drivers/STM32F4xx_HAL_Driver/Src/stm32f4xx_ll_fmc.c ****                     Init->MemoryType           |\
  68              		.loc 1 174 49 view .LVU23
  69 000e 1343     		orrs	r3, r3, r2
 175:Drivers/STM32F4xx_HAL_Driver/Src/stm32f4xx_ll_fmc.c ****                     Init->MemoryType           |\
  70              		.loc 1 175 48 view .LVU24
  71 0010 3B43     		orrs	r3, r3, r7
 176:Drivers/STM32F4xx_HAL_Driver/Src/stm32f4xx_ll_fmc.c ****                     Init->BurstAccessMode      |\
  72              		.loc 1 176 48 view .LVU25
  73 0012 2B43     		orrs	r3, r3, r5
 179:Drivers/STM32F4xx_HAL_Driver/Src/stm32f4xx_ll_fmc.c ****                     Init->WrapMode             |\
 180:Drivers/STM32F4xx_HAL_Driver/Src/stm32f4xx_ll_fmc.c ****                     Init->WaitSignalActive     |\
  74              		.loc 1 180 48 view .LVU26
  75 0014 D1E90775 		ldrd	r7, r5, [r1, #28]
 177:Drivers/STM32F4xx_HAL_Driver/Src/stm32f4xx_ll_fmc.c ****                     Init->WaitSignalPolarity   |\
  76              		.loc 1 177 48 view .LVU27
  77 0018 2343     		orrs	r3, r3, r4
 178:Drivers/STM32F4xx_HAL_Driver/Src/stm32f4xx_ll_fmc.c ****                     Init->WrapMode             |\
  78              		.loc 1 178 48 view .LVU28
  79 001a 3343     		orrs	r3, r3, r6
 179:Drivers/STM32F4xx_HAL_Driver/Src/stm32f4xx_ll_fmc.c ****                     Init->WrapMode             |\
  80              		.loc 1 179 48 view .LVU29
  81 001c 3B43     		orrs	r3, r3, r7
 181:Drivers/STM32F4xx_HAL_Driver/Src/stm32f4xx_ll_fmc.c ****                     Init->WriteOperation       |\
  82              		.loc 1 181 48 view .LVU30
  83 001e 4C6A     		ldr	r4, [r1, #36]
 182:Drivers/STM32F4xx_HAL_Driver/Src/stm32f4xx_ll_fmc.c ****                     Init->WaitSignal           |\
 183:Drivers/STM32F4xx_HAL_Driver/Src/stm32f4xx_ll_fmc.c ****                     Init->ExtendedMode         |\
 184:Drivers/STM32F4xx_HAL_Driver/Src/stm32f4xx_ll_fmc.c ****                     Init->AsynchronousWait     |\
  84              		.loc 1 184 48 view .LVU31
  85 0020 CE6B     		ldr	r6, [r1, #60]
 180:Drivers/STM32F4xx_HAL_Driver/Src/stm32f4xx_ll_fmc.c ****                     Init->WriteOperation       |\
  86              		.loc 1 180 48 view .LVU32
  87 0022 2B43     		orrs	r3, r3, r5
 183:Drivers/STM32F4xx_HAL_Driver/Src/stm32f4xx_ll_fmc.c ****                     Init->AsynchronousWait     |\
  88              		.loc 1 183 48 view .LVU33
  89 0024 D1E90A5C 		ldrd	r5, ip, [r1, #40]
 181:Drivers/STM32F4xx_HAL_Driver/Src/stm32f4xx_ll_fmc.c ****                     Init->WaitSignal           |\
  90              		.loc 1 181 48 view .LVU34
  91 0028 2343     		orrs	r3, r3, r4
 182:Drivers/STM32F4xx_HAL_Driver/Src/stm32f4xx_ll_fmc.c ****                     Init->ExtendedMode         |\
ARM GAS  C:\Users\zoosman\AppData\Local\Temp\ccuisvXz.s 			page 6


  92              		.loc 1 182 48 view .LVU35
  93 002a 2B43     		orrs	r3, r3, r5
 161:Drivers/STM32F4xx_HAL_Driver/Src/stm32f4xx_ll_fmc.c **** 
  94              		.loc 1 161 27 view .LVU36
  95 002c 0C68     		ldr	r4, [r1]
 185:Drivers/STM32F4xx_HAL_Driver/Src/stm32f4xx_ll_fmc.c ****                     Init->PageSize             |\
 186:Drivers/STM32F4xx_HAL_Driver/Src/stm32f4xx_ll_fmc.c ****                     Init->WriteBurst           |\
 187:Drivers/STM32F4xx_HAL_Driver/Src/stm32f4xx_ll_fmc.c ****                     Init->ContinuousClock);
  96              		.loc 1 187 25 view .LVU37
  97 002e D1E90C75 		ldrd	r7, r5, [r1, #48]
 183:Drivers/STM32F4xx_HAL_Driver/Src/stm32f4xx_ll_fmc.c ****                     Init->AsynchronousWait     |\
  98              		.loc 1 183 48 view .LVU38
  99 0032 43EA0C03 		orr	r3, r3, ip
 184:Drivers/STM32F4xx_HAL_Driver/Src/stm32f4xx_ll_fmc.c ****                     Init->PageSize             |\
 100              		.loc 1 184 48 view .LVU39
 101 0036 3343     		orrs	r3, r3, r6
 166:Drivers/STM32F4xx_HAL_Driver/Src/stm32f4xx_ll_fmc.c ****                        FMC_BCR1_MWID      | FMC_BCR1_FACCEN   | FMC_BCR1_BURSTEN  | \
 102              		.loc 1 166 8 view .LVU40
 103 0038 0D49     		ldr	r1, .L10
 104              	.LVL1:
 161:Drivers/STM32F4xx_HAL_Driver/Src/stm32f4xx_ll_fmc.c **** 
 105              		.loc 1 161 8 view .LVU41
 106 003a 50F82460 		ldr	r6, [r0, r4, lsl #2]
 107              	.LVL2:
 166:Drivers/STM32F4xx_HAL_Driver/Src/stm32f4xx_ll_fmc.c ****                        FMC_BCR1_MWID      | FMC_BCR1_FACCEN   | FMC_BCR1_BURSTEN  | \
 108              		.loc 1 166 3 is_stmt 1 view .LVU42
 185:Drivers/STM32F4xx_HAL_Driver/Src/stm32f4xx_ll_fmc.c ****                     Init->WriteBurst           |\
 109              		.loc 1 185 48 is_stmt 0 view .LVU43
 110 003e 3B43     		orrs	r3, r3, r7
 186:Drivers/STM32F4xx_HAL_Driver/Src/stm32f4xx_ll_fmc.c ****                     Init->ContinuousClock);
 111              		.loc 1 186 48 view .LVU44
 112 0040 2B43     		orrs	r3, r3, r5
 166:Drivers/STM32F4xx_HAL_Driver/Src/stm32f4xx_ll_fmc.c ****                        FMC_BCR1_MWID      | FMC_BCR1_FACCEN   | FMC_BCR1_BURSTEN  | \
 113              		.loc 1 166 8 view .LVU45
 114 0042 3140     		ands	r1, r1, r6
 115              	.LVL3:
 174:Drivers/STM32F4xx_HAL_Driver/Src/stm32f4xx_ll_fmc.c ****                     Init->MemoryType           |\
 116              		.loc 1 174 3 is_stmt 1 view .LVU46
 174:Drivers/STM32F4xx_HAL_Driver/Src/stm32f4xx_ll_fmc.c ****                     Init->MemoryType           |\
 117              		.loc 1 174 8 is_stmt 0 view .LVU47
 118 0044 0B43     		orrs	r3, r3, r1
 119              	.LVL4:
 188:Drivers/STM32F4xx_HAL_Driver/Src/stm32f4xx_ll_fmc.c **** #else /* defined(STM32F446xx) || defined(STM32F469xx) || defined(STM32F479xx) */
 189:Drivers/STM32F4xx_HAL_Driver/Src/stm32f4xx_ll_fmc.c ****   /* Clear MBKEN, MUXEN, MTYP, MWID, FACCEN, BURSTEN, WAITPOL, CPSIZE, WAITCFG, WREN,
 190:Drivers/STM32F4xx_HAL_Driver/Src/stm32f4xx_ll_fmc.c ****            WAITEN, EXTMOD, ASYNCWAIT, CBURSTRW, CCLKEN and WFDIS bits */
 191:Drivers/STM32F4xx_HAL_Driver/Src/stm32f4xx_ll_fmc.c ****   tmpr &= ((uint32_t)~(FMC_BCR1_MBKEN     | FMC_BCR1_MUXEN    | FMC_BCR1_MTYP     | \
 192:Drivers/STM32F4xx_HAL_Driver/Src/stm32f4xx_ll_fmc.c ****                        FMC_BCR1_MWID      | FMC_BCR1_FACCEN   | FMC_BCR1_BURSTEN  | \
 193:Drivers/STM32F4xx_HAL_Driver/Src/stm32f4xx_ll_fmc.c ****                        FMC_BCR1_WAITPOL   | FMC_BCR1_WAITCFG  | FMC_BCR1_CPSIZE   | \
 194:Drivers/STM32F4xx_HAL_Driver/Src/stm32f4xx_ll_fmc.c ****                        FMC_BCR1_WREN      | FMC_BCR1_WAITEN   | FMC_BCR1_EXTMOD   | \
 195:Drivers/STM32F4xx_HAL_Driver/Src/stm32f4xx_ll_fmc.c ****                        FMC_BCR1_ASYNCWAIT | FMC_BCR1_CBURSTRW | FMC_BCR1_CCLKEN   | \
 196:Drivers/STM32F4xx_HAL_Driver/Src/stm32f4xx_ll_fmc.c ****                        FMC_BCR1_WFDIS));
 197:Drivers/STM32F4xx_HAL_Driver/Src/stm32f4xx_ll_fmc.c ****   
 198:Drivers/STM32F4xx_HAL_Driver/Src/stm32f4xx_ll_fmc.c ****   /* Set NORSRAM device control parameters */
 199:Drivers/STM32F4xx_HAL_Driver/Src/stm32f4xx_ll_fmc.c ****   tmpr |= (uint32_t)(Init->DataAddressMux       |\
 200:Drivers/STM32F4xx_HAL_Driver/Src/stm32f4xx_ll_fmc.c ****                     Init->MemoryType           |\
 201:Drivers/STM32F4xx_HAL_Driver/Src/stm32f4xx_ll_fmc.c ****                     Init->MemoryDataWidth      |\
 202:Drivers/STM32F4xx_HAL_Driver/Src/stm32f4xx_ll_fmc.c ****                     Init->BurstAccessMode      |\
ARM GAS  C:\Users\zoosman\AppData\Local\Temp\ccuisvXz.s 			page 7


 203:Drivers/STM32F4xx_HAL_Driver/Src/stm32f4xx_ll_fmc.c ****                     Init->WaitSignalPolarity   |\
 204:Drivers/STM32F4xx_HAL_Driver/Src/stm32f4xx_ll_fmc.c ****                     Init->WaitSignalActive     |\
 205:Drivers/STM32F4xx_HAL_Driver/Src/stm32f4xx_ll_fmc.c ****                     Init->WriteOperation       |\
 206:Drivers/STM32F4xx_HAL_Driver/Src/stm32f4xx_ll_fmc.c ****                     Init->WaitSignal           |\
 207:Drivers/STM32F4xx_HAL_Driver/Src/stm32f4xx_ll_fmc.c ****                     Init->ExtendedMode         |\
 208:Drivers/STM32F4xx_HAL_Driver/Src/stm32f4xx_ll_fmc.c ****                     Init->AsynchronousWait     |\
 209:Drivers/STM32F4xx_HAL_Driver/Src/stm32f4xx_ll_fmc.c ****                     Init->WriteBurst           |\
 210:Drivers/STM32F4xx_HAL_Driver/Src/stm32f4xx_ll_fmc.c ****                     Init->ContinuousClock      |\
 211:Drivers/STM32F4xx_HAL_Driver/Src/stm32f4xx_ll_fmc.c ****                     Init->PageSize             |\
 212:Drivers/STM32F4xx_HAL_Driver/Src/stm32f4xx_ll_fmc.c ****                     Init->WriteFifo);
 213:Drivers/STM32F4xx_HAL_Driver/Src/stm32f4xx_ll_fmc.c **** #endif /*  defined(STM32F427xx) || defined(STM32F437xx) || defined(STM32F429xx) || defined(STM32F43
 214:Drivers/STM32F4xx_HAL_Driver/Src/stm32f4xx_ll_fmc.c ****                     
 215:Drivers/STM32F4xx_HAL_Driver/Src/stm32f4xx_ll_fmc.c ****   if(Init->MemoryType == FMC_MEMORY_TYPE_NOR)
 120              		.loc 1 215 3 is_stmt 1 view .LVU48
 121              		.loc 1 215 5 is_stmt 0 view .LVU49
 122 0046 082A     		cmp	r2, #8
 216:Drivers/STM32F4xx_HAL_Driver/Src/stm32f4xx_ll_fmc.c ****   {
 217:Drivers/STM32F4xx_HAL_Driver/Src/stm32f4xx_ll_fmc.c ****     tmpr |= (uint32_t)FMC_NORSRAM_FLASH_ACCESS_ENABLE;
 123              		.loc 1 217 5 is_stmt 1 view .LVU50
 124              		.loc 1 217 10 is_stmt 0 view .LVU51
 125 0048 08BF     		it	eq
 126 004a 43F04003 		orreq	r3, r3, #64
 127              	.LVL5:
 218:Drivers/STM32F4xx_HAL_Driver/Src/stm32f4xx_ll_fmc.c ****   }
 219:Drivers/STM32F4xx_HAL_Driver/Src/stm32f4xx_ll_fmc.c ****   
 220:Drivers/STM32F4xx_HAL_Driver/Src/stm32f4xx_ll_fmc.c ****   Device->BTCR[Init->NSBank] = tmpr;
 128              		.loc 1 220 3 is_stmt 1 view .LVU52
 221:Drivers/STM32F4xx_HAL_Driver/Src/stm32f4xx_ll_fmc.c **** 
 222:Drivers/STM32F4xx_HAL_Driver/Src/stm32f4xx_ll_fmc.c ****   /* Configure synchronous mode when Continuous clock is enabled for bank2..4 */
 223:Drivers/STM32F4xx_HAL_Driver/Src/stm32f4xx_ll_fmc.c ****   if((Init->ContinuousClock == FMC_CONTINUOUS_CLOCK_SYNC_ASYNC) && (Init->NSBank != FMC_NORSRAM_BAN
 129              		.loc 1 223 5 is_stmt 0 view .LVU53
 130 004e B5F5801F 		cmp	r5, #1048576
 220:Drivers/STM32F4xx_HAL_Driver/Src/stm32f4xx_ll_fmc.c **** 
 131              		.loc 1 220 30 view .LVU54
 132 0052 40F82430 		str	r3, [r0, r4, lsl #2]
 133              		.loc 1 223 3 is_stmt 1 view .LVU55
 134              		.loc 1 223 5 is_stmt 0 view .LVU56
 135 0056 02D0     		beq	.L9
 136              	.L3:
 224:Drivers/STM32F4xx_HAL_Driver/Src/stm32f4xx_ll_fmc.c ****   { 
 225:Drivers/STM32F4xx_HAL_Driver/Src/stm32f4xx_ll_fmc.c ****     Device->BTCR[FMC_NORSRAM_BANK1] |= (uint32_t)(Init->ContinuousClock);
 226:Drivers/STM32F4xx_HAL_Driver/Src/stm32f4xx_ll_fmc.c ****   }
 227:Drivers/STM32F4xx_HAL_Driver/Src/stm32f4xx_ll_fmc.c **** 
 228:Drivers/STM32F4xx_HAL_Driver/Src/stm32f4xx_ll_fmc.c **** #if defined(STM32F446xx) || defined(STM32F469xx) || defined(STM32F479xx)
 229:Drivers/STM32F4xx_HAL_Driver/Src/stm32f4xx_ll_fmc.c ****   if(Init->NSBank != FMC_NORSRAM_BANK1)
 230:Drivers/STM32F4xx_HAL_Driver/Src/stm32f4xx_ll_fmc.c ****   {
 231:Drivers/STM32F4xx_HAL_Driver/Src/stm32f4xx_ll_fmc.c ****     Device->BTCR[FMC_NORSRAM_BANK1] |= (uint32_t)(Init->WriteFifo);              
 232:Drivers/STM32F4xx_HAL_Driver/Src/stm32f4xx_ll_fmc.c ****   }
 233:Drivers/STM32F4xx_HAL_Driver/Src/stm32f4xx_ll_fmc.c **** #endif /* STM32F446xx || STM32F469xx || STM32F479xx */
 234:Drivers/STM32F4xx_HAL_Driver/Src/stm32f4xx_ll_fmc.c ****   
 235:Drivers/STM32F4xx_HAL_Driver/Src/stm32f4xx_ll_fmc.c ****   return HAL_OK;
 137              		.loc 1 235 3 is_stmt 1 view .LVU57
 236:Drivers/STM32F4xx_HAL_Driver/Src/stm32f4xx_ll_fmc.c **** }
 138              		.loc 1 236 1 is_stmt 0 view .LVU58
 139 0058 0020     		movs	r0, #0
 140              	.LVL6:
 141              		.loc 1 236 1 view .LVU59
ARM GAS  C:\Users\zoosman\AppData\Local\Temp\ccuisvXz.s 			page 8


 142 005a F0BC     		pop	{r4, r5, r6, r7}
 143              	.LCFI1:
 144              		.cfi_remember_state
 145              		.cfi_restore 7
 146              		.cfi_restore 6
 147              		.cfi_restore 5
 148              		.cfi_restore 4
 149              		.cfi_def_cfa_offset 0
 150 005c 7047     		bx	lr
 151              	.LVL7:
 152              	.L9:
 153              	.LCFI2:
 154              		.cfi_restore_state
 223:Drivers/STM32F4xx_HAL_Driver/Src/stm32f4xx_ll_fmc.c ****   { 
 155              		.loc 1 223 65 discriminator 1 view .LVU60
 156 005e 002C     		cmp	r4, #0
 157 0060 FAD0     		beq	.L3
 225:Drivers/STM32F4xx_HAL_Driver/Src/stm32f4xx_ll_fmc.c ****   }
 158              		.loc 1 225 5 is_stmt 1 view .LVU61
 225:Drivers/STM32F4xx_HAL_Driver/Src/stm32f4xx_ll_fmc.c ****   }
 159              		.loc 1 225 37 is_stmt 0 view .LVU62
 160 0062 0368     		ldr	r3, [r0]
 161              	.LVL8:
 225:Drivers/STM32F4xx_HAL_Driver/Src/stm32f4xx_ll_fmc.c ****   }
 162              		.loc 1 225 37 view .LVU63
 163 0064 43F48013 		orr	r3, r3, #1048576
 164 0068 0360     		str	r3, [r0]
 165              	.LVL9:
 235:Drivers/STM32F4xx_HAL_Driver/Src/stm32f4xx_ll_fmc.c **** }
 166              		.loc 1 235 3 is_stmt 1 view .LVU64
 167              		.loc 1 236 1 is_stmt 0 view .LVU65
 168 006a F0BC     		pop	{r4, r5, r6, r7}
 169              	.LCFI3:
 170              		.cfi_restore 7
 171              		.cfi_restore 6
 172              		.cfi_restore 5
 173              		.cfi_restore 4
 174              		.cfi_def_cfa_offset 0
 175              		.loc 1 236 1 view .LVU66
 176 006c 0020     		movs	r0, #0
 177              	.LVL10:
 178              		.loc 1 236 1 view .LVU67
 179 006e 7047     		bx	lr
 180              	.L11:
 181              		.align	2
 182              	.L10:
 183 0070 8000E0FF 		.word	-2097024
 184              		.cfi_endproc
 185              	.LFE130:
 187              		.section	.text.FMC_NORSRAM_DeInit,"ax",%progbits
 188              		.align	1
 189              		.p2align 2,,3
 190              		.global	FMC_NORSRAM_DeInit
 191              		.syntax unified
 192              		.thumb
 193              		.thumb_func
 194              		.fpu fpv4-sp-d16
ARM GAS  C:\Users\zoosman\AppData\Local\Temp\ccuisvXz.s 			page 9


 196              	FMC_NORSRAM_DeInit:
 197              	.LVL11:
 198              	.LFB131:
 237:Drivers/STM32F4xx_HAL_Driver/Src/stm32f4xx_ll_fmc.c **** 
 238:Drivers/STM32F4xx_HAL_Driver/Src/stm32f4xx_ll_fmc.c **** /**
 239:Drivers/STM32F4xx_HAL_Driver/Src/stm32f4xx_ll_fmc.c ****   * @brief  DeInitialize the FMC_NORSRAM peripheral 
 240:Drivers/STM32F4xx_HAL_Driver/Src/stm32f4xx_ll_fmc.c ****   * @param  Device Pointer to NORSRAM device instance
 241:Drivers/STM32F4xx_HAL_Driver/Src/stm32f4xx_ll_fmc.c ****   * @param  ExDevice Pointer to NORSRAM extended mode device instance  
 242:Drivers/STM32F4xx_HAL_Driver/Src/stm32f4xx_ll_fmc.c ****   * @param  Bank NORSRAM bank number  
 243:Drivers/STM32F4xx_HAL_Driver/Src/stm32f4xx_ll_fmc.c ****   * @retval HAL status
 244:Drivers/STM32F4xx_HAL_Driver/Src/stm32f4xx_ll_fmc.c ****   */
 245:Drivers/STM32F4xx_HAL_Driver/Src/stm32f4xx_ll_fmc.c **** HAL_StatusTypeDef FMC_NORSRAM_DeInit(FMC_NORSRAM_TypeDef *Device, FMC_NORSRAM_EXTENDED_TypeDef *ExD
 246:Drivers/STM32F4xx_HAL_Driver/Src/stm32f4xx_ll_fmc.c **** {
 199              		.loc 1 246 1 is_stmt 1 view -0
 200              		.cfi_startproc
 201              		@ args = 0, pretend = 0, frame = 0
 202              		@ frame_needed = 0, uses_anonymous_args = 0
 203              		@ link register save eliminated.
 247:Drivers/STM32F4xx_HAL_Driver/Src/stm32f4xx_ll_fmc.c ****   /* Check the parameters */
 248:Drivers/STM32F4xx_HAL_Driver/Src/stm32f4xx_ll_fmc.c ****   assert_param(IS_FMC_NORSRAM_DEVICE(Device));
 204              		.loc 1 248 3 view .LVU69
 249:Drivers/STM32F4xx_HAL_Driver/Src/stm32f4xx_ll_fmc.c ****   assert_param(IS_FMC_NORSRAM_EXTENDED_DEVICE(ExDevice));
 205              		.loc 1 249 3 view .LVU70
 250:Drivers/STM32F4xx_HAL_Driver/Src/stm32f4xx_ll_fmc.c ****   assert_param(IS_FMC_NORSRAM_BANK(Bank));
 206              		.loc 1 250 3 view .LVU71
 251:Drivers/STM32F4xx_HAL_Driver/Src/stm32f4xx_ll_fmc.c ****   
 252:Drivers/STM32F4xx_HAL_Driver/Src/stm32f4xx_ll_fmc.c ****   /* Disable the FMC_NORSRAM device */
 253:Drivers/STM32F4xx_HAL_Driver/Src/stm32f4xx_ll_fmc.c ****   __FMC_NORSRAM_DISABLE(Device, Bank);
 207              		.loc 1 253 3 view .LVU72
 208 0000 50F82230 		ldr	r3, [r0, r2, lsl #2]
 209 0004 23F00103 		bic	r3, r3, #1
 246:Drivers/STM32F4xx_HAL_Driver/Src/stm32f4xx_ll_fmc.c ****   /* Check the parameters */
 210              		.loc 1 246 1 is_stmt 0 view .LVU73
 211 0008 10B4     		push	{r4}
 212              	.LCFI4:
 213              		.cfi_def_cfa_offset 4
 214              		.cfi_offset 4, -4
 215              		.loc 1 253 3 view .LVU74
 216 000a 40F82230 		str	r3, [r0, r2, lsl #2]
 254:Drivers/STM32F4xx_HAL_Driver/Src/stm32f4xx_ll_fmc.c ****   
 255:Drivers/STM32F4xx_HAL_Driver/Src/stm32f4xx_ll_fmc.c ****   /* De-initialize the FMC_NORSRAM device */
 256:Drivers/STM32F4xx_HAL_Driver/Src/stm32f4xx_ll_fmc.c ****   /* FMC_NORSRAM_BANK1 */
 257:Drivers/STM32F4xx_HAL_Driver/Src/stm32f4xx_ll_fmc.c ****   if(Bank == FMC_NORSRAM_BANK1)
 217              		.loc 1 257 3 is_stmt 1 view .LVU75
 218 000e 00EB8204 		add	r4, r0, r2, lsl #2
 219              		.loc 1 257 5 is_stmt 0 view .LVU76
 220 0012 5AB9     		cbnz	r2, .L13
 258:Drivers/STM32F4xx_HAL_Driver/Src/stm32f4xx_ll_fmc.c ****   {
 259:Drivers/STM32F4xx_HAL_Driver/Src/stm32f4xx_ll_fmc.c ****     Device->BTCR[Bank] = 0x000030DBU;
 221              		.loc 1 259 5 is_stmt 1 view .LVU77
 222              		.loc 1 259 24 is_stmt 0 view .LVU78
 223 0014 43F2DB03 		movw	r3, #12507
 224 0018 0360     		str	r3, [r0]
 225              	.L14:
 260:Drivers/STM32F4xx_HAL_Driver/Src/stm32f4xx_ll_fmc.c ****   }
 261:Drivers/STM32F4xx_HAL_Driver/Src/stm32f4xx_ll_fmc.c ****   /* FMC_NORSRAM_BANK2, FMC_NORSRAM_BANK3 or FMC_NORSRAM_BANK4 */
 262:Drivers/STM32F4xx_HAL_Driver/Src/stm32f4xx_ll_fmc.c ****   else
ARM GAS  C:\Users\zoosman\AppData\Local\Temp\ccuisvXz.s 			page 10


 263:Drivers/STM32F4xx_HAL_Driver/Src/stm32f4xx_ll_fmc.c ****   {   
 264:Drivers/STM32F4xx_HAL_Driver/Src/stm32f4xx_ll_fmc.c ****     Device->BTCR[Bank] = 0x000030D2U;
 265:Drivers/STM32F4xx_HAL_Driver/Src/stm32f4xx_ll_fmc.c ****   }
 266:Drivers/STM32F4xx_HAL_Driver/Src/stm32f4xx_ll_fmc.c ****   
 267:Drivers/STM32F4xx_HAL_Driver/Src/stm32f4xx_ll_fmc.c ****   Device->BTCR[Bank + 1U] = 0x0FFFFFFFU;
 226              		.loc 1 267 3 is_stmt 1 view .LVU79
 227              		.loc 1 267 27 is_stmt 0 view .LVU80
 228 001a 6FF07043 		mvn	r3, #-268435456
 229 001e 6360     		str	r3, [r4, #4]
 268:Drivers/STM32F4xx_HAL_Driver/Src/stm32f4xx_ll_fmc.c ****   ExDevice->BWTR[Bank]    = 0x0FFFFFFFU;
 230              		.loc 1 268 3 is_stmt 1 view .LVU81
 269:Drivers/STM32F4xx_HAL_Driver/Src/stm32f4xx_ll_fmc.c ****    
 270:Drivers/STM32F4xx_HAL_Driver/Src/stm32f4xx_ll_fmc.c ****   return HAL_OK;
 271:Drivers/STM32F4xx_HAL_Driver/Src/stm32f4xx_ll_fmc.c **** }
 231              		.loc 1 271 1 is_stmt 0 view .LVU82
 232 0020 0020     		movs	r0, #0
 233              	.LVL12:
 268:Drivers/STM32F4xx_HAL_Driver/Src/stm32f4xx_ll_fmc.c ****   ExDevice->BWTR[Bank]    = 0x0FFFFFFFU;
 234              		.loc 1 268 27 view .LVU83
 235 0022 41F82230 		str	r3, [r1, r2, lsl #2]
 270:Drivers/STM32F4xx_HAL_Driver/Src/stm32f4xx_ll_fmc.c **** }
 236              		.loc 1 270 3 is_stmt 1 view .LVU84
 237              		.loc 1 271 1 is_stmt 0 view .LVU85
 238 0026 5DF8044B 		ldr	r4, [sp], #4
 239              	.LCFI5:
 240              		.cfi_remember_state
 241              		.cfi_restore 4
 242              		.cfi_def_cfa_offset 0
 243 002a 7047     		bx	lr
 244              	.LVL13:
 245              	.L13:
 246              	.LCFI6:
 247              		.cfi_restore_state
 264:Drivers/STM32F4xx_HAL_Driver/Src/stm32f4xx_ll_fmc.c ****   }
 248              		.loc 1 264 5 is_stmt 1 view .LVU86
 264:Drivers/STM32F4xx_HAL_Driver/Src/stm32f4xx_ll_fmc.c ****   }
 249              		.loc 1 264 24 is_stmt 0 view .LVU87
 250 002c 43F2D203 		movw	r3, #12498
 251 0030 40F82230 		str	r3, [r0, r2, lsl #2]
 252 0034 F1E7     		b	.L14
 253              		.cfi_endproc
 254              	.LFE131:
 256 0036 00BF     		.section	.text.FMC_NORSRAM_Timing_Init,"ax",%progbits
 257              		.align	1
 258              		.p2align 2,,3
 259              		.global	FMC_NORSRAM_Timing_Init
 260              		.syntax unified
 261              		.thumb
 262              		.thumb_func
 263              		.fpu fpv4-sp-d16
 265              	FMC_NORSRAM_Timing_Init:
 266              	.LVL14:
 267              	.LFB132:
 272:Drivers/STM32F4xx_HAL_Driver/Src/stm32f4xx_ll_fmc.c **** 
 273:Drivers/STM32F4xx_HAL_Driver/Src/stm32f4xx_ll_fmc.c **** /**
 274:Drivers/STM32F4xx_HAL_Driver/Src/stm32f4xx_ll_fmc.c ****   * @brief  Initialize the FMC_NORSRAM Timing according to the specified
 275:Drivers/STM32F4xx_HAL_Driver/Src/stm32f4xx_ll_fmc.c ****   *         parameters in the FMC_NORSRAM_TimingTypeDef
ARM GAS  C:\Users\zoosman\AppData\Local\Temp\ccuisvXz.s 			page 11


 276:Drivers/STM32F4xx_HAL_Driver/Src/stm32f4xx_ll_fmc.c ****   * @param  Device Pointer to NORSRAM device instance
 277:Drivers/STM32F4xx_HAL_Driver/Src/stm32f4xx_ll_fmc.c ****   * @param  Timing Pointer to NORSRAM Timing structure
 278:Drivers/STM32F4xx_HAL_Driver/Src/stm32f4xx_ll_fmc.c ****   * @param  Bank NORSRAM bank number  
 279:Drivers/STM32F4xx_HAL_Driver/Src/stm32f4xx_ll_fmc.c ****   * @retval HAL status
 280:Drivers/STM32F4xx_HAL_Driver/Src/stm32f4xx_ll_fmc.c ****   */
 281:Drivers/STM32F4xx_HAL_Driver/Src/stm32f4xx_ll_fmc.c **** HAL_StatusTypeDef FMC_NORSRAM_Timing_Init(FMC_NORSRAM_TypeDef *Device, FMC_NORSRAM_TimingTypeDef *T
 282:Drivers/STM32F4xx_HAL_Driver/Src/stm32f4xx_ll_fmc.c **** {
 268              		.loc 1 282 1 is_stmt 1 view -0
 269              		.cfi_startproc
 270              		@ args = 0, pretend = 0, frame = 0
 271              		@ frame_needed = 0, uses_anonymous_args = 0
 272              		@ link register save eliminated.
 283:Drivers/STM32F4xx_HAL_Driver/Src/stm32f4xx_ll_fmc.c ****   uint32_t tmpr = 0U;
 273              		.loc 1 283 3 view .LVU89
 284:Drivers/STM32F4xx_HAL_Driver/Src/stm32f4xx_ll_fmc.c ****   
 285:Drivers/STM32F4xx_HAL_Driver/Src/stm32f4xx_ll_fmc.c ****   /* Check the parameters */
 286:Drivers/STM32F4xx_HAL_Driver/Src/stm32f4xx_ll_fmc.c ****   assert_param(IS_FMC_NORSRAM_DEVICE(Device));
 274              		.loc 1 286 3 view .LVU90
 287:Drivers/STM32F4xx_HAL_Driver/Src/stm32f4xx_ll_fmc.c ****   assert_param(IS_FMC_ADDRESS_SETUP_TIME(Timing->AddressSetupTime));
 275              		.loc 1 287 3 view .LVU91
 288:Drivers/STM32F4xx_HAL_Driver/Src/stm32f4xx_ll_fmc.c ****   assert_param(IS_FMC_ADDRESS_HOLD_TIME(Timing->AddressHoldTime));
 276              		.loc 1 288 3 view .LVU92
 289:Drivers/STM32F4xx_HAL_Driver/Src/stm32f4xx_ll_fmc.c ****   assert_param(IS_FMC_DATASETUP_TIME(Timing->DataSetupTime));
 277              		.loc 1 289 3 view .LVU93
 290:Drivers/STM32F4xx_HAL_Driver/Src/stm32f4xx_ll_fmc.c ****   assert_param(IS_FMC_TURNAROUND_TIME(Timing->BusTurnAroundDuration));
 278              		.loc 1 290 3 view .LVU94
 291:Drivers/STM32F4xx_HAL_Driver/Src/stm32f4xx_ll_fmc.c ****   assert_param(IS_FMC_CLK_DIV(Timing->CLKDivision));
 279              		.loc 1 291 3 view .LVU95
 292:Drivers/STM32F4xx_HAL_Driver/Src/stm32f4xx_ll_fmc.c ****   assert_param(IS_FMC_DATA_LATENCY(Timing->DataLatency));
 280              		.loc 1 292 3 view .LVU96
 293:Drivers/STM32F4xx_HAL_Driver/Src/stm32f4xx_ll_fmc.c ****   assert_param(IS_FMC_ACCESS_MODE(Timing->AccessMode));
 281              		.loc 1 293 3 view .LVU97
 294:Drivers/STM32F4xx_HAL_Driver/Src/stm32f4xx_ll_fmc.c ****   assert_param(IS_FMC_NORSRAM_BANK(Bank));
 282              		.loc 1 294 3 view .LVU98
 295:Drivers/STM32F4xx_HAL_Driver/Src/stm32f4xx_ll_fmc.c ****   
 296:Drivers/STM32F4xx_HAL_Driver/Src/stm32f4xx_ll_fmc.c ****   /* Get the BTCR register value */
 297:Drivers/STM32F4xx_HAL_Driver/Src/stm32f4xx_ll_fmc.c ****   tmpr = Device->BTCR[Bank + 1U];
 283              		.loc 1 297 3 view .LVU99
 282:Drivers/STM32F4xx_HAL_Driver/Src/stm32f4xx_ll_fmc.c ****   uint32_t tmpr = 0U;
 284              		.loc 1 282 1 is_stmt 0 view .LVU100
 285 0000 F0B4     		push	{r4, r5, r6, r7}
 286              	.LCFI7:
 287              		.cfi_def_cfa_offset 16
 288              		.cfi_offset 4, -16
 289              		.cfi_offset 5, -12
 290              		.cfi_offset 6, -8
 291              		.cfi_offset 7, -4
 298:Drivers/STM32F4xx_HAL_Driver/Src/stm32f4xx_ll_fmc.c **** 
 299:Drivers/STM32F4xx_HAL_Driver/Src/stm32f4xx_ll_fmc.c ****   /* Clear ADDSET, ADDHLD, DATAST, BUSTURN, CLKDIV, DATLAT and ACCMOD bits */
 300:Drivers/STM32F4xx_HAL_Driver/Src/stm32f4xx_ll_fmc.c ****   tmpr &= ((uint32_t)~(FMC_BTR1_ADDSET  | FMC_BTR1_ADDHLD | FMC_BTR1_DATAST | \
 301:Drivers/STM32F4xx_HAL_Driver/Src/stm32f4xx_ll_fmc.c ****                        FMC_BTR1_BUSTURN | FMC_BTR1_CLKDIV | FMC_BTR1_DATLAT | \
 302:Drivers/STM32F4xx_HAL_Driver/Src/stm32f4xx_ll_fmc.c ****                        FMC_BTR1_ACCMOD));
 303:Drivers/STM32F4xx_HAL_Driver/Src/stm32f4xx_ll_fmc.c ****   
 304:Drivers/STM32F4xx_HAL_Driver/Src/stm32f4xx_ll_fmc.c ****   /* Set FMC_NORSRAM device timing parameters */  
 305:Drivers/STM32F4xx_HAL_Driver/Src/stm32f4xx_ll_fmc.c ****   tmpr |= (uint32_t)(Timing->AddressSetupTime                   |\
 292              		.loc 1 305 11 view .LVU101
 293 0002 0B68     		ldr	r3, [r1]
ARM GAS  C:\Users\zoosman\AppData\Local\Temp\ccuisvXz.s 			page 12


 294 0004 8D69     		ldr	r5, [r1, #24]
 306:Drivers/STM32F4xx_HAL_Driver/Src/stm32f4xx_ll_fmc.c ****                     ((Timing->AddressHoldTime) << 4U)           |\
 295              		.loc 1 306 48 view .LVU102
 296 0006 4C68     		ldr	r4, [r1, #4]
 307:Drivers/STM32F4xx_HAL_Driver/Src/stm32f4xx_ll_fmc.c ****                     ((Timing->DataSetupTime) << 8U)             |\
 297              		.loc 1 307 46 view .LVU103
 298 0008 8F68     		ldr	r7, [r1, #8]
 305:Drivers/STM32F4xx_HAL_Driver/Src/stm32f4xx_ll_fmc.c ****                     ((Timing->AddressHoldTime) << 4U)           |\
 299              		.loc 1 305 11 view .LVU104
 300 000a 2B43     		orrs	r3, r3, r5
 301 000c 43EA0413 		orr	r3, r3, r4, lsl #4
 308:Drivers/STM32F4xx_HAL_Driver/Src/stm32f4xx_ll_fmc.c ****                     ((Timing->BusTurnAroundDuration) << 16U)    |\
 309:Drivers/STM32F4xx_HAL_Driver/Src/stm32f4xx_ll_fmc.c ****                     (((Timing->CLKDivision) - 1U) << 20U)         |\
 302              		.loc 1 309 45 view .LVU105
 303 0010 D1E90364 		ldrd	r6, r4, [r1, #12]
 304 0014 00EB8202 		add	r2, r0, r2, lsl #2
 305              	.LVL15:
 310:Drivers/STM32F4xx_HAL_Driver/Src/stm32f4xx_ll_fmc.c ****                     (((Timing->DataLatency) - 2U) << 24U)         |\
 306              		.loc 1 310 45 view .LVU106
 307 0018 4D69     		ldr	r5, [r1, #20]
 305:Drivers/STM32F4xx_HAL_Driver/Src/stm32f4xx_ll_fmc.c ****                     ((Timing->AddressHoldTime) << 4U)           |\
 308              		.loc 1 305 11 view .LVU107
 309 001a 43EA0723 		orr	r3, r3, r7, lsl #8
 309:Drivers/STM32F4xx_HAL_Driver/Src/stm32f4xx_ll_fmc.c ****                     (((Timing->DataLatency) - 2U) << 24U)         |\
 310              		.loc 1 309 45 view .LVU108
 311 001e 611E     		subs	r1, r4, #1
 312              	.LVL16:
 305:Drivers/STM32F4xx_HAL_Driver/Src/stm32f4xx_ll_fmc.c ****                     ((Timing->AddressHoldTime) << 4U)           |\
 313              		.loc 1 305 11 view .LVU109
 314 0020 43EA0643 		orr	r3, r3, r6, lsl #16
 297:Drivers/STM32F4xx_HAL_Driver/Src/stm32f4xx_ll_fmc.c **** 
 315              		.loc 1 297 8 view .LVU110
 316 0024 5468     		ldr	r4, [r2, #4]
 317              	.LVL17:
 300:Drivers/STM32F4xx_HAL_Driver/Src/stm32f4xx_ll_fmc.c ****                        FMC_BTR1_BUSTURN | FMC_BTR1_CLKDIV | FMC_BTR1_DATLAT | \
 318              		.loc 1 300 3 is_stmt 1 view .LVU111
 305:Drivers/STM32F4xx_HAL_Driver/Src/stm32f4xx_ll_fmc.c ****                     ((Timing->AddressHoldTime) << 4U)           |\
 319              		.loc 1 305 11 is_stmt 0 view .LVU112
 320 0026 43EA0153 		orr	r3, r3, r1, lsl #20
 321              		.loc 1 310 45 view .LVU113
 322 002a 023D     		subs	r5, r5, #2
 305:Drivers/STM32F4xx_HAL_Driver/Src/stm32f4xx_ll_fmc.c ****                     ((Timing->AddressHoldTime) << 4U)           |\
 323              		.loc 1 305 11 view .LVU114
 324 002c 43EA0563 		orr	r3, r3, r5, lsl #24
 300:Drivers/STM32F4xx_HAL_Driver/Src/stm32f4xx_ll_fmc.c ****                        FMC_BTR1_BUSTURN | FMC_BTR1_CLKDIV | FMC_BTR1_DATLAT | \
 325              		.loc 1 300 8 view .LVU115
 326 0030 04F04044 		and	r4, r4, #-1073741824
 327              	.LVL18:
 305:Drivers/STM32F4xx_HAL_Driver/Src/stm32f4xx_ll_fmc.c ****                     ((Timing->AddressHoldTime) << 4U)           |\
 328              		.loc 1 305 3 is_stmt 1 view .LVU116
 305:Drivers/STM32F4xx_HAL_Driver/Src/stm32f4xx_ll_fmc.c ****                     ((Timing->AddressHoldTime) << 4U)           |\
 329              		.loc 1 305 8 is_stmt 0 view .LVU117
 330 0034 2343     		orrs	r3, r3, r4
 331              	.LVL19:
 311:Drivers/STM32F4xx_HAL_Driver/Src/stm32f4xx_ll_fmc.c ****                     (Timing->AccessMode));
 312:Drivers/STM32F4xx_HAL_Driver/Src/stm32f4xx_ll_fmc.c ****   
 313:Drivers/STM32F4xx_HAL_Driver/Src/stm32f4xx_ll_fmc.c ****   Device->BTCR[Bank + 1U] = tmpr;
ARM GAS  C:\Users\zoosman\AppData\Local\Temp\ccuisvXz.s 			page 13


 332              		.loc 1 313 3 is_stmt 1 view .LVU118
 333              		.loc 1 313 27 is_stmt 0 view .LVU119
 334 0036 5360     		str	r3, [r2, #4]
 314:Drivers/STM32F4xx_HAL_Driver/Src/stm32f4xx_ll_fmc.c ****   
 315:Drivers/STM32F4xx_HAL_Driver/Src/stm32f4xx_ll_fmc.c ****   /* Configure Clock division value (in NORSRAM bank 1) when continuous clock is enabled */
 316:Drivers/STM32F4xx_HAL_Driver/Src/stm32f4xx_ll_fmc.c ****   if(HAL_IS_BIT_SET(Device->BTCR[FMC_NORSRAM_BANK1], FMC_BCR1_CCLKEN))
 335              		.loc 1 316 3 is_stmt 1 view .LVU120
 336              		.loc 1 316 6 is_stmt 0 view .LVU121
 337 0038 0368     		ldr	r3, [r0]
 338              	.LVL20:
 339              		.loc 1 316 5 view .LVU122
 340 003a DB02     		lsls	r3, r3, #11
 341 003c 05D5     		bpl	.L17
 317:Drivers/STM32F4xx_HAL_Driver/Src/stm32f4xx_ll_fmc.c ****   {
 318:Drivers/STM32F4xx_HAL_Driver/Src/stm32f4xx_ll_fmc.c ****     tmpr = (uint32_t)(Device->BTCR[FMC_NORSRAM_BANK1 + 1U] & ~(0x0FU << 20U)); 
 342              		.loc 1 318 35 view .LVU123
 343 003e 4368     		ldr	r3, [r0, #4]
 344 0040 0905     		lsls	r1, r1, #20
 345              		.loc 1 318 5 is_stmt 1 view .LVU124
 346              		.loc 1 318 10 is_stmt 0 view .LVU125
 347 0042 23F47003 		bic	r3, r3, #15728640
 348              	.LVL21:
 319:Drivers/STM32F4xx_HAL_Driver/Src/stm32f4xx_ll_fmc.c ****     tmpr |= (uint32_t)(((Timing->CLKDivision) - 1U) << 20U);
 349              		.loc 1 319 5 is_stmt 1 view .LVU126
 350              		.loc 1 319 10 is_stmt 0 view .LVU127
 351 0046 1943     		orrs	r1, r1, r3
 352              	.LVL22:
 320:Drivers/STM32F4xx_HAL_Driver/Src/stm32f4xx_ll_fmc.c ****     Device->BTCR[FMC_NORSRAM_BANK1 + 1U] = tmpr;
 353              		.loc 1 320 5 is_stmt 1 view .LVU128
 354              		.loc 1 320 42 is_stmt 0 view .LVU129
 355 0048 4160     		str	r1, [r0, #4]
 356              	.LVL23:
 357              	.L17:
 321:Drivers/STM32F4xx_HAL_Driver/Src/stm32f4xx_ll_fmc.c ****   }  
 322:Drivers/STM32F4xx_HAL_Driver/Src/stm32f4xx_ll_fmc.c ****   
 323:Drivers/STM32F4xx_HAL_Driver/Src/stm32f4xx_ll_fmc.c ****   return HAL_OK;   
 358              		.loc 1 323 3 is_stmt 1 view .LVU130
 324:Drivers/STM32F4xx_HAL_Driver/Src/stm32f4xx_ll_fmc.c **** }
 359              		.loc 1 324 1 is_stmt 0 view .LVU131
 360 004a 0020     		movs	r0, #0
 361              	.LVL24:
 362              		.loc 1 324 1 view .LVU132
 363 004c F0BC     		pop	{r4, r5, r6, r7}
 364              	.LCFI8:
 365              		.cfi_restore 7
 366              		.cfi_restore 6
 367              		.cfi_restore 5
 368              		.cfi_restore 4
 369              		.cfi_def_cfa_offset 0
 370 004e 7047     		bx	lr
 371              		.cfi_endproc
 372              	.LFE132:
 374              		.section	.text.FMC_NORSRAM_Extended_Timing_Init,"ax",%progbits
 375              		.align	1
 376              		.p2align 2,,3
 377              		.global	FMC_NORSRAM_Extended_Timing_Init
 378              		.syntax unified
ARM GAS  C:\Users\zoosman\AppData\Local\Temp\ccuisvXz.s 			page 14


 379              		.thumb
 380              		.thumb_func
 381              		.fpu fpv4-sp-d16
 383              	FMC_NORSRAM_Extended_Timing_Init:
 384              	.LVL25:
 385              	.LFB133:
 325:Drivers/STM32F4xx_HAL_Driver/Src/stm32f4xx_ll_fmc.c **** 
 326:Drivers/STM32F4xx_HAL_Driver/Src/stm32f4xx_ll_fmc.c **** /**
 327:Drivers/STM32F4xx_HAL_Driver/Src/stm32f4xx_ll_fmc.c ****   * @brief  Initialize the FMC_NORSRAM Extended mode Timing according to the specified
 328:Drivers/STM32F4xx_HAL_Driver/Src/stm32f4xx_ll_fmc.c ****   *         parameters in the FMC_NORSRAM_TimingTypeDef
 329:Drivers/STM32F4xx_HAL_Driver/Src/stm32f4xx_ll_fmc.c ****   * @param  Device Pointer to NORSRAM device instance
 330:Drivers/STM32F4xx_HAL_Driver/Src/stm32f4xx_ll_fmc.c ****   * @param  Timing Pointer to NORSRAM Timing structure
 331:Drivers/STM32F4xx_HAL_Driver/Src/stm32f4xx_ll_fmc.c ****   * @param  Bank NORSRAM bank number  
 332:Drivers/STM32F4xx_HAL_Driver/Src/stm32f4xx_ll_fmc.c ****   * @retval HAL status
 333:Drivers/STM32F4xx_HAL_Driver/Src/stm32f4xx_ll_fmc.c ****   */
 334:Drivers/STM32F4xx_HAL_Driver/Src/stm32f4xx_ll_fmc.c **** HAL_StatusTypeDef  FMC_NORSRAM_Extended_Timing_Init(FMC_NORSRAM_EXTENDED_TypeDef *Device, FMC_NORSR
 335:Drivers/STM32F4xx_HAL_Driver/Src/stm32f4xx_ll_fmc.c **** {  
 386              		.loc 1 335 1 is_stmt 1 view -0
 387              		.cfi_startproc
 388              		@ args = 0, pretend = 0, frame = 0
 389              		@ frame_needed = 0, uses_anonymous_args = 0
 390              		@ link register save eliminated.
 336:Drivers/STM32F4xx_HAL_Driver/Src/stm32f4xx_ll_fmc.c ****   uint32_t tmpr = 0U;
 391              		.loc 1 336 3 view .LVU134
 337:Drivers/STM32F4xx_HAL_Driver/Src/stm32f4xx_ll_fmc.c ****  
 338:Drivers/STM32F4xx_HAL_Driver/Src/stm32f4xx_ll_fmc.c ****   /* Check the parameters */
 339:Drivers/STM32F4xx_HAL_Driver/Src/stm32f4xx_ll_fmc.c ****   assert_param(IS_FMC_EXTENDED_MODE(ExtendedMode));
 392              		.loc 1 339 3 view .LVU135
 340:Drivers/STM32F4xx_HAL_Driver/Src/stm32f4xx_ll_fmc.c ****   
 341:Drivers/STM32F4xx_HAL_Driver/Src/stm32f4xx_ll_fmc.c ****   /* Set NORSRAM device timing register for write configuration, if extended mode is used */
 342:Drivers/STM32F4xx_HAL_Driver/Src/stm32f4xx_ll_fmc.c ****   if(ExtendedMode == FMC_EXTENDED_MODE_ENABLE)
 393              		.loc 1 342 3 view .LVU136
 394              		.loc 1 342 5 is_stmt 0 view .LVU137
 395 0000 B3F5804F 		cmp	r3, #16384
 396 0004 05D0     		beq	.L29
 343:Drivers/STM32F4xx_HAL_Driver/Src/stm32f4xx_ll_fmc.c ****   {
 344:Drivers/STM32F4xx_HAL_Driver/Src/stm32f4xx_ll_fmc.c ****     /* Check the parameters */
 345:Drivers/STM32F4xx_HAL_Driver/Src/stm32f4xx_ll_fmc.c ****     assert_param(IS_FMC_NORSRAM_EXTENDED_DEVICE(Device));  
 346:Drivers/STM32F4xx_HAL_Driver/Src/stm32f4xx_ll_fmc.c ****     assert_param(IS_FMC_ADDRESS_SETUP_TIME(Timing->AddressSetupTime));
 347:Drivers/STM32F4xx_HAL_Driver/Src/stm32f4xx_ll_fmc.c ****     assert_param(IS_FMC_ADDRESS_HOLD_TIME(Timing->AddressHoldTime));
 348:Drivers/STM32F4xx_HAL_Driver/Src/stm32f4xx_ll_fmc.c ****     assert_param(IS_FMC_DATASETUP_TIME(Timing->DataSetupTime));
 349:Drivers/STM32F4xx_HAL_Driver/Src/stm32f4xx_ll_fmc.c ****     assert_param(IS_FMC_TURNAROUND_TIME(Timing->BusTurnAroundDuration));
 350:Drivers/STM32F4xx_HAL_Driver/Src/stm32f4xx_ll_fmc.c ****     assert_param(IS_FMC_ACCESS_MODE(Timing->AccessMode));
 351:Drivers/STM32F4xx_HAL_Driver/Src/stm32f4xx_ll_fmc.c ****     assert_param(IS_FMC_NORSRAM_BANK(Bank));  
 352:Drivers/STM32F4xx_HAL_Driver/Src/stm32f4xx_ll_fmc.c ****     
 353:Drivers/STM32F4xx_HAL_Driver/Src/stm32f4xx_ll_fmc.c ****     /* Get the BWTR register value */
 354:Drivers/STM32F4xx_HAL_Driver/Src/stm32f4xx_ll_fmc.c ****     tmpr = Device->BWTR[Bank];
 355:Drivers/STM32F4xx_HAL_Driver/Src/stm32f4xx_ll_fmc.c **** 
 356:Drivers/STM32F4xx_HAL_Driver/Src/stm32f4xx_ll_fmc.c ****     /* Clear ADDSET, ADDHLD, DATAST, BUSTURN and ACCMOD bits */
 357:Drivers/STM32F4xx_HAL_Driver/Src/stm32f4xx_ll_fmc.c ****     tmpr &= ((uint32_t)~(FMC_BWTR1_ADDSET  | FMC_BWTR1_ADDHLD | FMC_BWTR1_DATAST | \
 358:Drivers/STM32F4xx_HAL_Driver/Src/stm32f4xx_ll_fmc.c ****                          FMC_BWTR1_BUSTURN | FMC_BWTR1_ACCMOD));
 359:Drivers/STM32F4xx_HAL_Driver/Src/stm32f4xx_ll_fmc.c ****     
 360:Drivers/STM32F4xx_HAL_Driver/Src/stm32f4xx_ll_fmc.c ****     tmpr |= (uint32_t)(Timing->AddressSetupTime                  |\
 361:Drivers/STM32F4xx_HAL_Driver/Src/stm32f4xx_ll_fmc.c ****                       ((Timing->AddressHoldTime) << 4U)          |\
 362:Drivers/STM32F4xx_HAL_Driver/Src/stm32f4xx_ll_fmc.c ****                       ((Timing->DataSetupTime) << 8U)            |\
 363:Drivers/STM32F4xx_HAL_Driver/Src/stm32f4xx_ll_fmc.c ****                       ((Timing->BusTurnAroundDuration) << 16U)   |\
 364:Drivers/STM32F4xx_HAL_Driver/Src/stm32f4xx_ll_fmc.c ****                       (Timing->AccessMode));
ARM GAS  C:\Users\zoosman\AppData\Local\Temp\ccuisvXz.s 			page 15


 365:Drivers/STM32F4xx_HAL_Driver/Src/stm32f4xx_ll_fmc.c **** 
 366:Drivers/STM32F4xx_HAL_Driver/Src/stm32f4xx_ll_fmc.c ****     Device->BWTR[Bank] = tmpr;
 367:Drivers/STM32F4xx_HAL_Driver/Src/stm32f4xx_ll_fmc.c ****   }
 368:Drivers/STM32F4xx_HAL_Driver/Src/stm32f4xx_ll_fmc.c ****   else
 369:Drivers/STM32F4xx_HAL_Driver/Src/stm32f4xx_ll_fmc.c ****   {
 370:Drivers/STM32F4xx_HAL_Driver/Src/stm32f4xx_ll_fmc.c ****     Device->BWTR[Bank] = 0x0FFFFFFFU;
 397              		.loc 1 370 5 is_stmt 1 view .LVU138
 398              		.loc 1 370 24 is_stmt 0 view .LVU139
 399 0006 6FF07043 		mvn	r3, #-268435456
 400              	.LVL26:
 401              		.loc 1 370 24 view .LVU140
 402 000a 40F82230 		str	r3, [r0, r2, lsl #2]
 371:Drivers/STM32F4xx_HAL_Driver/Src/stm32f4xx_ll_fmc.c ****   }   
 372:Drivers/STM32F4xx_HAL_Driver/Src/stm32f4xx_ll_fmc.c ****   
 373:Drivers/STM32F4xx_HAL_Driver/Src/stm32f4xx_ll_fmc.c ****   return HAL_OK;  
 403              		.loc 1 373 3 is_stmt 1 view .LVU141
 374:Drivers/STM32F4xx_HAL_Driver/Src/stm32f4xx_ll_fmc.c **** }
 404              		.loc 1 374 1 is_stmt 0 view .LVU142
 405 000e 0020     		movs	r0, #0
 406              	.LVL27:
 407              		.loc 1 374 1 view .LVU143
 408 0010 7047     		bx	lr
 409              	.LVL28:
 410              	.L29:
 345:Drivers/STM32F4xx_HAL_Driver/Src/stm32f4xx_ll_fmc.c ****     assert_param(IS_FMC_ADDRESS_SETUP_TIME(Timing->AddressSetupTime));
 411              		.loc 1 345 5 is_stmt 1 view .LVU144
 346:Drivers/STM32F4xx_HAL_Driver/Src/stm32f4xx_ll_fmc.c ****     assert_param(IS_FMC_ADDRESS_HOLD_TIME(Timing->AddressHoldTime));
 412              		.loc 1 346 5 view .LVU145
 347:Drivers/STM32F4xx_HAL_Driver/Src/stm32f4xx_ll_fmc.c ****     assert_param(IS_FMC_DATASETUP_TIME(Timing->DataSetupTime));
 413              		.loc 1 347 5 view .LVU146
 348:Drivers/STM32F4xx_HAL_Driver/Src/stm32f4xx_ll_fmc.c ****     assert_param(IS_FMC_TURNAROUND_TIME(Timing->BusTurnAroundDuration));
 414              		.loc 1 348 5 view .LVU147
 349:Drivers/STM32F4xx_HAL_Driver/Src/stm32f4xx_ll_fmc.c ****     assert_param(IS_FMC_ACCESS_MODE(Timing->AccessMode));
 415              		.loc 1 349 5 view .LVU148
 350:Drivers/STM32F4xx_HAL_Driver/Src/stm32f4xx_ll_fmc.c ****     assert_param(IS_FMC_NORSRAM_BANK(Bank));  
 416              		.loc 1 350 5 view .LVU149
 351:Drivers/STM32F4xx_HAL_Driver/Src/stm32f4xx_ll_fmc.c ****     
 417              		.loc 1 351 5 view .LVU150
 354:Drivers/STM32F4xx_HAL_Driver/Src/stm32f4xx_ll_fmc.c **** 
 418              		.loc 1 354 5 view .LVU151
 335:Drivers/STM32F4xx_HAL_Driver/Src/stm32f4xx_ll_fmc.c ****   uint32_t tmpr = 0U;
 419              		.loc 1 335 1 is_stmt 0 view .LVU152
 420 0012 70B4     		push	{r4, r5, r6}
 421              	.LCFI9:
 422              		.cfi_def_cfa_offset 12
 423              		.cfi_offset 4, -12
 424              		.cfi_offset 5, -8
 425              		.cfi_offset 6, -4
 363:Drivers/STM32F4xx_HAL_Driver/Src/stm32f4xx_ll_fmc.c ****                       (Timing->AccessMode));
 426              		.loc 1 363 66 view .LVU153
 427 0014 0B68     		ldr	r3, [r1]
 428              	.LVL29:
 363:Drivers/STM32F4xx_HAL_Driver/Src/stm32f4xx_ll_fmc.c ****                       (Timing->AccessMode));
 429              		.loc 1 363 66 view .LVU154
 430 0016 8D69     		ldr	r5, [r1, #24]
 361:Drivers/STM32F4xx_HAL_Driver/Src/stm32f4xx_ll_fmc.c ****                       ((Timing->DataSetupTime) << 8U)            |\
 431              		.loc 1 361 50 view .LVU155
ARM GAS  C:\Users\zoosman\AppData\Local\Temp\ccuisvXz.s 			page 16


 432 0018 4C68     		ldr	r4, [r1, #4]
 363:Drivers/STM32F4xx_HAL_Driver/Src/stm32f4xx_ll_fmc.c ****                       (Timing->AccessMode));
 433              		.loc 1 363 66 view .LVU156
 434 001a 2B43     		orrs	r3, r3, r5
 363:Drivers/STM32F4xx_HAL_Driver/Src/stm32f4xx_ll_fmc.c ****                       (Timing->AccessMode));
 435              		.loc 1 363 56 view .LVU157
 436 001c D1E90265 		ldrd	r6, r5, [r1, #8]
 363:Drivers/STM32F4xx_HAL_Driver/Src/stm32f4xx_ll_fmc.c ****                       (Timing->AccessMode));
 437              		.loc 1 363 66 view .LVU158
 438 0020 43EA0413 		orr	r3, r3, r4, lsl #4
 357:Drivers/STM32F4xx_HAL_Driver/Src/stm32f4xx_ll_fmc.c ****                          FMC_BWTR1_BUSTURN | FMC_BWTR1_ACCMOD));
 439              		.loc 1 357 10 view .LVU159
 440 0024 0649     		ldr	r1, .L30
 441              	.LVL30:
 354:Drivers/STM32F4xx_HAL_Driver/Src/stm32f4xx_ll_fmc.c **** 
 442              		.loc 1 354 10 view .LVU160
 443 0026 50F82240 		ldr	r4, [r0, r2, lsl #2]
 444              	.LVL31:
 357:Drivers/STM32F4xx_HAL_Driver/Src/stm32f4xx_ll_fmc.c ****                          FMC_BWTR1_BUSTURN | FMC_BWTR1_ACCMOD));
 445              		.loc 1 357 5 is_stmt 1 view .LVU161
 363:Drivers/STM32F4xx_HAL_Driver/Src/stm32f4xx_ll_fmc.c ****                       (Timing->AccessMode));
 446              		.loc 1 363 66 is_stmt 0 view .LVU162
 447 002a 43EA0623 		orr	r3, r3, r6, lsl #8
 448 002e 43EA0543 		orr	r3, r3, r5, lsl #16
 357:Drivers/STM32F4xx_HAL_Driver/Src/stm32f4xx_ll_fmc.c ****                          FMC_BWTR1_BUSTURN | FMC_BWTR1_ACCMOD));
 449              		.loc 1 357 10 view .LVU163
 450 0032 2140     		ands	r1, r1, r4
 451              	.LVL32:
 360:Drivers/STM32F4xx_HAL_Driver/Src/stm32f4xx_ll_fmc.c ****                       ((Timing->AddressHoldTime) << 4U)          |\
 452              		.loc 1 360 5 is_stmt 1 view .LVU164
 360:Drivers/STM32F4xx_HAL_Driver/Src/stm32f4xx_ll_fmc.c ****                       ((Timing->AddressHoldTime) << 4U)          |\
 453              		.loc 1 360 10 is_stmt 0 view .LVU165
 454 0034 0B43     		orrs	r3, r3, r1
 455              	.LVL33:
 366:Drivers/STM32F4xx_HAL_Driver/Src/stm32f4xx_ll_fmc.c ****   }
 456              		.loc 1 366 5 is_stmt 1 view .LVU166
 366:Drivers/STM32F4xx_HAL_Driver/Src/stm32f4xx_ll_fmc.c ****   }
 457              		.loc 1 366 24 is_stmt 0 view .LVU167
 458 0036 40F82230 		str	r3, [r0, r2, lsl #2]
 373:Drivers/STM32F4xx_HAL_Driver/Src/stm32f4xx_ll_fmc.c **** }
 459              		.loc 1 373 3 is_stmt 1 view .LVU168
 460              		.loc 1 374 1 is_stmt 0 view .LVU169
 461 003a 70BC     		pop	{r4, r5, r6}
 462              	.LCFI10:
 463              		.cfi_restore 6
 464              		.cfi_restore 5
 465              		.cfi_restore 4
 466              		.cfi_def_cfa_offset 0
 467 003c 0020     		movs	r0, #0
 468              	.LVL34:
 469              		.loc 1 374 1 view .LVU170
 470 003e 7047     		bx	lr
 471              	.L31:
 472              		.align	2
 473              	.L30:
 474 0040 0000F0CF 		.word	-806354944
 475              		.cfi_endproc
ARM GAS  C:\Users\zoosman\AppData\Local\Temp\ccuisvXz.s 			page 17


 476              	.LFE133:
 478              		.section	.text.FMC_NORSRAM_WriteOperation_Enable,"ax",%progbits
 479              		.align	1
 480              		.p2align 2,,3
 481              		.global	FMC_NORSRAM_WriteOperation_Enable
 482              		.syntax unified
 483              		.thumb
 484              		.thumb_func
 485              		.fpu fpv4-sp-d16
 487              	FMC_NORSRAM_WriteOperation_Enable:
 488              	.LVL35:
 489              	.LFB134:
 375:Drivers/STM32F4xx_HAL_Driver/Src/stm32f4xx_ll_fmc.c **** /**
 376:Drivers/STM32F4xx_HAL_Driver/Src/stm32f4xx_ll_fmc.c ****   * @}
 377:Drivers/STM32F4xx_HAL_Driver/Src/stm32f4xx_ll_fmc.c ****   */
 378:Drivers/STM32F4xx_HAL_Driver/Src/stm32f4xx_ll_fmc.c ****   
 379:Drivers/STM32F4xx_HAL_Driver/Src/stm32f4xx_ll_fmc.c **** /** @addtogroup FMC_LL_NORSRAM_Private_Functions_Group2
 380:Drivers/STM32F4xx_HAL_Driver/Src/stm32f4xx_ll_fmc.c ****  *  @brief   management functions 
 381:Drivers/STM32F4xx_HAL_Driver/Src/stm32f4xx_ll_fmc.c ****  *
 382:Drivers/STM32F4xx_HAL_Driver/Src/stm32f4xx_ll_fmc.c **** @verbatim   
 383:Drivers/STM32F4xx_HAL_Driver/Src/stm32f4xx_ll_fmc.c ****   ==============================================================================
 384:Drivers/STM32F4xx_HAL_Driver/Src/stm32f4xx_ll_fmc.c ****                       ##### FMC_NORSRAM Control functions #####
 385:Drivers/STM32F4xx_HAL_Driver/Src/stm32f4xx_ll_fmc.c ****   ==============================================================================  
 386:Drivers/STM32F4xx_HAL_Driver/Src/stm32f4xx_ll_fmc.c ****   [..]
 387:Drivers/STM32F4xx_HAL_Driver/Src/stm32f4xx_ll_fmc.c ****     This subsection provides a set of functions allowing to control dynamically
 388:Drivers/STM32F4xx_HAL_Driver/Src/stm32f4xx_ll_fmc.c ****     the FMC NORSRAM interface.
 389:Drivers/STM32F4xx_HAL_Driver/Src/stm32f4xx_ll_fmc.c **** 
 390:Drivers/STM32F4xx_HAL_Driver/Src/stm32f4xx_ll_fmc.c **** @endverbatim
 391:Drivers/STM32F4xx_HAL_Driver/Src/stm32f4xx_ll_fmc.c ****   * @{
 392:Drivers/STM32F4xx_HAL_Driver/Src/stm32f4xx_ll_fmc.c ****   */
 393:Drivers/STM32F4xx_HAL_Driver/Src/stm32f4xx_ll_fmc.c **** /**
 394:Drivers/STM32F4xx_HAL_Driver/Src/stm32f4xx_ll_fmc.c ****   * @brief  Enables dynamically FMC_NORSRAM write operation.
 395:Drivers/STM32F4xx_HAL_Driver/Src/stm32f4xx_ll_fmc.c ****   * @param  Device Pointer to NORSRAM device instance
 396:Drivers/STM32F4xx_HAL_Driver/Src/stm32f4xx_ll_fmc.c ****   * @param  Bank NORSRAM bank number   
 397:Drivers/STM32F4xx_HAL_Driver/Src/stm32f4xx_ll_fmc.c ****   * @retval HAL status
 398:Drivers/STM32F4xx_HAL_Driver/Src/stm32f4xx_ll_fmc.c ****   */
 399:Drivers/STM32F4xx_HAL_Driver/Src/stm32f4xx_ll_fmc.c **** HAL_StatusTypeDef FMC_NORSRAM_WriteOperation_Enable(FMC_NORSRAM_TypeDef *Device, uint32_t Bank)
 400:Drivers/STM32F4xx_HAL_Driver/Src/stm32f4xx_ll_fmc.c **** {
 490              		.loc 1 400 1 is_stmt 1 view -0
 491              		.cfi_startproc
 492              		@ args = 0, pretend = 0, frame = 0
 493              		@ frame_needed = 0, uses_anonymous_args = 0
 494              		@ link register save eliminated.
 401:Drivers/STM32F4xx_HAL_Driver/Src/stm32f4xx_ll_fmc.c ****   /* Check the parameters */
 402:Drivers/STM32F4xx_HAL_Driver/Src/stm32f4xx_ll_fmc.c ****   assert_param(IS_FMC_NORSRAM_DEVICE(Device));
 495              		.loc 1 402 3 view .LVU172
 403:Drivers/STM32F4xx_HAL_Driver/Src/stm32f4xx_ll_fmc.c ****   assert_param(IS_FMC_NORSRAM_BANK(Bank));
 496              		.loc 1 403 3 view .LVU173
 404:Drivers/STM32F4xx_HAL_Driver/Src/stm32f4xx_ll_fmc.c ****   
 405:Drivers/STM32F4xx_HAL_Driver/Src/stm32f4xx_ll_fmc.c ****   /* Enable write operation */
 406:Drivers/STM32F4xx_HAL_Driver/Src/stm32f4xx_ll_fmc.c ****   Device->BTCR[Bank] |= FMC_WRITE_OPERATION_ENABLE; 
 497              		.loc 1 406 3 view .LVU174
 400:Drivers/STM32F4xx_HAL_Driver/Src/stm32f4xx_ll_fmc.c ****   /* Check the parameters */
 498              		.loc 1 400 1 is_stmt 0 view .LVU175
 499 0000 0346     		mov	r3, r0
 407:Drivers/STM32F4xx_HAL_Driver/Src/stm32f4xx_ll_fmc.c **** 
 408:Drivers/STM32F4xx_HAL_Driver/Src/stm32f4xx_ll_fmc.c ****   return HAL_OK;  
ARM GAS  C:\Users\zoosman\AppData\Local\Temp\ccuisvXz.s 			page 18


 409:Drivers/STM32F4xx_HAL_Driver/Src/stm32f4xx_ll_fmc.c **** }
 500              		.loc 1 409 1 view .LVU176
 501 0002 0020     		movs	r0, #0
 502              	.LVL36:
 406:Drivers/STM32F4xx_HAL_Driver/Src/stm32f4xx_ll_fmc.c **** 
 503              		.loc 1 406 22 view .LVU177
 504 0004 53F82120 		ldr	r2, [r3, r1, lsl #2]
 505 0008 42F48052 		orr	r2, r2, #4096
 506 000c 43F82120 		str	r2, [r3, r1, lsl #2]
 408:Drivers/STM32F4xx_HAL_Driver/Src/stm32f4xx_ll_fmc.c **** }
 507              		.loc 1 408 3 is_stmt 1 view .LVU178
 508              		.loc 1 409 1 is_stmt 0 view .LVU179
 509 0010 7047     		bx	lr
 510              		.cfi_endproc
 511              	.LFE134:
 513 0012 00BF     		.section	.text.FMC_NORSRAM_WriteOperation_Disable,"ax",%progbits
 514              		.align	1
 515              		.p2align 2,,3
 516              		.global	FMC_NORSRAM_WriteOperation_Disable
 517              		.syntax unified
 518              		.thumb
 519              		.thumb_func
 520              		.fpu fpv4-sp-d16
 522              	FMC_NORSRAM_WriteOperation_Disable:
 523              	.LVL37:
 524              	.LFB135:
 410:Drivers/STM32F4xx_HAL_Driver/Src/stm32f4xx_ll_fmc.c **** 
 411:Drivers/STM32F4xx_HAL_Driver/Src/stm32f4xx_ll_fmc.c **** /**
 412:Drivers/STM32F4xx_HAL_Driver/Src/stm32f4xx_ll_fmc.c ****   * @brief  Disables dynamically FMC_NORSRAM write operation.
 413:Drivers/STM32F4xx_HAL_Driver/Src/stm32f4xx_ll_fmc.c ****   * @param  Device Pointer to NORSRAM device instance
 414:Drivers/STM32F4xx_HAL_Driver/Src/stm32f4xx_ll_fmc.c ****   * @param  Bank NORSRAM bank number   
 415:Drivers/STM32F4xx_HAL_Driver/Src/stm32f4xx_ll_fmc.c ****   * @retval HAL status
 416:Drivers/STM32F4xx_HAL_Driver/Src/stm32f4xx_ll_fmc.c ****   */
 417:Drivers/STM32F4xx_HAL_Driver/Src/stm32f4xx_ll_fmc.c **** HAL_StatusTypeDef FMC_NORSRAM_WriteOperation_Disable(FMC_NORSRAM_TypeDef *Device, uint32_t Bank)
 418:Drivers/STM32F4xx_HAL_Driver/Src/stm32f4xx_ll_fmc.c **** { 
 525              		.loc 1 418 1 is_stmt 1 view -0
 526              		.cfi_startproc
 527              		@ args = 0, pretend = 0, frame = 0
 528              		@ frame_needed = 0, uses_anonymous_args = 0
 529              		@ link register save eliminated.
 419:Drivers/STM32F4xx_HAL_Driver/Src/stm32f4xx_ll_fmc.c ****   /* Check the parameters */
 420:Drivers/STM32F4xx_HAL_Driver/Src/stm32f4xx_ll_fmc.c ****   assert_param(IS_FMC_NORSRAM_DEVICE(Device));
 530              		.loc 1 420 3 view .LVU181
 421:Drivers/STM32F4xx_HAL_Driver/Src/stm32f4xx_ll_fmc.c ****   assert_param(IS_FMC_NORSRAM_BANK(Bank));
 531              		.loc 1 421 3 view .LVU182
 422:Drivers/STM32F4xx_HAL_Driver/Src/stm32f4xx_ll_fmc.c ****     
 423:Drivers/STM32F4xx_HAL_Driver/Src/stm32f4xx_ll_fmc.c ****   /* Disable write operation */
 424:Drivers/STM32F4xx_HAL_Driver/Src/stm32f4xx_ll_fmc.c ****   Device->BTCR[Bank] &= ~FMC_WRITE_OPERATION_ENABLE; 
 532              		.loc 1 424 3 view .LVU183
 418:Drivers/STM32F4xx_HAL_Driver/Src/stm32f4xx_ll_fmc.c ****   /* Check the parameters */
 533              		.loc 1 418 1 is_stmt 0 view .LVU184
 534 0000 0346     		mov	r3, r0
 425:Drivers/STM32F4xx_HAL_Driver/Src/stm32f4xx_ll_fmc.c **** 
 426:Drivers/STM32F4xx_HAL_Driver/Src/stm32f4xx_ll_fmc.c ****   return HAL_OK;  
 427:Drivers/STM32F4xx_HAL_Driver/Src/stm32f4xx_ll_fmc.c **** }
 535              		.loc 1 427 1 view .LVU185
 536 0002 0020     		movs	r0, #0
ARM GAS  C:\Users\zoosman\AppData\Local\Temp\ccuisvXz.s 			page 19


 537              	.LVL38:
 424:Drivers/STM32F4xx_HAL_Driver/Src/stm32f4xx_ll_fmc.c **** 
 538              		.loc 1 424 22 view .LVU186
 539 0004 53F82120 		ldr	r2, [r3, r1, lsl #2]
 540 0008 22F48052 		bic	r2, r2, #4096
 541 000c 43F82120 		str	r2, [r3, r1, lsl #2]
 426:Drivers/STM32F4xx_HAL_Driver/Src/stm32f4xx_ll_fmc.c **** }
 542              		.loc 1 426 3 is_stmt 1 view .LVU187
 543              		.loc 1 427 1 is_stmt 0 view .LVU188
 544 0010 7047     		bx	lr
 545              		.cfi_endproc
 546              	.LFE135:
 548 0012 00BF     		.section	.text.FMC_NAND_Init,"ax",%progbits
 549              		.align	1
 550              		.p2align 2,,3
 551              		.global	FMC_NAND_Init
 552              		.syntax unified
 553              		.thumb
 554              		.thumb_func
 555              		.fpu fpv4-sp-d16
 557              	FMC_NAND_Init:
 558              	.LVL39:
 559              	.LFB136:
 428:Drivers/STM32F4xx_HAL_Driver/Src/stm32f4xx_ll_fmc.c **** 
 429:Drivers/STM32F4xx_HAL_Driver/Src/stm32f4xx_ll_fmc.c **** /**
 430:Drivers/STM32F4xx_HAL_Driver/Src/stm32f4xx_ll_fmc.c ****   * @}
 431:Drivers/STM32F4xx_HAL_Driver/Src/stm32f4xx_ll_fmc.c ****   */
 432:Drivers/STM32F4xx_HAL_Driver/Src/stm32f4xx_ll_fmc.c **** 
 433:Drivers/STM32F4xx_HAL_Driver/Src/stm32f4xx_ll_fmc.c **** /**
 434:Drivers/STM32F4xx_HAL_Driver/Src/stm32f4xx_ll_fmc.c ****   * @}
 435:Drivers/STM32F4xx_HAL_Driver/Src/stm32f4xx_ll_fmc.c ****   */
 436:Drivers/STM32F4xx_HAL_Driver/Src/stm32f4xx_ll_fmc.c **** 
 437:Drivers/STM32F4xx_HAL_Driver/Src/stm32f4xx_ll_fmc.c **** /** @addtogroup FMC_LL_NAND
 438:Drivers/STM32F4xx_HAL_Driver/Src/stm32f4xx_ll_fmc.c ****   * @brief    NAND Controller functions 
 439:Drivers/STM32F4xx_HAL_Driver/Src/stm32f4xx_ll_fmc.c ****   *
 440:Drivers/STM32F4xx_HAL_Driver/Src/stm32f4xx_ll_fmc.c ****   @verbatim 
 441:Drivers/STM32F4xx_HAL_Driver/Src/stm32f4xx_ll_fmc.c ****   ==============================================================================
 442:Drivers/STM32F4xx_HAL_Driver/Src/stm32f4xx_ll_fmc.c ****                     ##### How to use NAND device driver #####
 443:Drivers/STM32F4xx_HAL_Driver/Src/stm32f4xx_ll_fmc.c ****   ==============================================================================
 444:Drivers/STM32F4xx_HAL_Driver/Src/stm32f4xx_ll_fmc.c ****   [..]
 445:Drivers/STM32F4xx_HAL_Driver/Src/stm32f4xx_ll_fmc.c ****     This driver contains a set of APIs to interface with the FMC NAND banks in order
 446:Drivers/STM32F4xx_HAL_Driver/Src/stm32f4xx_ll_fmc.c ****     to run the NAND external devices.
 447:Drivers/STM32F4xx_HAL_Driver/Src/stm32f4xx_ll_fmc.c ****   
 448:Drivers/STM32F4xx_HAL_Driver/Src/stm32f4xx_ll_fmc.c ****     (+) FMC NAND bank reset using the function FMC_NAND_DeInit() 
 449:Drivers/STM32F4xx_HAL_Driver/Src/stm32f4xx_ll_fmc.c ****     (+) FMC NAND bank control configuration using the function FMC_NAND_Init()
 450:Drivers/STM32F4xx_HAL_Driver/Src/stm32f4xx_ll_fmc.c ****     (+) FMC NAND bank common space timing configuration using the function 
 451:Drivers/STM32F4xx_HAL_Driver/Src/stm32f4xx_ll_fmc.c ****         FMC_NAND_CommonSpace_Timing_Init()
 452:Drivers/STM32F4xx_HAL_Driver/Src/stm32f4xx_ll_fmc.c ****     (+) FMC NAND bank attribute space timing configuration using the function 
 453:Drivers/STM32F4xx_HAL_Driver/Src/stm32f4xx_ll_fmc.c ****         FMC_NAND_AttributeSpace_Timing_Init()
 454:Drivers/STM32F4xx_HAL_Driver/Src/stm32f4xx_ll_fmc.c ****     (+) FMC NAND bank enable/disable ECC correction feature using the functions
 455:Drivers/STM32F4xx_HAL_Driver/Src/stm32f4xx_ll_fmc.c ****         FMC_NAND_ECC_Enable()/FMC_NAND_ECC_Disable()
 456:Drivers/STM32F4xx_HAL_Driver/Src/stm32f4xx_ll_fmc.c ****     (+) FMC NAND bank get ECC correction code using the function FMC_NAND_GetECC()    
 457:Drivers/STM32F4xx_HAL_Driver/Src/stm32f4xx_ll_fmc.c **** 
 458:Drivers/STM32F4xx_HAL_Driver/Src/stm32f4xx_ll_fmc.c **** @endverbatim
 459:Drivers/STM32F4xx_HAL_Driver/Src/stm32f4xx_ll_fmc.c ****   * @{
 460:Drivers/STM32F4xx_HAL_Driver/Src/stm32f4xx_ll_fmc.c ****   */
 461:Drivers/STM32F4xx_HAL_Driver/Src/stm32f4xx_ll_fmc.c ****  
ARM GAS  C:\Users\zoosman\AppData\Local\Temp\ccuisvXz.s 			page 20


 462:Drivers/STM32F4xx_HAL_Driver/Src/stm32f4xx_ll_fmc.c **** #if defined(STM32F446xx) || defined(STM32F469xx) || defined(STM32F479xx)
 463:Drivers/STM32F4xx_HAL_Driver/Src/stm32f4xx_ll_fmc.c **** /** @defgroup HAL_FMC_NAND_Group1 Initialization/de-initialization functions 
 464:Drivers/STM32F4xx_HAL_Driver/Src/stm32f4xx_ll_fmc.c ****  *  @brief    Initialization and Configuration functions 
 465:Drivers/STM32F4xx_HAL_Driver/Src/stm32f4xx_ll_fmc.c ****  *
 466:Drivers/STM32F4xx_HAL_Driver/Src/stm32f4xx_ll_fmc.c **** @verbatim    
 467:Drivers/STM32F4xx_HAL_Driver/Src/stm32f4xx_ll_fmc.c ****   ==============================================================================
 468:Drivers/STM32F4xx_HAL_Driver/Src/stm32f4xx_ll_fmc.c ****               ##### Initialization and de_initialization functions #####
 469:Drivers/STM32F4xx_HAL_Driver/Src/stm32f4xx_ll_fmc.c ****   ==============================================================================
 470:Drivers/STM32F4xx_HAL_Driver/Src/stm32f4xx_ll_fmc.c ****   [..]  
 471:Drivers/STM32F4xx_HAL_Driver/Src/stm32f4xx_ll_fmc.c ****     This section provides functions allowing to:
 472:Drivers/STM32F4xx_HAL_Driver/Src/stm32f4xx_ll_fmc.c ****     (+) Initialize and configure the FMC NAND interface
 473:Drivers/STM32F4xx_HAL_Driver/Src/stm32f4xx_ll_fmc.c ****     (+) De-initialize the FMC NAND interface 
 474:Drivers/STM32F4xx_HAL_Driver/Src/stm32f4xx_ll_fmc.c ****     (+) Configure the FMC clock and associated GPIOs
 475:Drivers/STM32F4xx_HAL_Driver/Src/stm32f4xx_ll_fmc.c ****         
 476:Drivers/STM32F4xx_HAL_Driver/Src/stm32f4xx_ll_fmc.c **** @endverbatim
 477:Drivers/STM32F4xx_HAL_Driver/Src/stm32f4xx_ll_fmc.c ****   * @{
 478:Drivers/STM32F4xx_HAL_Driver/Src/stm32f4xx_ll_fmc.c ****   */
 479:Drivers/STM32F4xx_HAL_Driver/Src/stm32f4xx_ll_fmc.c **** 
 480:Drivers/STM32F4xx_HAL_Driver/Src/stm32f4xx_ll_fmc.c **** /**
 481:Drivers/STM32F4xx_HAL_Driver/Src/stm32f4xx_ll_fmc.c ****   * @brief  Initializes the FMC_NAND device according to the specified
 482:Drivers/STM32F4xx_HAL_Driver/Src/stm32f4xx_ll_fmc.c ****   *         control parameters in the FMC_NAND_HandleTypeDef
 483:Drivers/STM32F4xx_HAL_Driver/Src/stm32f4xx_ll_fmc.c ****   * @param  Device Pointer to NAND device instance
 484:Drivers/STM32F4xx_HAL_Driver/Src/stm32f4xx_ll_fmc.c ****   * @param  Init Pointer to NAND Initialization structure
 485:Drivers/STM32F4xx_HAL_Driver/Src/stm32f4xx_ll_fmc.c ****   * @retval HAL status
 486:Drivers/STM32F4xx_HAL_Driver/Src/stm32f4xx_ll_fmc.c ****   */
 487:Drivers/STM32F4xx_HAL_Driver/Src/stm32f4xx_ll_fmc.c **** HAL_StatusTypeDef FMC_NAND_Init(FMC_NAND_TypeDef *Device, FMC_NAND_InitTypeDef *Init)
 488:Drivers/STM32F4xx_HAL_Driver/Src/stm32f4xx_ll_fmc.c **** {
 489:Drivers/STM32F4xx_HAL_Driver/Src/stm32f4xx_ll_fmc.c ****   uint32_t tmpr  = 0U; 
 490:Drivers/STM32F4xx_HAL_Driver/Src/stm32f4xx_ll_fmc.c ****     
 491:Drivers/STM32F4xx_HAL_Driver/Src/stm32f4xx_ll_fmc.c ****   /* Check the parameters */
 492:Drivers/STM32F4xx_HAL_Driver/Src/stm32f4xx_ll_fmc.c ****   assert_param(IS_FMC_NAND_DEVICE(Device));
 493:Drivers/STM32F4xx_HAL_Driver/Src/stm32f4xx_ll_fmc.c ****   assert_param(IS_FMC_NAND_BANK(Init->NandBank));
 494:Drivers/STM32F4xx_HAL_Driver/Src/stm32f4xx_ll_fmc.c ****   assert_param(IS_FMC_WAIT_FEATURE(Init->Waitfeature));
 495:Drivers/STM32F4xx_HAL_Driver/Src/stm32f4xx_ll_fmc.c ****   assert_param(IS_FMC_NAND_MEMORY_WIDTH(Init->MemoryDataWidth));
 496:Drivers/STM32F4xx_HAL_Driver/Src/stm32f4xx_ll_fmc.c ****   assert_param(IS_FMC_ECC_STATE(Init->EccComputation));
 497:Drivers/STM32F4xx_HAL_Driver/Src/stm32f4xx_ll_fmc.c ****   assert_param(IS_FMC_ECCPAGE_SIZE(Init->ECCPageSize));
 498:Drivers/STM32F4xx_HAL_Driver/Src/stm32f4xx_ll_fmc.c ****   assert_param(IS_FMC_TCLR_TIME(Init->TCLRSetupTime));
 499:Drivers/STM32F4xx_HAL_Driver/Src/stm32f4xx_ll_fmc.c ****   assert_param(IS_FMC_TAR_TIME(Init->TARSetupTime));   
 500:Drivers/STM32F4xx_HAL_Driver/Src/stm32f4xx_ll_fmc.c ****   
 501:Drivers/STM32F4xx_HAL_Driver/Src/stm32f4xx_ll_fmc.c ****   /* Get the NAND bank register value */
 502:Drivers/STM32F4xx_HAL_Driver/Src/stm32f4xx_ll_fmc.c ****   tmpr = Device->PCR;
 503:Drivers/STM32F4xx_HAL_Driver/Src/stm32f4xx_ll_fmc.c ****   
 504:Drivers/STM32F4xx_HAL_Driver/Src/stm32f4xx_ll_fmc.c ****   /* Clear PWAITEN, PBKEN, PTYP, PWID, ECCEN, TCLR, TAR and ECCPS bits */
 505:Drivers/STM32F4xx_HAL_Driver/Src/stm32f4xx_ll_fmc.c ****   tmpr &= ((uint32_t)~(FMC_PCR_PWAITEN  | FMC_PCR_PBKEN | FMC_PCR_PTYP | \
 506:Drivers/STM32F4xx_HAL_Driver/Src/stm32f4xx_ll_fmc.c ****                        FMC_PCR_PWID | FMC_PCR_ECCEN | FMC_PCR_TCLR | \
 507:Drivers/STM32F4xx_HAL_Driver/Src/stm32f4xx_ll_fmc.c ****                        FMC_PCR_TAR | FMC_PCR_ECCPS));  
 508:Drivers/STM32F4xx_HAL_Driver/Src/stm32f4xx_ll_fmc.c ****   
 509:Drivers/STM32F4xx_HAL_Driver/Src/stm32f4xx_ll_fmc.c ****   /* Set NAND device control parameters */
 510:Drivers/STM32F4xx_HAL_Driver/Src/stm32f4xx_ll_fmc.c ****   tmpr |= (uint32_t)(Init->Waitfeature                |\
 511:Drivers/STM32F4xx_HAL_Driver/Src/stm32f4xx_ll_fmc.c ****                      FMC_PCR_MEMORY_TYPE_NAND         |\
 512:Drivers/STM32F4xx_HAL_Driver/Src/stm32f4xx_ll_fmc.c ****                      Init->MemoryDataWidth            |\
 513:Drivers/STM32F4xx_HAL_Driver/Src/stm32f4xx_ll_fmc.c ****                      Init->EccComputation             |\
 514:Drivers/STM32F4xx_HAL_Driver/Src/stm32f4xx_ll_fmc.c ****                      Init->ECCPageSize                |\
 515:Drivers/STM32F4xx_HAL_Driver/Src/stm32f4xx_ll_fmc.c ****                      ((Init->TCLRSetupTime) << 9U)    |\
 516:Drivers/STM32F4xx_HAL_Driver/Src/stm32f4xx_ll_fmc.c ****                      ((Init->TARSetupTime) << 13U));
 517:Drivers/STM32F4xx_HAL_Driver/Src/stm32f4xx_ll_fmc.c **** 
 518:Drivers/STM32F4xx_HAL_Driver/Src/stm32f4xx_ll_fmc.c ****   /* NAND bank registers configuration */
ARM GAS  C:\Users\zoosman\AppData\Local\Temp\ccuisvXz.s 			page 21


 519:Drivers/STM32F4xx_HAL_Driver/Src/stm32f4xx_ll_fmc.c ****   Device->PCR  = tmpr;
 520:Drivers/STM32F4xx_HAL_Driver/Src/stm32f4xx_ll_fmc.c **** 
 521:Drivers/STM32F4xx_HAL_Driver/Src/stm32f4xx_ll_fmc.c ****   return HAL_OK;
 522:Drivers/STM32F4xx_HAL_Driver/Src/stm32f4xx_ll_fmc.c **** }
 523:Drivers/STM32F4xx_HAL_Driver/Src/stm32f4xx_ll_fmc.c **** 
 524:Drivers/STM32F4xx_HAL_Driver/Src/stm32f4xx_ll_fmc.c **** /**
 525:Drivers/STM32F4xx_HAL_Driver/Src/stm32f4xx_ll_fmc.c ****   * @brief  Initializes the FMC_NAND Common space Timing according to the specified
 526:Drivers/STM32F4xx_HAL_Driver/Src/stm32f4xx_ll_fmc.c ****   *         parameters in the FMC_NAND_PCC_TimingTypeDef
 527:Drivers/STM32F4xx_HAL_Driver/Src/stm32f4xx_ll_fmc.c ****   * @param  Device Pointer to NAND device instance
 528:Drivers/STM32F4xx_HAL_Driver/Src/stm32f4xx_ll_fmc.c ****   * @param  Timing Pointer to NAND timing structure
 529:Drivers/STM32F4xx_HAL_Driver/Src/stm32f4xx_ll_fmc.c ****   * @param  Bank NAND bank number   
 530:Drivers/STM32F4xx_HAL_Driver/Src/stm32f4xx_ll_fmc.c ****   * @retval HAL status
 531:Drivers/STM32F4xx_HAL_Driver/Src/stm32f4xx_ll_fmc.c ****   */
 532:Drivers/STM32F4xx_HAL_Driver/Src/stm32f4xx_ll_fmc.c **** HAL_StatusTypeDef FMC_NAND_CommonSpace_Timing_Init(FMC_NAND_TypeDef *Device, FMC_NAND_PCC_TimingTyp
 533:Drivers/STM32F4xx_HAL_Driver/Src/stm32f4xx_ll_fmc.c **** {
 534:Drivers/STM32F4xx_HAL_Driver/Src/stm32f4xx_ll_fmc.c ****   uint32_t tmpr = 0U;  
 535:Drivers/STM32F4xx_HAL_Driver/Src/stm32f4xx_ll_fmc.c ****   
 536:Drivers/STM32F4xx_HAL_Driver/Src/stm32f4xx_ll_fmc.c ****   /* Check the parameters */
 537:Drivers/STM32F4xx_HAL_Driver/Src/stm32f4xx_ll_fmc.c ****   assert_param(IS_FMC_NAND_DEVICE(Device));
 538:Drivers/STM32F4xx_HAL_Driver/Src/stm32f4xx_ll_fmc.c ****   assert_param(IS_FMC_SETUP_TIME(Timing->SetupTime));
 539:Drivers/STM32F4xx_HAL_Driver/Src/stm32f4xx_ll_fmc.c ****   assert_param(IS_FMC_WAIT_TIME(Timing->WaitSetupTime));
 540:Drivers/STM32F4xx_HAL_Driver/Src/stm32f4xx_ll_fmc.c ****   assert_param(IS_FMC_HOLD_TIME(Timing->HoldSetupTime));
 541:Drivers/STM32F4xx_HAL_Driver/Src/stm32f4xx_ll_fmc.c ****   assert_param(IS_FMC_HIZ_TIME(Timing->HiZSetupTime));
 542:Drivers/STM32F4xx_HAL_Driver/Src/stm32f4xx_ll_fmc.c ****   assert_param(IS_FMC_NAND_BANK(Bank));
 543:Drivers/STM32F4xx_HAL_Driver/Src/stm32f4xx_ll_fmc.c ****   
 544:Drivers/STM32F4xx_HAL_Driver/Src/stm32f4xx_ll_fmc.c ****   /* Get the NAND bank 2 register value */
 545:Drivers/STM32F4xx_HAL_Driver/Src/stm32f4xx_ll_fmc.c ****   tmpr = Device->PMEM;
 546:Drivers/STM32F4xx_HAL_Driver/Src/stm32f4xx_ll_fmc.c **** 
 547:Drivers/STM32F4xx_HAL_Driver/Src/stm32f4xx_ll_fmc.c ****   
 548:Drivers/STM32F4xx_HAL_Driver/Src/stm32f4xx_ll_fmc.c ****   /* Clear MEMSETx, MEMWAITx, MEMHOLDx and MEMHIZx bits */
 549:Drivers/STM32F4xx_HAL_Driver/Src/stm32f4xx_ll_fmc.c ****   tmpr &= ((uint32_t)~(FMC_PMEM_MEMSET2  | FMC_PMEM_MEMWAIT2 | FMC_PMEM_MEMHOLD2 | \
 550:Drivers/STM32F4xx_HAL_Driver/Src/stm32f4xx_ll_fmc.c ****                        FMC_PMEM_MEMHIZ2)); 
 551:Drivers/STM32F4xx_HAL_Driver/Src/stm32f4xx_ll_fmc.c ****   
 552:Drivers/STM32F4xx_HAL_Driver/Src/stm32f4xx_ll_fmc.c ****   /* Set FMC_NAND device timing parameters */
 553:Drivers/STM32F4xx_HAL_Driver/Src/stm32f4xx_ll_fmc.c ****   tmpr |= (uint32_t)(Timing->SetupTime                     |\
 554:Drivers/STM32F4xx_HAL_Driver/Src/stm32f4xx_ll_fmc.c ****                        ((Timing->WaitSetupTime) << 8U)     |\
 555:Drivers/STM32F4xx_HAL_Driver/Src/stm32f4xx_ll_fmc.c ****                        ((Timing->HoldSetupTime) << 16U)    |\
 556:Drivers/STM32F4xx_HAL_Driver/Src/stm32f4xx_ll_fmc.c ****                        ((Timing->HiZSetupTime) << 24U)
 557:Drivers/STM32F4xx_HAL_Driver/Src/stm32f4xx_ll_fmc.c ****                        );
 558:Drivers/STM32F4xx_HAL_Driver/Src/stm32f4xx_ll_fmc.c ****                        
 559:Drivers/STM32F4xx_HAL_Driver/Src/stm32f4xx_ll_fmc.c ****   /* NAND bank  registers configuration */
 560:Drivers/STM32F4xx_HAL_Driver/Src/stm32f4xx_ll_fmc.c ****   Device->PMEM = tmpr;
 561:Drivers/STM32F4xx_HAL_Driver/Src/stm32f4xx_ll_fmc.c **** 
 562:Drivers/STM32F4xx_HAL_Driver/Src/stm32f4xx_ll_fmc.c ****   return HAL_OK;  
 563:Drivers/STM32F4xx_HAL_Driver/Src/stm32f4xx_ll_fmc.c **** }
 564:Drivers/STM32F4xx_HAL_Driver/Src/stm32f4xx_ll_fmc.c **** 
 565:Drivers/STM32F4xx_HAL_Driver/Src/stm32f4xx_ll_fmc.c **** /**
 566:Drivers/STM32F4xx_HAL_Driver/Src/stm32f4xx_ll_fmc.c ****   * @brief  Initializes the FMC_NAND Attribute space Timing according to the specified
 567:Drivers/STM32F4xx_HAL_Driver/Src/stm32f4xx_ll_fmc.c ****   *         parameters in the FMC_NAND_PCC_TimingTypeDef
 568:Drivers/STM32F4xx_HAL_Driver/Src/stm32f4xx_ll_fmc.c ****   * @param  Device Pointer to NAND device instance
 569:Drivers/STM32F4xx_HAL_Driver/Src/stm32f4xx_ll_fmc.c ****   * @param  Timing Pointer to NAND timing structure
 570:Drivers/STM32F4xx_HAL_Driver/Src/stm32f4xx_ll_fmc.c ****   * @param  Bank NAND bank number 
 571:Drivers/STM32F4xx_HAL_Driver/Src/stm32f4xx_ll_fmc.c ****   * @retval HAL status
 572:Drivers/STM32F4xx_HAL_Driver/Src/stm32f4xx_ll_fmc.c ****   */
 573:Drivers/STM32F4xx_HAL_Driver/Src/stm32f4xx_ll_fmc.c **** HAL_StatusTypeDef FMC_NAND_AttributeSpace_Timing_Init(FMC_NAND_TypeDef *Device, FMC_NAND_PCC_Timing
 574:Drivers/STM32F4xx_HAL_Driver/Src/stm32f4xx_ll_fmc.c **** {
 575:Drivers/STM32F4xx_HAL_Driver/Src/stm32f4xx_ll_fmc.c ****   uint32_t tmpr = 0U;  
ARM GAS  C:\Users\zoosman\AppData\Local\Temp\ccuisvXz.s 			page 22


 576:Drivers/STM32F4xx_HAL_Driver/Src/stm32f4xx_ll_fmc.c ****   
 577:Drivers/STM32F4xx_HAL_Driver/Src/stm32f4xx_ll_fmc.c ****   /* Check the parameters */ 
 578:Drivers/STM32F4xx_HAL_Driver/Src/stm32f4xx_ll_fmc.c ****   assert_param(IS_FMC_NAND_DEVICE(Device)); 
 579:Drivers/STM32F4xx_HAL_Driver/Src/stm32f4xx_ll_fmc.c ****   assert_param(IS_FMC_SETUP_TIME(Timing->SetupTime));
 580:Drivers/STM32F4xx_HAL_Driver/Src/stm32f4xx_ll_fmc.c ****   assert_param(IS_FMC_WAIT_TIME(Timing->WaitSetupTime));
 581:Drivers/STM32F4xx_HAL_Driver/Src/stm32f4xx_ll_fmc.c ****   assert_param(IS_FMC_HOLD_TIME(Timing->HoldSetupTime));
 582:Drivers/STM32F4xx_HAL_Driver/Src/stm32f4xx_ll_fmc.c ****   assert_param(IS_FMC_HIZ_TIME(Timing->HiZSetupTime));
 583:Drivers/STM32F4xx_HAL_Driver/Src/stm32f4xx_ll_fmc.c ****   assert_param(IS_FMC_NAND_BANK(Bank));
 584:Drivers/STM32F4xx_HAL_Driver/Src/stm32f4xx_ll_fmc.c **** 
 585:Drivers/STM32F4xx_HAL_Driver/Src/stm32f4xx_ll_fmc.c ****   /* Get the NAND bank  register value */
 586:Drivers/STM32F4xx_HAL_Driver/Src/stm32f4xx_ll_fmc.c ****   tmpr = Device->PATT;
 587:Drivers/STM32F4xx_HAL_Driver/Src/stm32f4xx_ll_fmc.c **** 
 588:Drivers/STM32F4xx_HAL_Driver/Src/stm32f4xx_ll_fmc.c ****   /* Clear ATTSETx, ATTWAITx, ATTHOLDx and ATTHIZx bits */
 589:Drivers/STM32F4xx_HAL_Driver/Src/stm32f4xx_ll_fmc.c ****   tmpr &= ((uint32_t)~(FMC_PATT_ATTSET2  | FMC_PATT_ATTWAIT2 | FMC_PATT_ATTHOLD2 | \
 590:Drivers/STM32F4xx_HAL_Driver/Src/stm32f4xx_ll_fmc.c ****                        FMC_PATT_ATTHIZ2));
 591:Drivers/STM32F4xx_HAL_Driver/Src/stm32f4xx_ll_fmc.c ****   
 592:Drivers/STM32F4xx_HAL_Driver/Src/stm32f4xx_ll_fmc.c ****   /* Set FMC_NAND device timing parameters */
 593:Drivers/STM32F4xx_HAL_Driver/Src/stm32f4xx_ll_fmc.c ****   tmpr |= (uint32_t)(Timing->SetupTime                 |\
 594:Drivers/STM32F4xx_HAL_Driver/Src/stm32f4xx_ll_fmc.c ****                    ((Timing->WaitSetupTime) << 8U)     |\
 595:Drivers/STM32F4xx_HAL_Driver/Src/stm32f4xx_ll_fmc.c ****                    ((Timing->HoldSetupTime) << 16U)    |\
 596:Drivers/STM32F4xx_HAL_Driver/Src/stm32f4xx_ll_fmc.c ****                    ((Timing->HiZSetupTime) << 24U));
 597:Drivers/STM32F4xx_HAL_Driver/Src/stm32f4xx_ll_fmc.c **** 
 598:Drivers/STM32F4xx_HAL_Driver/Src/stm32f4xx_ll_fmc.c ****   /* NAND bank registers configuration */
 599:Drivers/STM32F4xx_HAL_Driver/Src/stm32f4xx_ll_fmc.c ****   Device->PATT = tmpr; 
 600:Drivers/STM32F4xx_HAL_Driver/Src/stm32f4xx_ll_fmc.c ****  
 601:Drivers/STM32F4xx_HAL_Driver/Src/stm32f4xx_ll_fmc.c ****   return HAL_OK;
 602:Drivers/STM32F4xx_HAL_Driver/Src/stm32f4xx_ll_fmc.c **** }
 603:Drivers/STM32F4xx_HAL_Driver/Src/stm32f4xx_ll_fmc.c **** 
 604:Drivers/STM32F4xx_HAL_Driver/Src/stm32f4xx_ll_fmc.c **** 
 605:Drivers/STM32F4xx_HAL_Driver/Src/stm32f4xx_ll_fmc.c **** /**
 606:Drivers/STM32F4xx_HAL_Driver/Src/stm32f4xx_ll_fmc.c ****   * @brief  DeInitializes the FMC_NAND device 
 607:Drivers/STM32F4xx_HAL_Driver/Src/stm32f4xx_ll_fmc.c ****   * @param  Device Pointer to NAND device instance
 608:Drivers/STM32F4xx_HAL_Driver/Src/stm32f4xx_ll_fmc.c ****   * @param  Bank NAND bank number
 609:Drivers/STM32F4xx_HAL_Driver/Src/stm32f4xx_ll_fmc.c ****   * @retval HAL status
 610:Drivers/STM32F4xx_HAL_Driver/Src/stm32f4xx_ll_fmc.c ****   */
 611:Drivers/STM32F4xx_HAL_Driver/Src/stm32f4xx_ll_fmc.c **** HAL_StatusTypeDef FMC_NAND_DeInit(FMC_NAND_TypeDef *Device, uint32_t Bank)
 612:Drivers/STM32F4xx_HAL_Driver/Src/stm32f4xx_ll_fmc.c **** {
 613:Drivers/STM32F4xx_HAL_Driver/Src/stm32f4xx_ll_fmc.c ****   /* Check the parameters */ 
 614:Drivers/STM32F4xx_HAL_Driver/Src/stm32f4xx_ll_fmc.c ****   assert_param(IS_FMC_NAND_DEVICE(Device)); 
 615:Drivers/STM32F4xx_HAL_Driver/Src/stm32f4xx_ll_fmc.c ****   assert_param(IS_FMC_NAND_BANK(Bank));
 616:Drivers/STM32F4xx_HAL_Driver/Src/stm32f4xx_ll_fmc.c ****   
 617:Drivers/STM32F4xx_HAL_Driver/Src/stm32f4xx_ll_fmc.c ****   /* Disable the NAND Bank */
 618:Drivers/STM32F4xx_HAL_Driver/Src/stm32f4xx_ll_fmc.c ****   __FMC_NAND_DISABLE(Device, Bank);
 619:Drivers/STM32F4xx_HAL_Driver/Src/stm32f4xx_ll_fmc.c ****   
 620:Drivers/STM32F4xx_HAL_Driver/Src/stm32f4xx_ll_fmc.c ****   /* De-initialize the NAND Bank */
 621:Drivers/STM32F4xx_HAL_Driver/Src/stm32f4xx_ll_fmc.c ****   /* Set the FMC_NAND_BANK registers to their reset values */
 622:Drivers/STM32F4xx_HAL_Driver/Src/stm32f4xx_ll_fmc.c ****   Device->PCR  = 0x00000018U;
 623:Drivers/STM32F4xx_HAL_Driver/Src/stm32f4xx_ll_fmc.c ****   Device->SR   = 0x00000040U;
 624:Drivers/STM32F4xx_HAL_Driver/Src/stm32f4xx_ll_fmc.c ****   Device->PMEM = 0xFCFCFCFCU;
 625:Drivers/STM32F4xx_HAL_Driver/Src/stm32f4xx_ll_fmc.c ****   Device->PATT = 0xFCFCFCFCU;
 626:Drivers/STM32F4xx_HAL_Driver/Src/stm32f4xx_ll_fmc.c **** 
 627:Drivers/STM32F4xx_HAL_Driver/Src/stm32f4xx_ll_fmc.c ****   return HAL_OK;
 628:Drivers/STM32F4xx_HAL_Driver/Src/stm32f4xx_ll_fmc.c **** }
 629:Drivers/STM32F4xx_HAL_Driver/Src/stm32f4xx_ll_fmc.c **** 
 630:Drivers/STM32F4xx_HAL_Driver/Src/stm32f4xx_ll_fmc.c **** /**
 631:Drivers/STM32F4xx_HAL_Driver/Src/stm32f4xx_ll_fmc.c ****   * @}
 632:Drivers/STM32F4xx_HAL_Driver/Src/stm32f4xx_ll_fmc.c ****   */
ARM GAS  C:\Users\zoosman\AppData\Local\Temp\ccuisvXz.s 			page 23


 633:Drivers/STM32F4xx_HAL_Driver/Src/stm32f4xx_ll_fmc.c ****   
 634:Drivers/STM32F4xx_HAL_Driver/Src/stm32f4xx_ll_fmc.c ****   
 635:Drivers/STM32F4xx_HAL_Driver/Src/stm32f4xx_ll_fmc.c **** /** @defgroup HAL_FMC_NAND_Group2 Control functions 
 636:Drivers/STM32F4xx_HAL_Driver/Src/stm32f4xx_ll_fmc.c ****  *  @brief   management functions 
 637:Drivers/STM32F4xx_HAL_Driver/Src/stm32f4xx_ll_fmc.c ****  *
 638:Drivers/STM32F4xx_HAL_Driver/Src/stm32f4xx_ll_fmc.c **** @verbatim   
 639:Drivers/STM32F4xx_HAL_Driver/Src/stm32f4xx_ll_fmc.c ****   ==============================================================================
 640:Drivers/STM32F4xx_HAL_Driver/Src/stm32f4xx_ll_fmc.c ****                        ##### FMC_NAND Control functions #####
 641:Drivers/STM32F4xx_HAL_Driver/Src/stm32f4xx_ll_fmc.c ****   ==============================================================================  
 642:Drivers/STM32F4xx_HAL_Driver/Src/stm32f4xx_ll_fmc.c ****   [..]
 643:Drivers/STM32F4xx_HAL_Driver/Src/stm32f4xx_ll_fmc.c ****     This subsection provides a set of functions allowing to control dynamically
 644:Drivers/STM32F4xx_HAL_Driver/Src/stm32f4xx_ll_fmc.c ****     the FMC NAND interface.
 645:Drivers/STM32F4xx_HAL_Driver/Src/stm32f4xx_ll_fmc.c **** 
 646:Drivers/STM32F4xx_HAL_Driver/Src/stm32f4xx_ll_fmc.c **** @endverbatim
 647:Drivers/STM32F4xx_HAL_Driver/Src/stm32f4xx_ll_fmc.c ****   * @{
 648:Drivers/STM32F4xx_HAL_Driver/Src/stm32f4xx_ll_fmc.c ****   */ 
 649:Drivers/STM32F4xx_HAL_Driver/Src/stm32f4xx_ll_fmc.c **** 
 650:Drivers/STM32F4xx_HAL_Driver/Src/stm32f4xx_ll_fmc.c ****     
 651:Drivers/STM32F4xx_HAL_Driver/Src/stm32f4xx_ll_fmc.c **** /**
 652:Drivers/STM32F4xx_HAL_Driver/Src/stm32f4xx_ll_fmc.c ****   * @brief  Enables dynamically FMC_NAND ECC feature.
 653:Drivers/STM32F4xx_HAL_Driver/Src/stm32f4xx_ll_fmc.c ****   * @param  Device Pointer to NAND device instance
 654:Drivers/STM32F4xx_HAL_Driver/Src/stm32f4xx_ll_fmc.c ****   * @param  Bank NAND bank number
 655:Drivers/STM32F4xx_HAL_Driver/Src/stm32f4xx_ll_fmc.c ****   * @retval HAL status
 656:Drivers/STM32F4xx_HAL_Driver/Src/stm32f4xx_ll_fmc.c ****   */    
 657:Drivers/STM32F4xx_HAL_Driver/Src/stm32f4xx_ll_fmc.c **** HAL_StatusTypeDef FMC_NAND_ECC_Enable(FMC_NAND_TypeDef *Device, uint32_t Bank)
 658:Drivers/STM32F4xx_HAL_Driver/Src/stm32f4xx_ll_fmc.c **** {
 659:Drivers/STM32F4xx_HAL_Driver/Src/stm32f4xx_ll_fmc.c ****   /* Check the parameters */ 
 660:Drivers/STM32F4xx_HAL_Driver/Src/stm32f4xx_ll_fmc.c ****   assert_param(IS_FMC_NAND_DEVICE(Device)); 
 661:Drivers/STM32F4xx_HAL_Driver/Src/stm32f4xx_ll_fmc.c ****   assert_param(IS_FMC_NAND_BANK(Bank));
 662:Drivers/STM32F4xx_HAL_Driver/Src/stm32f4xx_ll_fmc.c **** 
 663:Drivers/STM32F4xx_HAL_Driver/Src/stm32f4xx_ll_fmc.c ****   /* Enable ECC feature */
 664:Drivers/STM32F4xx_HAL_Driver/Src/stm32f4xx_ll_fmc.c ****   Device->PCR |= FMC_PCR_ECCEN;
 665:Drivers/STM32F4xx_HAL_Driver/Src/stm32f4xx_ll_fmc.c **** 
 666:Drivers/STM32F4xx_HAL_Driver/Src/stm32f4xx_ll_fmc.c ****   return HAL_OK;  
 667:Drivers/STM32F4xx_HAL_Driver/Src/stm32f4xx_ll_fmc.c **** }
 668:Drivers/STM32F4xx_HAL_Driver/Src/stm32f4xx_ll_fmc.c **** 
 669:Drivers/STM32F4xx_HAL_Driver/Src/stm32f4xx_ll_fmc.c **** 
 670:Drivers/STM32F4xx_HAL_Driver/Src/stm32f4xx_ll_fmc.c **** /**
 671:Drivers/STM32F4xx_HAL_Driver/Src/stm32f4xx_ll_fmc.c ****   * @brief  Disables dynamically FMC_NAND ECC feature.
 672:Drivers/STM32F4xx_HAL_Driver/Src/stm32f4xx_ll_fmc.c ****   * @param  Device Pointer to NAND device instance
 673:Drivers/STM32F4xx_HAL_Driver/Src/stm32f4xx_ll_fmc.c ****   * @param  Bank NAND bank number
 674:Drivers/STM32F4xx_HAL_Driver/Src/stm32f4xx_ll_fmc.c ****   * @retval HAL status
 675:Drivers/STM32F4xx_HAL_Driver/Src/stm32f4xx_ll_fmc.c ****   */  
 676:Drivers/STM32F4xx_HAL_Driver/Src/stm32f4xx_ll_fmc.c **** HAL_StatusTypeDef FMC_NAND_ECC_Disable(FMC_NAND_TypeDef *Device, uint32_t Bank)  
 677:Drivers/STM32F4xx_HAL_Driver/Src/stm32f4xx_ll_fmc.c **** {  
 678:Drivers/STM32F4xx_HAL_Driver/Src/stm32f4xx_ll_fmc.c ****   /* Check the parameters */ 
 679:Drivers/STM32F4xx_HAL_Driver/Src/stm32f4xx_ll_fmc.c ****   assert_param(IS_FMC_NAND_DEVICE(Device)); 
 680:Drivers/STM32F4xx_HAL_Driver/Src/stm32f4xx_ll_fmc.c ****   assert_param(IS_FMC_NAND_BANK(Bank));
 681:Drivers/STM32F4xx_HAL_Driver/Src/stm32f4xx_ll_fmc.c ****   
 682:Drivers/STM32F4xx_HAL_Driver/Src/stm32f4xx_ll_fmc.c ****   /* Disable ECC feature */
 683:Drivers/STM32F4xx_HAL_Driver/Src/stm32f4xx_ll_fmc.c ****   Device->PCR &= ~FMC_PCR_ECCEN;
 684:Drivers/STM32F4xx_HAL_Driver/Src/stm32f4xx_ll_fmc.c **** 
 685:Drivers/STM32F4xx_HAL_Driver/Src/stm32f4xx_ll_fmc.c ****   return HAL_OK;  
 686:Drivers/STM32F4xx_HAL_Driver/Src/stm32f4xx_ll_fmc.c **** }
 687:Drivers/STM32F4xx_HAL_Driver/Src/stm32f4xx_ll_fmc.c **** 
 688:Drivers/STM32F4xx_HAL_Driver/Src/stm32f4xx_ll_fmc.c **** /**
 689:Drivers/STM32F4xx_HAL_Driver/Src/stm32f4xx_ll_fmc.c ****   * @brief  Disables dynamically FMC_NAND ECC feature.
ARM GAS  C:\Users\zoosman\AppData\Local\Temp\ccuisvXz.s 			page 24


 690:Drivers/STM32F4xx_HAL_Driver/Src/stm32f4xx_ll_fmc.c ****   * @param  Device Pointer to NAND device instance
 691:Drivers/STM32F4xx_HAL_Driver/Src/stm32f4xx_ll_fmc.c ****   * @param  ECCval Pointer to ECC value
 692:Drivers/STM32F4xx_HAL_Driver/Src/stm32f4xx_ll_fmc.c ****   * @param  Bank NAND bank number
 693:Drivers/STM32F4xx_HAL_Driver/Src/stm32f4xx_ll_fmc.c ****   * @param  Timeout Timeout wait value  
 694:Drivers/STM32F4xx_HAL_Driver/Src/stm32f4xx_ll_fmc.c ****   * @retval HAL status
 695:Drivers/STM32F4xx_HAL_Driver/Src/stm32f4xx_ll_fmc.c ****   */
 696:Drivers/STM32F4xx_HAL_Driver/Src/stm32f4xx_ll_fmc.c **** HAL_StatusTypeDef FMC_NAND_GetECC(FMC_NAND_TypeDef *Device, uint32_t *ECCval, uint32_t Bank, uint32
 697:Drivers/STM32F4xx_HAL_Driver/Src/stm32f4xx_ll_fmc.c **** {
 698:Drivers/STM32F4xx_HAL_Driver/Src/stm32f4xx_ll_fmc.c ****   uint32_t tickstart = 0U;
 699:Drivers/STM32F4xx_HAL_Driver/Src/stm32f4xx_ll_fmc.c ****   
 700:Drivers/STM32F4xx_HAL_Driver/Src/stm32f4xx_ll_fmc.c ****   /* Check the parameters */ 
 701:Drivers/STM32F4xx_HAL_Driver/Src/stm32f4xx_ll_fmc.c ****   assert_param(IS_FMC_NAND_DEVICE(Device)); 
 702:Drivers/STM32F4xx_HAL_Driver/Src/stm32f4xx_ll_fmc.c ****   assert_param(IS_FMC_NAND_BANK(Bank));
 703:Drivers/STM32F4xx_HAL_Driver/Src/stm32f4xx_ll_fmc.c ****   
 704:Drivers/STM32F4xx_HAL_Driver/Src/stm32f4xx_ll_fmc.c ****   /* Get tick */ 
 705:Drivers/STM32F4xx_HAL_Driver/Src/stm32f4xx_ll_fmc.c ****   tickstart = HAL_GetTick();
 706:Drivers/STM32F4xx_HAL_Driver/Src/stm32f4xx_ll_fmc.c ****   
 707:Drivers/STM32F4xx_HAL_Driver/Src/stm32f4xx_ll_fmc.c ****   /* Wait until FIFO is empty */
 708:Drivers/STM32F4xx_HAL_Driver/Src/stm32f4xx_ll_fmc.c ****   while(__FMC_NAND_GET_FLAG(Device, Bank, FMC_FLAG_FEMPT) == RESET)
 709:Drivers/STM32F4xx_HAL_Driver/Src/stm32f4xx_ll_fmc.c ****   {
 710:Drivers/STM32F4xx_HAL_Driver/Src/stm32f4xx_ll_fmc.c ****     /* Check for the Timeout */
 711:Drivers/STM32F4xx_HAL_Driver/Src/stm32f4xx_ll_fmc.c ****     if(Timeout != HAL_MAX_DELAY)
 712:Drivers/STM32F4xx_HAL_Driver/Src/stm32f4xx_ll_fmc.c ****     {
 713:Drivers/STM32F4xx_HAL_Driver/Src/stm32f4xx_ll_fmc.c ****       if((Timeout == 0U)||((HAL_GetTick() - tickstart ) > Timeout))
 714:Drivers/STM32F4xx_HAL_Driver/Src/stm32f4xx_ll_fmc.c ****       {
 715:Drivers/STM32F4xx_HAL_Driver/Src/stm32f4xx_ll_fmc.c ****         return HAL_TIMEOUT;
 716:Drivers/STM32F4xx_HAL_Driver/Src/stm32f4xx_ll_fmc.c ****       }
 717:Drivers/STM32F4xx_HAL_Driver/Src/stm32f4xx_ll_fmc.c ****     }  
 718:Drivers/STM32F4xx_HAL_Driver/Src/stm32f4xx_ll_fmc.c ****   }
 719:Drivers/STM32F4xx_HAL_Driver/Src/stm32f4xx_ll_fmc.c ****   
 720:Drivers/STM32F4xx_HAL_Driver/Src/stm32f4xx_ll_fmc.c ****   /* Get the ECCR register value */
 721:Drivers/STM32F4xx_HAL_Driver/Src/stm32f4xx_ll_fmc.c ****   *ECCval = (uint32_t)Device->ECCR;
 722:Drivers/STM32F4xx_HAL_Driver/Src/stm32f4xx_ll_fmc.c **** 
 723:Drivers/STM32F4xx_HAL_Driver/Src/stm32f4xx_ll_fmc.c ****   return HAL_OK;  
 724:Drivers/STM32F4xx_HAL_Driver/Src/stm32f4xx_ll_fmc.c **** }
 725:Drivers/STM32F4xx_HAL_Driver/Src/stm32f4xx_ll_fmc.c **** 
 726:Drivers/STM32F4xx_HAL_Driver/Src/stm32f4xx_ll_fmc.c **** /**
 727:Drivers/STM32F4xx_HAL_Driver/Src/stm32f4xx_ll_fmc.c ****   * @}
 728:Drivers/STM32F4xx_HAL_Driver/Src/stm32f4xx_ll_fmc.c ****   */
 729:Drivers/STM32F4xx_HAL_Driver/Src/stm32f4xx_ll_fmc.c **** 
 730:Drivers/STM32F4xx_HAL_Driver/Src/stm32f4xx_ll_fmc.c **** #else /* defined(STM32F427xx) || defined(STM32F437xx) || defined(STM32F429xx) || defined(STM32F439x
 731:Drivers/STM32F4xx_HAL_Driver/Src/stm32f4xx_ll_fmc.c **** /** @defgroup HAL_FMC_NAND_Group1 Initialization/de-initialization functions 
 732:Drivers/STM32F4xx_HAL_Driver/Src/stm32f4xx_ll_fmc.c ****  *  @brief    Initialization and Configuration functions 
 733:Drivers/STM32F4xx_HAL_Driver/Src/stm32f4xx_ll_fmc.c ****  *
 734:Drivers/STM32F4xx_HAL_Driver/Src/stm32f4xx_ll_fmc.c **** @verbatim    
 735:Drivers/STM32F4xx_HAL_Driver/Src/stm32f4xx_ll_fmc.c ****   ==============================================================================
 736:Drivers/STM32F4xx_HAL_Driver/Src/stm32f4xx_ll_fmc.c ****               ##### Initialization and de_initialization functions #####
 737:Drivers/STM32F4xx_HAL_Driver/Src/stm32f4xx_ll_fmc.c ****   ==============================================================================
 738:Drivers/STM32F4xx_HAL_Driver/Src/stm32f4xx_ll_fmc.c ****   [..]  
 739:Drivers/STM32F4xx_HAL_Driver/Src/stm32f4xx_ll_fmc.c ****     This section provides functions allowing to:
 740:Drivers/STM32F4xx_HAL_Driver/Src/stm32f4xx_ll_fmc.c ****     (+) Initialize and configure the FMC NAND interface
 741:Drivers/STM32F4xx_HAL_Driver/Src/stm32f4xx_ll_fmc.c ****     (+) De-initialize the FMC NAND interface 
 742:Drivers/STM32F4xx_HAL_Driver/Src/stm32f4xx_ll_fmc.c ****     (+) Configure the FMC clock and associated GPIOs
 743:Drivers/STM32F4xx_HAL_Driver/Src/stm32f4xx_ll_fmc.c ****         
 744:Drivers/STM32F4xx_HAL_Driver/Src/stm32f4xx_ll_fmc.c **** @endverbatim
 745:Drivers/STM32F4xx_HAL_Driver/Src/stm32f4xx_ll_fmc.c ****   * @{
 746:Drivers/STM32F4xx_HAL_Driver/Src/stm32f4xx_ll_fmc.c ****   */
ARM GAS  C:\Users\zoosman\AppData\Local\Temp\ccuisvXz.s 			page 25


 747:Drivers/STM32F4xx_HAL_Driver/Src/stm32f4xx_ll_fmc.c **** /**
 748:Drivers/STM32F4xx_HAL_Driver/Src/stm32f4xx_ll_fmc.c ****   * @brief  Initializes the FMC_NAND device according to the specified
 749:Drivers/STM32F4xx_HAL_Driver/Src/stm32f4xx_ll_fmc.c ****   *         control parameters in the FMC_NAND_HandleTypeDef
 750:Drivers/STM32F4xx_HAL_Driver/Src/stm32f4xx_ll_fmc.c ****   * @param  Device Pointer to NAND device instance
 751:Drivers/STM32F4xx_HAL_Driver/Src/stm32f4xx_ll_fmc.c ****   * @param  Init Pointer to NAND Initialization structure
 752:Drivers/STM32F4xx_HAL_Driver/Src/stm32f4xx_ll_fmc.c ****   * @retval HAL status
 753:Drivers/STM32F4xx_HAL_Driver/Src/stm32f4xx_ll_fmc.c ****   */
 754:Drivers/STM32F4xx_HAL_Driver/Src/stm32f4xx_ll_fmc.c **** HAL_StatusTypeDef FMC_NAND_Init(FMC_NAND_TypeDef *Device, FMC_NAND_InitTypeDef *Init)
 755:Drivers/STM32F4xx_HAL_Driver/Src/stm32f4xx_ll_fmc.c **** {
 560              		.loc 1 755 1 is_stmt 1 view -0
 561              		.cfi_startproc
 562              		@ args = 0, pretend = 0, frame = 0
 563              		@ frame_needed = 0, uses_anonymous_args = 0
 564              		@ link register save eliminated.
 756:Drivers/STM32F4xx_HAL_Driver/Src/stm32f4xx_ll_fmc.c ****   uint32_t tmpr  = 0U; 
 565              		.loc 1 756 3 view .LVU190
 757:Drivers/STM32F4xx_HAL_Driver/Src/stm32f4xx_ll_fmc.c ****     
 758:Drivers/STM32F4xx_HAL_Driver/Src/stm32f4xx_ll_fmc.c ****   /* Check the parameters */
 759:Drivers/STM32F4xx_HAL_Driver/Src/stm32f4xx_ll_fmc.c ****   assert_param(IS_FMC_NAND_DEVICE(Device));
 566              		.loc 1 759 3 view .LVU191
 760:Drivers/STM32F4xx_HAL_Driver/Src/stm32f4xx_ll_fmc.c ****   assert_param(IS_FMC_NAND_BANK(Init->NandBank));
 567              		.loc 1 760 3 view .LVU192
 761:Drivers/STM32F4xx_HAL_Driver/Src/stm32f4xx_ll_fmc.c ****   assert_param(IS_FMC_WAIT_FEATURE(Init->Waitfeature));
 568              		.loc 1 761 3 view .LVU193
 762:Drivers/STM32F4xx_HAL_Driver/Src/stm32f4xx_ll_fmc.c ****   assert_param(IS_FMC_NAND_MEMORY_WIDTH(Init->MemoryDataWidth));
 569              		.loc 1 762 3 view .LVU194
 763:Drivers/STM32F4xx_HAL_Driver/Src/stm32f4xx_ll_fmc.c ****   assert_param(IS_FMC_ECC_STATE(Init->EccComputation));
 570              		.loc 1 763 3 view .LVU195
 764:Drivers/STM32F4xx_HAL_Driver/Src/stm32f4xx_ll_fmc.c ****   assert_param(IS_FMC_ECCPAGE_SIZE(Init->ECCPageSize));
 571              		.loc 1 764 3 view .LVU196
 765:Drivers/STM32F4xx_HAL_Driver/Src/stm32f4xx_ll_fmc.c ****   assert_param(IS_FMC_TCLR_TIME(Init->TCLRSetupTime));
 572              		.loc 1 765 3 view .LVU197
 766:Drivers/STM32F4xx_HAL_Driver/Src/stm32f4xx_ll_fmc.c ****   assert_param(IS_FMC_TAR_TIME(Init->TARSetupTime));   
 573              		.loc 1 766 3 view .LVU198
 767:Drivers/STM32F4xx_HAL_Driver/Src/stm32f4xx_ll_fmc.c **** 
 768:Drivers/STM32F4xx_HAL_Driver/Src/stm32f4xx_ll_fmc.c ****   if(Init->NandBank == FMC_NAND_BANK2)
 574              		.loc 1 768 3 view .LVU199
 755:Drivers/STM32F4xx_HAL_Driver/Src/stm32f4xx_ll_fmc.c ****   uint32_t tmpr  = 0U; 
 575              		.loc 1 755 1 is_stmt 0 view .LVU200
 576 0000 70B4     		push	{r4, r5, r6}
 577              	.LCFI11:
 578              		.cfi_def_cfa_offset 12
 579              		.cfi_offset 4, -12
 580              		.cfi_offset 5, -8
 581              		.cfi_offset 6, -4
 582              		.loc 1 768 10 view .LVU201
 583 0002 0C68     		ldr	r4, [r1]
 769:Drivers/STM32F4xx_HAL_Driver/Src/stm32f4xx_ll_fmc.c ****   {
 770:Drivers/STM32F4xx_HAL_Driver/Src/stm32f4xx_ll_fmc.c ****     /* Get the NAND bank 2 register value */
 771:Drivers/STM32F4xx_HAL_Driver/Src/stm32f4xx_ll_fmc.c ****     tmpr = Device->PCR2;
 772:Drivers/STM32F4xx_HAL_Driver/Src/stm32f4xx_ll_fmc.c ****   }
 773:Drivers/STM32F4xx_HAL_Driver/Src/stm32f4xx_ll_fmc.c ****   else
 774:Drivers/STM32F4xx_HAL_Driver/Src/stm32f4xx_ll_fmc.c ****   {
 775:Drivers/STM32F4xx_HAL_Driver/Src/stm32f4xx_ll_fmc.c ****     /* Get the NAND bank 3 register value */
 776:Drivers/STM32F4xx_HAL_Driver/Src/stm32f4xx_ll_fmc.c ****     tmpr = Device->PCR3;
 777:Drivers/STM32F4xx_HAL_Driver/Src/stm32f4xx_ll_fmc.c ****   }
 778:Drivers/STM32F4xx_HAL_Driver/Src/stm32f4xx_ll_fmc.c ****   
ARM GAS  C:\Users\zoosman\AppData\Local\Temp\ccuisvXz.s 			page 26


 779:Drivers/STM32F4xx_HAL_Driver/Src/stm32f4xx_ll_fmc.c ****   /* Clear PWAITEN, PBKEN, PTYP, PWID, ECCEN, TCLR, TAR and ECCPS bits */
 780:Drivers/STM32F4xx_HAL_Driver/Src/stm32f4xx_ll_fmc.c ****   tmpr &= ((uint32_t)~(FMC_PCR2_PWAITEN  | FMC_PCR2_PBKEN | FMC_PCR2_PTYP | \
 584              		.loc 1 780 8 view .LVU202
 585 0004 0E4A     		ldr	r2, .L40
 781:Drivers/STM32F4xx_HAL_Driver/Src/stm32f4xx_ll_fmc.c ****                        FMC_PCR2_PWID | FMC_PCR2_ECCEN | FMC_PCR2_TCLR | \
 782:Drivers/STM32F4xx_HAL_Driver/Src/stm32f4xx_ll_fmc.c ****                        FMC_PCR2_TAR | FMC_PCR2_ECCPS));  
 783:Drivers/STM32F4xx_HAL_Driver/Src/stm32f4xx_ll_fmc.c ****   
 784:Drivers/STM32F4xx_HAL_Driver/Src/stm32f4xx_ll_fmc.c ****   /* Set NAND device control parameters */
 785:Drivers/STM32F4xx_HAL_Driver/Src/stm32f4xx_ll_fmc.c ****   tmpr |= (uint32_t)(Init->Waitfeature                 |\
 786:Drivers/STM32F4xx_HAL_Driver/Src/stm32f4xx_ll_fmc.c ****                      FMC_PCR_MEMORY_TYPE_NAND          |\
 586              		.loc 1 786 56 view .LVU203
 587 0006 D1E90136 		ldrd	r3, r6, [r1, #4]
 768:Drivers/STM32F4xx_HAL_Driver/Src/stm32f4xx_ll_fmc.c ****   {
 588              		.loc 1 768 5 view .LVU204
 589 000a 102C     		cmp	r4, #16
 771:Drivers/STM32F4xx_HAL_Driver/Src/stm32f4xx_ll_fmc.c ****   }
 590              		.loc 1 771 5 is_stmt 1 view .LVU205
 771:Drivers/STM32F4xx_HAL_Driver/Src/stm32f4xx_ll_fmc.c ****   }
 591              		.loc 1 771 10 is_stmt 0 view .LVU206
 592 000c 0CBF     		ite	eq
 593 000e 0568     		ldreq	r5, [r0]
 594              	.LVL40:
 776:Drivers/STM32F4xx_HAL_Driver/Src/stm32f4xx_ll_fmc.c ****   }
 595              		.loc 1 776 5 is_stmt 1 view .LVU207
 776:Drivers/STM32F4xx_HAL_Driver/Src/stm32f4xx_ll_fmc.c ****   }
 596              		.loc 1 776 10 is_stmt 0 view .LVU208
 597 0010 056A     		ldrne	r5, [r0, #32]
 598              	.LVL41:
 780:Drivers/STM32F4xx_HAL_Driver/Src/stm32f4xx_ll_fmc.c ****                        FMC_PCR2_PWID | FMC_PCR2_ECCEN | FMC_PCR2_TCLR | \
 599              		.loc 1 780 3 is_stmt 1 view .LVU209
 785:Drivers/STM32F4xx_HAL_Driver/Src/stm32f4xx_ll_fmc.c ****                      FMC_PCR_MEMORY_TYPE_NAND          |\
 600              		.loc 1 785 3 view .LVU210
 601              		.loc 1 786 56 is_stmt 0 view .LVU211
 602 0012 3343     		orrs	r3, r3, r6
 780:Drivers/STM32F4xx_HAL_Driver/Src/stm32f4xx_ll_fmc.c ****                        FMC_PCR2_PWID | FMC_PCR2_ECCEN | FMC_PCR2_TCLR | \
 603              		.loc 1 780 8 view .LVU212
 604 0014 2A40     		ands	r2, r2, r5
 605              	.LVL42:
 785:Drivers/STM32F4xx_HAL_Driver/Src/stm32f4xx_ll_fmc.c ****                      FMC_PCR_MEMORY_TYPE_NAND          |\
 606              		.loc 1 785 8 view .LVU213
 607 0016 D1E90356 		ldrd	r5, r6, [r1, #12]
 608 001a 1343     		orrs	r3, r3, r2
 609 001c 2B43     		orrs	r3, r3, r5
 787:Drivers/STM32F4xx_HAL_Driver/Src/stm32f4xx_ll_fmc.c ****                      Init->MemoryDataWidth             |\
 788:Drivers/STM32F4xx_HAL_Driver/Src/stm32f4xx_ll_fmc.c ****                      Init->EccComputation              |\
 789:Drivers/STM32F4xx_HAL_Driver/Src/stm32f4xx_ll_fmc.c ****                      Init->ECCPageSize                 |\
 790:Drivers/STM32F4xx_HAL_Driver/Src/stm32f4xx_ll_fmc.c ****                      ((Init->TCLRSetupTime) << 9U)     |\
 791:Drivers/STM32F4xx_HAL_Driver/Src/stm32f4xx_ll_fmc.c ****                      ((Init->TARSetupTime) << 13U));   
 610              		.loc 1 791 44 view .LVU214
 611 001e D1E90552 		ldrd	r5, r2, [r1, #20]
 612              	.LVL43:
 785:Drivers/STM32F4xx_HAL_Driver/Src/stm32f4xx_ll_fmc.c ****                      FMC_PCR_MEMORY_TYPE_NAND          |\
 613              		.loc 1 785 8 view .LVU215
 614 0022 3343     		orrs	r3, r3, r6
 615 0024 43EA4523 		orr	r3, r3, r5, lsl #9
 616 0028 43EA4233 		orr	r3, r3, r2, lsl #13
 792:Drivers/STM32F4xx_HAL_Driver/Src/stm32f4xx_ll_fmc.c ****   
ARM GAS  C:\Users\zoosman\AppData\Local\Temp\ccuisvXz.s 			page 27


 793:Drivers/STM32F4xx_HAL_Driver/Src/stm32f4xx_ll_fmc.c ****   if(Init->NandBank == FMC_NAND_BANK2)
 617              		.loc 1 793 5 view .LVU216
 618 002c 102C     		cmp	r4, #16
 785:Drivers/STM32F4xx_HAL_Driver/Src/stm32f4xx_ll_fmc.c ****                      FMC_PCR_MEMORY_TYPE_NAND          |\
 619              		.loc 1 785 8 view .LVU217
 620 002e 43F00803 		orr	r3, r3, #8
 621              	.LVL44:
 622              		.loc 1 793 3 is_stmt 1 view .LVU218
 794:Drivers/STM32F4xx_HAL_Driver/Src/stm32f4xx_ll_fmc.c ****   {
 795:Drivers/STM32F4xx_HAL_Driver/Src/stm32f4xx_ll_fmc.c ****     /* NAND bank 2 registers configuration */
 796:Drivers/STM32F4xx_HAL_Driver/Src/stm32f4xx_ll_fmc.c ****     Device->PCR2  = tmpr;
 623              		.loc 1 796 5 view .LVU219
 624              		.loc 1 796 19 is_stmt 0 view .LVU220
 625 0032 0CBF     		ite	eq
 626 0034 0360     		streq	r3, [r0]
 797:Drivers/STM32F4xx_HAL_Driver/Src/stm32f4xx_ll_fmc.c ****   }
 798:Drivers/STM32F4xx_HAL_Driver/Src/stm32f4xx_ll_fmc.c ****   else
 799:Drivers/STM32F4xx_HAL_Driver/Src/stm32f4xx_ll_fmc.c ****   {
 800:Drivers/STM32F4xx_HAL_Driver/Src/stm32f4xx_ll_fmc.c ****     /* NAND bank 3 registers configuration */
 801:Drivers/STM32F4xx_HAL_Driver/Src/stm32f4xx_ll_fmc.c ****     Device->PCR3  = tmpr;
 627              		.loc 1 801 5 is_stmt 1 view .LVU221
 628              		.loc 1 801 19 is_stmt 0 view .LVU222
 629 0036 0362     		strne	r3, [r0, #32]
 802:Drivers/STM32F4xx_HAL_Driver/Src/stm32f4xx_ll_fmc.c ****   }
 803:Drivers/STM32F4xx_HAL_Driver/Src/stm32f4xx_ll_fmc.c ****   
 804:Drivers/STM32F4xx_HAL_Driver/Src/stm32f4xx_ll_fmc.c ****   return HAL_OK;
 630              		.loc 1 804 3 is_stmt 1 view .LVU223
 805:Drivers/STM32F4xx_HAL_Driver/Src/stm32f4xx_ll_fmc.c **** 
 806:Drivers/STM32F4xx_HAL_Driver/Src/stm32f4xx_ll_fmc.c **** }
 631              		.loc 1 806 1 is_stmt 0 view .LVU224
 632 0038 70BC     		pop	{r4, r5, r6}
 633              	.LCFI12:
 634              		.cfi_restore 6
 635              		.cfi_restore 5
 636              		.cfi_restore 4
 637              		.cfi_def_cfa_offset 0
 638 003a 0020     		movs	r0, #0
 639              	.LVL45:
 640              		.loc 1 806 1 view .LVU225
 641 003c 7047     		bx	lr
 642              	.L41:
 643 003e 00BF     		.align	2
 644              	.L40:
 645 0040 8101F0FF 		.word	-1048191
 646              		.cfi_endproc
 647              	.LFE136:
 649              		.section	.text.FMC_NAND_CommonSpace_Timing_Init,"ax",%progbits
 650              		.align	1
 651              		.p2align 2,,3
 652              		.global	FMC_NAND_CommonSpace_Timing_Init
 653              		.syntax unified
 654              		.thumb
 655              		.thumb_func
 656              		.fpu fpv4-sp-d16
 658              	FMC_NAND_CommonSpace_Timing_Init:
 659              	.LVL46:
 660              	.LFB137:
ARM GAS  C:\Users\zoosman\AppData\Local\Temp\ccuisvXz.s 			page 28


 807:Drivers/STM32F4xx_HAL_Driver/Src/stm32f4xx_ll_fmc.c **** 
 808:Drivers/STM32F4xx_HAL_Driver/Src/stm32f4xx_ll_fmc.c **** /**
 809:Drivers/STM32F4xx_HAL_Driver/Src/stm32f4xx_ll_fmc.c ****   * @brief  Initializes the FMC_NAND Common space Timing according to the specified
 810:Drivers/STM32F4xx_HAL_Driver/Src/stm32f4xx_ll_fmc.c ****   *         parameters in the FMC_NAND_PCC_TimingTypeDef
 811:Drivers/STM32F4xx_HAL_Driver/Src/stm32f4xx_ll_fmc.c ****   * @param  Device Pointer to NAND device instance
 812:Drivers/STM32F4xx_HAL_Driver/Src/stm32f4xx_ll_fmc.c ****   * @param  Timing Pointer to NAND timing structure
 813:Drivers/STM32F4xx_HAL_Driver/Src/stm32f4xx_ll_fmc.c ****   * @param  Bank NAND bank number   
 814:Drivers/STM32F4xx_HAL_Driver/Src/stm32f4xx_ll_fmc.c ****   * @retval HAL status
 815:Drivers/STM32F4xx_HAL_Driver/Src/stm32f4xx_ll_fmc.c ****   */
 816:Drivers/STM32F4xx_HAL_Driver/Src/stm32f4xx_ll_fmc.c **** HAL_StatusTypeDef FMC_NAND_CommonSpace_Timing_Init(FMC_NAND_TypeDef *Device, FMC_NAND_PCC_TimingTyp
 817:Drivers/STM32F4xx_HAL_Driver/Src/stm32f4xx_ll_fmc.c **** {
 661              		.loc 1 817 1 is_stmt 1 view -0
 662              		.cfi_startproc
 663              		@ args = 0, pretend = 0, frame = 0
 664              		@ frame_needed = 0, uses_anonymous_args = 0
 665              		@ link register save eliminated.
 818:Drivers/STM32F4xx_HAL_Driver/Src/stm32f4xx_ll_fmc.c ****   uint32_t tmpr = 0U;  
 666              		.loc 1 818 3 view .LVU227
 819:Drivers/STM32F4xx_HAL_Driver/Src/stm32f4xx_ll_fmc.c ****   
 820:Drivers/STM32F4xx_HAL_Driver/Src/stm32f4xx_ll_fmc.c ****   /* Check the parameters */
 821:Drivers/STM32F4xx_HAL_Driver/Src/stm32f4xx_ll_fmc.c ****   assert_param(IS_FMC_NAND_DEVICE(Device));
 667              		.loc 1 821 3 view .LVU228
 822:Drivers/STM32F4xx_HAL_Driver/Src/stm32f4xx_ll_fmc.c ****   assert_param(IS_FMC_SETUP_TIME(Timing->SetupTime));
 668              		.loc 1 822 3 view .LVU229
 823:Drivers/STM32F4xx_HAL_Driver/Src/stm32f4xx_ll_fmc.c ****   assert_param(IS_FMC_WAIT_TIME(Timing->WaitSetupTime));
 669              		.loc 1 823 3 view .LVU230
 824:Drivers/STM32F4xx_HAL_Driver/Src/stm32f4xx_ll_fmc.c ****   assert_param(IS_FMC_HOLD_TIME(Timing->HoldSetupTime));
 670              		.loc 1 824 3 view .LVU231
 825:Drivers/STM32F4xx_HAL_Driver/Src/stm32f4xx_ll_fmc.c ****   assert_param(IS_FMC_HIZ_TIME(Timing->HiZSetupTime));
 671              		.loc 1 825 3 view .LVU232
 826:Drivers/STM32F4xx_HAL_Driver/Src/stm32f4xx_ll_fmc.c ****   assert_param(IS_FMC_NAND_BANK(Bank));
 672              		.loc 1 826 3 view .LVU233
 827:Drivers/STM32F4xx_HAL_Driver/Src/stm32f4xx_ll_fmc.c ****   
 828:Drivers/STM32F4xx_HAL_Driver/Src/stm32f4xx_ll_fmc.c ****   if(Bank == FMC_NAND_BANK2)
 673              		.loc 1 828 3 view .LVU234
 674              		.loc 1 828 5 is_stmt 0 view .LVU235
 675 0000 102A     		cmp	r2, #16
 817:Drivers/STM32F4xx_HAL_Driver/Src/stm32f4xx_ll_fmc.c ****   uint32_t tmpr = 0U;  
 676              		.loc 1 817 1 view .LVU236
 677 0002 30B4     		push	{r4, r5}
 678              	.LCFI13:
 679              		.cfi_def_cfa_offset 8
 680              		.cfi_offset 4, -8
 681              		.cfi_offset 5, -4
 829:Drivers/STM32F4xx_HAL_Driver/Src/stm32f4xx_ll_fmc.c ****   {
 830:Drivers/STM32F4xx_HAL_Driver/Src/stm32f4xx_ll_fmc.c ****     /* Get the NAND bank 2 register value */
 831:Drivers/STM32F4xx_HAL_Driver/Src/stm32f4xx_ll_fmc.c ****     tmpr = Device->PMEM2;
 832:Drivers/STM32F4xx_HAL_Driver/Src/stm32f4xx_ll_fmc.c ****   }
 833:Drivers/STM32F4xx_HAL_Driver/Src/stm32f4xx_ll_fmc.c ****   else
 834:Drivers/STM32F4xx_HAL_Driver/Src/stm32f4xx_ll_fmc.c ****   {
 835:Drivers/STM32F4xx_HAL_Driver/Src/stm32f4xx_ll_fmc.c ****     /* Get the NAND bank 3 register value */
 836:Drivers/STM32F4xx_HAL_Driver/Src/stm32f4xx_ll_fmc.c ****     tmpr = Device->PMEM3;
 837:Drivers/STM32F4xx_HAL_Driver/Src/stm32f4xx_ll_fmc.c ****   } 
 838:Drivers/STM32F4xx_HAL_Driver/Src/stm32f4xx_ll_fmc.c ****   
 839:Drivers/STM32F4xx_HAL_Driver/Src/stm32f4xx_ll_fmc.c ****   /* Clear MEMSETx, MEMWAITx, MEMHOLDx and MEMHIZx bits */
 840:Drivers/STM32F4xx_HAL_Driver/Src/stm32f4xx_ll_fmc.c ****   tmpr &= ((uint32_t)~(FMC_PMEM2_MEMSET2  | FMC_PMEM2_MEMWAIT2 | FMC_PMEM2_MEMHOLD2 | \
 841:Drivers/STM32F4xx_HAL_Driver/Src/stm32f4xx_ll_fmc.c ****                        FMC_PMEM2_MEMHIZ2)); 
ARM GAS  C:\Users\zoosman\AppData\Local\Temp\ccuisvXz.s 			page 29


 842:Drivers/STM32F4xx_HAL_Driver/Src/stm32f4xx_ll_fmc.c ****   
 843:Drivers/STM32F4xx_HAL_Driver/Src/stm32f4xx_ll_fmc.c ****   /* Set FMC_NAND device timing parameters */
 844:Drivers/STM32F4xx_HAL_Driver/Src/stm32f4xx_ll_fmc.c ****   tmpr |= (uint32_t)(Timing->SetupTime                     |\
 845:Drivers/STM32F4xx_HAL_Driver/Src/stm32f4xx_ll_fmc.c ****                        ((Timing->WaitSetupTime) << 8U)     |\
 846:Drivers/STM32F4xx_HAL_Driver/Src/stm32f4xx_ll_fmc.c ****                        ((Timing->HoldSetupTime) << 16U)    |\
 847:Drivers/STM32F4xx_HAL_Driver/Src/stm32f4xx_ll_fmc.c ****                        ((Timing->HiZSetupTime) << 24U)
 682              		.loc 1 847 48 view .LVU237
 683 0004 CA68     		ldr	r2, [r1, #12]
 684              	.LVL47:
 845:Drivers/STM32F4xx_HAL_Driver/Src/stm32f4xx_ll_fmc.c ****                        ((Timing->HoldSetupTime) << 16U)    |\
 685              		.loc 1 845 60 view .LVU238
 686 0006 0C68     		ldr	r4, [r1]
 845:Drivers/STM32F4xx_HAL_Driver/Src/stm32f4xx_ll_fmc.c ****                        ((Timing->HoldSetupTime) << 16U)    |\
 687              		.loc 1 845 49 view .LVU239
 688 0008 D1E90153 		ldrd	r5, r3, [r1, #4]
 828:Drivers/STM32F4xx_HAL_Driver/Src/stm32f4xx_ll_fmc.c ****   {
 689              		.loc 1 828 5 view .LVU240
 690 000c 0AD0     		beq	.L46
 836:Drivers/STM32F4xx_HAL_Driver/Src/stm32f4xx_ll_fmc.c ****   } 
 691              		.loc 1 836 5 is_stmt 1 view .LVU241
 846:Drivers/STM32F4xx_HAL_Driver/Src/stm32f4xx_ll_fmc.c ****                        ((Timing->HiZSetupTime) << 24U)
 692              		.loc 1 846 49 is_stmt 0 view .LVU242
 693 000e 1B04     		lsls	r3, r3, #16
 845:Drivers/STM32F4xx_HAL_Driver/Src/stm32f4xx_ll_fmc.c ****                        ((Timing->HoldSetupTime) << 16U)    |\
 694              		.loc 1 845 60 view .LVU243
 695 0010 43EA0523 		orr	r3, r3, r5, lsl #8
 696 0014 2343     		orrs	r3, r3, r4
 846:Drivers/STM32F4xx_HAL_Driver/Src/stm32f4xx_ll_fmc.c ****                        ((Timing->HiZSetupTime) << 24U)
 697              		.loc 1 846 60 view .LVU244
 698 0016 43EA0263 		orr	r3, r3, r2, lsl #24
 836:Drivers/STM32F4xx_HAL_Driver/Src/stm32f4xx_ll_fmc.c ****   } 
 699              		.loc 1 836 10 view .LVU245
 700 001a 816A     		ldr	r1, [r0, #40]
 701              	.LVL48:
 840:Drivers/STM32F4xx_HAL_Driver/Src/stm32f4xx_ll_fmc.c ****                        FMC_PMEM2_MEMHIZ2)); 
 702              		.loc 1 840 3 is_stmt 1 view .LVU246
 844:Drivers/STM32F4xx_HAL_Driver/Src/stm32f4xx_ll_fmc.c ****                        ((Timing->WaitSetupTime) << 8U)     |\
 703              		.loc 1 844 3 view .LVU247
 848:Drivers/STM32F4xx_HAL_Driver/Src/stm32f4xx_ll_fmc.c ****                        );
 849:Drivers/STM32F4xx_HAL_Driver/Src/stm32f4xx_ll_fmc.c ****                             
 850:Drivers/STM32F4xx_HAL_Driver/Src/stm32f4xx_ll_fmc.c ****   if(Bank == FMC_NAND_BANK2)
 704              		.loc 1 850 3 view .LVU248
 851:Drivers/STM32F4xx_HAL_Driver/Src/stm32f4xx_ll_fmc.c ****   {
 852:Drivers/STM32F4xx_HAL_Driver/Src/stm32f4xx_ll_fmc.c ****     /* NAND bank 2 registers configuration */
 853:Drivers/STM32F4xx_HAL_Driver/Src/stm32f4xx_ll_fmc.c ****     Device->PMEM2 = tmpr;
 854:Drivers/STM32F4xx_HAL_Driver/Src/stm32f4xx_ll_fmc.c ****   }
 855:Drivers/STM32F4xx_HAL_Driver/Src/stm32f4xx_ll_fmc.c ****   else
 856:Drivers/STM32F4xx_HAL_Driver/Src/stm32f4xx_ll_fmc.c ****   {
 857:Drivers/STM32F4xx_HAL_Driver/Src/stm32f4xx_ll_fmc.c ****     /* NAND bank 3 registers configuration */
 858:Drivers/STM32F4xx_HAL_Driver/Src/stm32f4xx_ll_fmc.c ****     Device->PMEM3 = tmpr;
 705              		.loc 1 858 5 view .LVU249
 706              		.loc 1 858 19 is_stmt 0 view .LVU250
 707 001c 8362     		str	r3, [r0, #40]
 859:Drivers/STM32F4xx_HAL_Driver/Src/stm32f4xx_ll_fmc.c ****   }  
 860:Drivers/STM32F4xx_HAL_Driver/Src/stm32f4xx_ll_fmc.c ****   
 861:Drivers/STM32F4xx_HAL_Driver/Src/stm32f4xx_ll_fmc.c ****   return HAL_OK;  
 708              		.loc 1 861 3 is_stmt 1 view .LVU251
ARM GAS  C:\Users\zoosman\AppData\Local\Temp\ccuisvXz.s 			page 30


 862:Drivers/STM32F4xx_HAL_Driver/Src/stm32f4xx_ll_fmc.c **** }
 709              		.loc 1 862 1 is_stmt 0 view .LVU252
 710 001e 30BC     		pop	{r4, r5}
 711              	.LCFI14:
 712              		.cfi_remember_state
 713              		.cfi_restore 5
 714              		.cfi_restore 4
 715              		.cfi_def_cfa_offset 0
 716 0020 0020     		movs	r0, #0
 717              	.LVL49:
 718              		.loc 1 862 1 view .LVU253
 719 0022 7047     		bx	lr
 720              	.LVL50:
 721              	.L46:
 722              	.LCFI15:
 723              		.cfi_restore_state
 831:Drivers/STM32F4xx_HAL_Driver/Src/stm32f4xx_ll_fmc.c ****   }
 724              		.loc 1 831 5 is_stmt 1 view .LVU254
 846:Drivers/STM32F4xx_HAL_Driver/Src/stm32f4xx_ll_fmc.c ****                        ((Timing->HiZSetupTime) << 24U)
 725              		.loc 1 846 49 is_stmt 0 view .LVU255
 726 0024 1B04     		lsls	r3, r3, #16
 845:Drivers/STM32F4xx_HAL_Driver/Src/stm32f4xx_ll_fmc.c ****                        ((Timing->HoldSetupTime) << 16U)    |\
 727              		.loc 1 845 60 view .LVU256
 728 0026 43EA0523 		orr	r3, r3, r5, lsl #8
 729 002a 2343     		orrs	r3, r3, r4
 846:Drivers/STM32F4xx_HAL_Driver/Src/stm32f4xx_ll_fmc.c ****                        ((Timing->HiZSetupTime) << 24U)
 730              		.loc 1 846 60 view .LVU257
 731 002c 43EA0263 		orr	r3, r3, r2, lsl #24
 831:Drivers/STM32F4xx_HAL_Driver/Src/stm32f4xx_ll_fmc.c ****   }
 732              		.loc 1 831 10 view .LVU258
 733 0030 8168     		ldr	r1, [r0, #8]
 734              	.LVL51:
 840:Drivers/STM32F4xx_HAL_Driver/Src/stm32f4xx_ll_fmc.c ****                        FMC_PMEM2_MEMHIZ2)); 
 735              		.loc 1 840 3 is_stmt 1 view .LVU259
 844:Drivers/STM32F4xx_HAL_Driver/Src/stm32f4xx_ll_fmc.c ****                        ((Timing->WaitSetupTime) << 8U)     |\
 736              		.loc 1 844 3 view .LVU260
 850:Drivers/STM32F4xx_HAL_Driver/Src/stm32f4xx_ll_fmc.c ****   {
 737              		.loc 1 850 3 view .LVU261
 853:Drivers/STM32F4xx_HAL_Driver/Src/stm32f4xx_ll_fmc.c ****   }
 738              		.loc 1 853 5 view .LVU262
 853:Drivers/STM32F4xx_HAL_Driver/Src/stm32f4xx_ll_fmc.c ****   }
 739              		.loc 1 853 19 is_stmt 0 view .LVU263
 740 0032 8360     		str	r3, [r0, #8]
 861:Drivers/STM32F4xx_HAL_Driver/Src/stm32f4xx_ll_fmc.c **** }
 741              		.loc 1 861 3 is_stmt 1 view .LVU264
 742              		.loc 1 862 1 is_stmt 0 view .LVU265
 743 0034 30BC     		pop	{r4, r5}
 744              	.LCFI16:
 745              		.cfi_restore 5
 746              		.cfi_restore 4
 747              		.cfi_def_cfa_offset 0
 748 0036 0020     		movs	r0, #0
 749              	.LVL52:
 750              		.loc 1 862 1 view .LVU266
 751 0038 7047     		bx	lr
 752              		.cfi_endproc
 753              	.LFE137:
ARM GAS  C:\Users\zoosman\AppData\Local\Temp\ccuisvXz.s 			page 31


 755 003a 00BF     		.section	.text.FMC_NAND_AttributeSpace_Timing_Init,"ax",%progbits
 756              		.align	1
 757              		.p2align 2,,3
 758              		.global	FMC_NAND_AttributeSpace_Timing_Init
 759              		.syntax unified
 760              		.thumb
 761              		.thumb_func
 762              		.fpu fpv4-sp-d16
 764              	FMC_NAND_AttributeSpace_Timing_Init:
 765              	.LVL53:
 766              	.LFB138:
 863:Drivers/STM32F4xx_HAL_Driver/Src/stm32f4xx_ll_fmc.c **** 
 864:Drivers/STM32F4xx_HAL_Driver/Src/stm32f4xx_ll_fmc.c **** /**
 865:Drivers/STM32F4xx_HAL_Driver/Src/stm32f4xx_ll_fmc.c ****   * @brief  Initializes the FMC_NAND Attribute space Timing according to the specified
 866:Drivers/STM32F4xx_HAL_Driver/Src/stm32f4xx_ll_fmc.c ****   *         parameters in the FMC_NAND_PCC_TimingTypeDef
 867:Drivers/STM32F4xx_HAL_Driver/Src/stm32f4xx_ll_fmc.c ****   * @param  Device Pointer to NAND device instance
 868:Drivers/STM32F4xx_HAL_Driver/Src/stm32f4xx_ll_fmc.c ****   * @param  Timing Pointer to NAND timing structure
 869:Drivers/STM32F4xx_HAL_Driver/Src/stm32f4xx_ll_fmc.c ****   * @param  Bank NAND bank number 
 870:Drivers/STM32F4xx_HAL_Driver/Src/stm32f4xx_ll_fmc.c ****   * @retval HAL status
 871:Drivers/STM32F4xx_HAL_Driver/Src/stm32f4xx_ll_fmc.c ****   */
 872:Drivers/STM32F4xx_HAL_Driver/Src/stm32f4xx_ll_fmc.c **** HAL_StatusTypeDef FMC_NAND_AttributeSpace_Timing_Init(FMC_NAND_TypeDef *Device, FMC_NAND_PCC_Timing
 873:Drivers/STM32F4xx_HAL_Driver/Src/stm32f4xx_ll_fmc.c **** {
 767              		.loc 1 873 1 is_stmt 1 view -0
 768              		.cfi_startproc
 769              		@ args = 0, pretend = 0, frame = 0
 770              		@ frame_needed = 0, uses_anonymous_args = 0
 771              		@ link register save eliminated.
 874:Drivers/STM32F4xx_HAL_Driver/Src/stm32f4xx_ll_fmc.c ****   uint32_t tmpr = 0U;  
 772              		.loc 1 874 3 view .LVU268
 875:Drivers/STM32F4xx_HAL_Driver/Src/stm32f4xx_ll_fmc.c ****   
 876:Drivers/STM32F4xx_HAL_Driver/Src/stm32f4xx_ll_fmc.c ****   /* Check the parameters */ 
 877:Drivers/STM32F4xx_HAL_Driver/Src/stm32f4xx_ll_fmc.c ****   assert_param(IS_FMC_NAND_DEVICE(Device)); 
 773              		.loc 1 877 3 view .LVU269
 878:Drivers/STM32F4xx_HAL_Driver/Src/stm32f4xx_ll_fmc.c ****   assert_param(IS_FMC_SETUP_TIME(Timing->SetupTime));
 774              		.loc 1 878 3 view .LVU270
 879:Drivers/STM32F4xx_HAL_Driver/Src/stm32f4xx_ll_fmc.c ****   assert_param(IS_FMC_WAIT_TIME(Timing->WaitSetupTime));
 775              		.loc 1 879 3 view .LVU271
 880:Drivers/STM32F4xx_HAL_Driver/Src/stm32f4xx_ll_fmc.c ****   assert_param(IS_FMC_HOLD_TIME(Timing->HoldSetupTime));
 776              		.loc 1 880 3 view .LVU272
 881:Drivers/STM32F4xx_HAL_Driver/Src/stm32f4xx_ll_fmc.c ****   assert_param(IS_FMC_HIZ_TIME(Timing->HiZSetupTime));
 777              		.loc 1 881 3 view .LVU273
 882:Drivers/STM32F4xx_HAL_Driver/Src/stm32f4xx_ll_fmc.c ****   assert_param(IS_FMC_NAND_BANK(Bank));
 778              		.loc 1 882 3 view .LVU274
 883:Drivers/STM32F4xx_HAL_Driver/Src/stm32f4xx_ll_fmc.c ****   
 884:Drivers/STM32F4xx_HAL_Driver/Src/stm32f4xx_ll_fmc.c ****   if(Bank == FMC_NAND_BANK2)
 779              		.loc 1 884 3 view .LVU275
 780              		.loc 1 884 5 is_stmt 0 view .LVU276
 781 0000 102A     		cmp	r2, #16
 873:Drivers/STM32F4xx_HAL_Driver/Src/stm32f4xx_ll_fmc.c ****   uint32_t tmpr = 0U;  
 782              		.loc 1 873 1 view .LVU277
 783 0002 30B4     		push	{r4, r5}
 784              	.LCFI17:
 785              		.cfi_def_cfa_offset 8
 786              		.cfi_offset 4, -8
 787              		.cfi_offset 5, -4
 885:Drivers/STM32F4xx_HAL_Driver/Src/stm32f4xx_ll_fmc.c ****   {
 886:Drivers/STM32F4xx_HAL_Driver/Src/stm32f4xx_ll_fmc.c ****     /* Get the NAND bank 2 register value */
ARM GAS  C:\Users\zoosman\AppData\Local\Temp\ccuisvXz.s 			page 32


 887:Drivers/STM32F4xx_HAL_Driver/Src/stm32f4xx_ll_fmc.c ****     tmpr = Device->PATT2;
 888:Drivers/STM32F4xx_HAL_Driver/Src/stm32f4xx_ll_fmc.c ****   }
 889:Drivers/STM32F4xx_HAL_Driver/Src/stm32f4xx_ll_fmc.c ****   else
 890:Drivers/STM32F4xx_HAL_Driver/Src/stm32f4xx_ll_fmc.c ****   {
 891:Drivers/STM32F4xx_HAL_Driver/Src/stm32f4xx_ll_fmc.c ****     /* Get the NAND bank 3 register value */
 892:Drivers/STM32F4xx_HAL_Driver/Src/stm32f4xx_ll_fmc.c ****     tmpr = Device->PATT3;
 893:Drivers/STM32F4xx_HAL_Driver/Src/stm32f4xx_ll_fmc.c ****   } 
 894:Drivers/STM32F4xx_HAL_Driver/Src/stm32f4xx_ll_fmc.c ****   
 895:Drivers/STM32F4xx_HAL_Driver/Src/stm32f4xx_ll_fmc.c ****   /* Clear ATTSETx, ATTWAITx, ATTHOLDx and ATTHIZx bits */
 896:Drivers/STM32F4xx_HAL_Driver/Src/stm32f4xx_ll_fmc.c ****   tmpr &= ((uint32_t)~(FMC_PATT2_ATTSET2  | FMC_PATT2_ATTWAIT2 | FMC_PATT2_ATTHOLD2 | \
 897:Drivers/STM32F4xx_HAL_Driver/Src/stm32f4xx_ll_fmc.c ****                        FMC_PATT2_ATTHIZ2));
 898:Drivers/STM32F4xx_HAL_Driver/Src/stm32f4xx_ll_fmc.c ****   
 899:Drivers/STM32F4xx_HAL_Driver/Src/stm32f4xx_ll_fmc.c ****   /* Set FMC_NAND device timing parameters */
 900:Drivers/STM32F4xx_HAL_Driver/Src/stm32f4xx_ll_fmc.c ****   tmpr |= (uint32_t)(Timing->SetupTime                  |\
 901:Drivers/STM32F4xx_HAL_Driver/Src/stm32f4xx_ll_fmc.c ****                    ((Timing->WaitSetupTime) << 8U)      |\
 902:Drivers/STM32F4xx_HAL_Driver/Src/stm32f4xx_ll_fmc.c ****                    ((Timing->HoldSetupTime) << 16U)     |\
 903:Drivers/STM32F4xx_HAL_Driver/Src/stm32f4xx_ll_fmc.c ****                    ((Timing->HiZSetupTime) << 24U));
 788              		.loc 1 903 44 view .LVU278
 789 0004 CA68     		ldr	r2, [r1, #12]
 790              	.LVL54:
 901:Drivers/STM32F4xx_HAL_Driver/Src/stm32f4xx_ll_fmc.c ****                    ((Timing->HoldSetupTime) << 16U)     |\
 791              		.loc 1 901 57 view .LVU279
 792 0006 0C68     		ldr	r4, [r1]
 901:Drivers/STM32F4xx_HAL_Driver/Src/stm32f4xx_ll_fmc.c ****                    ((Timing->HoldSetupTime) << 16U)     |\
 793              		.loc 1 901 45 view .LVU280
 794 0008 D1E90153 		ldrd	r5, r3, [r1, #4]
 884:Drivers/STM32F4xx_HAL_Driver/Src/stm32f4xx_ll_fmc.c ****   {
 795              		.loc 1 884 5 view .LVU281
 796 000c 0AD0     		beq	.L51
 892:Drivers/STM32F4xx_HAL_Driver/Src/stm32f4xx_ll_fmc.c ****   } 
 797              		.loc 1 892 5 is_stmt 1 view .LVU282
 902:Drivers/STM32F4xx_HAL_Driver/Src/stm32f4xx_ll_fmc.c ****                    ((Timing->HiZSetupTime) << 24U));
 798              		.loc 1 902 45 is_stmt 0 view .LVU283
 799 000e 1B04     		lsls	r3, r3, #16
 901:Drivers/STM32F4xx_HAL_Driver/Src/stm32f4xx_ll_fmc.c ****                    ((Timing->HoldSetupTime) << 16U)     |\
 800              		.loc 1 901 57 view .LVU284
 801 0010 43EA0523 		orr	r3, r3, r5, lsl #8
 802 0014 2343     		orrs	r3, r3, r4
 902:Drivers/STM32F4xx_HAL_Driver/Src/stm32f4xx_ll_fmc.c ****                    ((Timing->HiZSetupTime) << 24U));
 803              		.loc 1 902 57 view .LVU285
 804 0016 43EA0263 		orr	r3, r3, r2, lsl #24
 892:Drivers/STM32F4xx_HAL_Driver/Src/stm32f4xx_ll_fmc.c ****   } 
 805              		.loc 1 892 10 view .LVU286
 806 001a C16A     		ldr	r1, [r0, #44]
 807              	.LVL55:
 896:Drivers/STM32F4xx_HAL_Driver/Src/stm32f4xx_ll_fmc.c ****                        FMC_PATT2_ATTHIZ2));
 808              		.loc 1 896 3 is_stmt 1 view .LVU287
 900:Drivers/STM32F4xx_HAL_Driver/Src/stm32f4xx_ll_fmc.c ****                    ((Timing->WaitSetupTime) << 8U)      |\
 809              		.loc 1 900 3 view .LVU288
 904:Drivers/STM32F4xx_HAL_Driver/Src/stm32f4xx_ll_fmc.c ****                        
 905:Drivers/STM32F4xx_HAL_Driver/Src/stm32f4xx_ll_fmc.c ****   if(Bank == FMC_NAND_BANK2)
 810              		.loc 1 905 3 view .LVU289
 906:Drivers/STM32F4xx_HAL_Driver/Src/stm32f4xx_ll_fmc.c ****   {
 907:Drivers/STM32F4xx_HAL_Driver/Src/stm32f4xx_ll_fmc.c ****     /* NAND bank 2 registers configuration */
 908:Drivers/STM32F4xx_HAL_Driver/Src/stm32f4xx_ll_fmc.c ****     Device->PATT2 = tmpr;
 909:Drivers/STM32F4xx_HAL_Driver/Src/stm32f4xx_ll_fmc.c ****   }
 910:Drivers/STM32F4xx_HAL_Driver/Src/stm32f4xx_ll_fmc.c ****   else
ARM GAS  C:\Users\zoosman\AppData\Local\Temp\ccuisvXz.s 			page 33


 911:Drivers/STM32F4xx_HAL_Driver/Src/stm32f4xx_ll_fmc.c ****   {
 912:Drivers/STM32F4xx_HAL_Driver/Src/stm32f4xx_ll_fmc.c ****     /* NAND bank 3 registers configuration */
 913:Drivers/STM32F4xx_HAL_Driver/Src/stm32f4xx_ll_fmc.c ****     Device->PATT3 = tmpr;
 811              		.loc 1 913 5 view .LVU290
 812              		.loc 1 913 19 is_stmt 0 view .LVU291
 813 001c C362     		str	r3, [r0, #44]
 914:Drivers/STM32F4xx_HAL_Driver/Src/stm32f4xx_ll_fmc.c ****   }   
 915:Drivers/STM32F4xx_HAL_Driver/Src/stm32f4xx_ll_fmc.c ****   
 916:Drivers/STM32F4xx_HAL_Driver/Src/stm32f4xx_ll_fmc.c ****   return HAL_OK;
 814              		.loc 1 916 3 is_stmt 1 view .LVU292
 917:Drivers/STM32F4xx_HAL_Driver/Src/stm32f4xx_ll_fmc.c **** }
 815              		.loc 1 917 1 is_stmt 0 view .LVU293
 816 001e 30BC     		pop	{r4, r5}
 817              	.LCFI18:
 818              		.cfi_remember_state
 819              		.cfi_restore 5
 820              		.cfi_restore 4
 821              		.cfi_def_cfa_offset 0
 822 0020 0020     		movs	r0, #0
 823              	.LVL56:
 824              		.loc 1 917 1 view .LVU294
 825 0022 7047     		bx	lr
 826              	.LVL57:
 827              	.L51:
 828              	.LCFI19:
 829              		.cfi_restore_state
 887:Drivers/STM32F4xx_HAL_Driver/Src/stm32f4xx_ll_fmc.c ****   }
 830              		.loc 1 887 5 is_stmt 1 view .LVU295
 902:Drivers/STM32F4xx_HAL_Driver/Src/stm32f4xx_ll_fmc.c ****                    ((Timing->HiZSetupTime) << 24U));
 831              		.loc 1 902 45 is_stmt 0 view .LVU296
 832 0024 1B04     		lsls	r3, r3, #16
 901:Drivers/STM32F4xx_HAL_Driver/Src/stm32f4xx_ll_fmc.c ****                    ((Timing->HoldSetupTime) << 16U)     |\
 833              		.loc 1 901 57 view .LVU297
 834 0026 43EA0523 		orr	r3, r3, r5, lsl #8
 835 002a 2343     		orrs	r3, r3, r4
 902:Drivers/STM32F4xx_HAL_Driver/Src/stm32f4xx_ll_fmc.c ****                    ((Timing->HiZSetupTime) << 24U));
 836              		.loc 1 902 57 view .LVU298
 837 002c 43EA0263 		orr	r3, r3, r2, lsl #24
 887:Drivers/STM32F4xx_HAL_Driver/Src/stm32f4xx_ll_fmc.c ****   }
 838              		.loc 1 887 10 view .LVU299
 839 0030 C168     		ldr	r1, [r0, #12]
 840              	.LVL58:
 896:Drivers/STM32F4xx_HAL_Driver/Src/stm32f4xx_ll_fmc.c ****                        FMC_PATT2_ATTHIZ2));
 841              		.loc 1 896 3 is_stmt 1 view .LVU300
 900:Drivers/STM32F4xx_HAL_Driver/Src/stm32f4xx_ll_fmc.c ****                    ((Timing->WaitSetupTime) << 8U)      |\
 842              		.loc 1 900 3 view .LVU301
 905:Drivers/STM32F4xx_HAL_Driver/Src/stm32f4xx_ll_fmc.c ****   {
 843              		.loc 1 905 3 view .LVU302
 908:Drivers/STM32F4xx_HAL_Driver/Src/stm32f4xx_ll_fmc.c ****   }
 844              		.loc 1 908 5 view .LVU303
 908:Drivers/STM32F4xx_HAL_Driver/Src/stm32f4xx_ll_fmc.c ****   }
 845              		.loc 1 908 19 is_stmt 0 view .LVU304
 846 0032 C360     		str	r3, [r0, #12]
 916:Drivers/STM32F4xx_HAL_Driver/Src/stm32f4xx_ll_fmc.c **** }
 847              		.loc 1 916 3 is_stmt 1 view .LVU305
 848              		.loc 1 917 1 is_stmt 0 view .LVU306
 849 0034 30BC     		pop	{r4, r5}
ARM GAS  C:\Users\zoosman\AppData\Local\Temp\ccuisvXz.s 			page 34


 850              	.LCFI20:
 851              		.cfi_restore 5
 852              		.cfi_restore 4
 853              		.cfi_def_cfa_offset 0
 854 0036 0020     		movs	r0, #0
 855              	.LVL59:
 856              		.loc 1 917 1 view .LVU307
 857 0038 7047     		bx	lr
 858              		.cfi_endproc
 859              	.LFE138:
 861 003a 00BF     		.section	.text.FMC_NAND_DeInit,"ax",%progbits
 862              		.align	1
 863              		.p2align 2,,3
 864              		.global	FMC_NAND_DeInit
 865              		.syntax unified
 866              		.thumb
 867              		.thumb_func
 868              		.fpu fpv4-sp-d16
 870              	FMC_NAND_DeInit:
 871              	.LVL60:
 872              	.LFB139:
 918:Drivers/STM32F4xx_HAL_Driver/Src/stm32f4xx_ll_fmc.c **** 
 919:Drivers/STM32F4xx_HAL_Driver/Src/stm32f4xx_ll_fmc.c **** /**
 920:Drivers/STM32F4xx_HAL_Driver/Src/stm32f4xx_ll_fmc.c ****   * @brief  DeInitializes the FMC_NAND device 
 921:Drivers/STM32F4xx_HAL_Driver/Src/stm32f4xx_ll_fmc.c ****   * @param  Device Pointer to NAND device instance
 922:Drivers/STM32F4xx_HAL_Driver/Src/stm32f4xx_ll_fmc.c ****   * @param  Bank NAND bank number
 923:Drivers/STM32F4xx_HAL_Driver/Src/stm32f4xx_ll_fmc.c ****   * @retval HAL status
 924:Drivers/STM32F4xx_HAL_Driver/Src/stm32f4xx_ll_fmc.c ****   */
 925:Drivers/STM32F4xx_HAL_Driver/Src/stm32f4xx_ll_fmc.c **** HAL_StatusTypeDef FMC_NAND_DeInit(FMC_NAND_TypeDef *Device, uint32_t Bank)
 926:Drivers/STM32F4xx_HAL_Driver/Src/stm32f4xx_ll_fmc.c **** {
 873              		.loc 1 926 1 is_stmt 1 view -0
 874              		.cfi_startproc
 875              		@ args = 0, pretend = 0, frame = 0
 876              		@ frame_needed = 0, uses_anonymous_args = 0
 877              		@ link register save eliminated.
 927:Drivers/STM32F4xx_HAL_Driver/Src/stm32f4xx_ll_fmc.c ****   /* Check the parameters */ 
 928:Drivers/STM32F4xx_HAL_Driver/Src/stm32f4xx_ll_fmc.c ****   assert_param(IS_FMC_NAND_DEVICE(Device)); 
 878              		.loc 1 928 3 view .LVU309
 929:Drivers/STM32F4xx_HAL_Driver/Src/stm32f4xx_ll_fmc.c ****   assert_param(IS_FMC_NAND_BANK(Bank));
 879              		.loc 1 929 3 view .LVU310
 930:Drivers/STM32F4xx_HAL_Driver/Src/stm32f4xx_ll_fmc.c ****       
 931:Drivers/STM32F4xx_HAL_Driver/Src/stm32f4xx_ll_fmc.c ****   /* Disable the NAND Bank */
 932:Drivers/STM32F4xx_HAL_Driver/Src/stm32f4xx_ll_fmc.c ****   __FMC_NAND_DISABLE(Device, Bank);
 880              		.loc 1 932 3 view .LVU311
 881 0000 1029     		cmp	r1, #16
 926:Drivers/STM32F4xx_HAL_Driver/Src/stm32f4xx_ll_fmc.c ****   /* Check the parameters */ 
 882              		.loc 1 926 1 is_stmt 0 view .LVU312
 883 0002 10B4     		push	{r4}
 884              	.LCFI21:
 885              		.cfi_def_cfa_offset 4
 886              		.cfi_offset 4, -4
 887              		.loc 1 932 3 view .LVU313
 888 0004 0FD0     		beq	.L56
 889              		.loc 1 932 3 discriminator 2 view .LVU314
 890 0006 036A     		ldr	r3, [r0, #32]
 933:Drivers/STM32F4xx_HAL_Driver/Src/stm32f4xx_ll_fmc.c ****  
 934:Drivers/STM32F4xx_HAL_Driver/Src/stm32f4xx_ll_fmc.c ****   /* De-initialize the NAND Bank */
ARM GAS  C:\Users\zoosman\AppData\Local\Temp\ccuisvXz.s 			page 35


 935:Drivers/STM32F4xx_HAL_Driver/Src/stm32f4xx_ll_fmc.c ****   if(Bank == FMC_NAND_BANK2)
 936:Drivers/STM32F4xx_HAL_Driver/Src/stm32f4xx_ll_fmc.c ****   {
 937:Drivers/STM32F4xx_HAL_Driver/Src/stm32f4xx_ll_fmc.c ****     /* Set the FMC_NAND_BANK2 registers to their reset values */
 938:Drivers/STM32F4xx_HAL_Driver/Src/stm32f4xx_ll_fmc.c ****     Device->PCR2  = 0x00000018U;
 939:Drivers/STM32F4xx_HAL_Driver/Src/stm32f4xx_ll_fmc.c ****     Device->SR2   = 0x00000040U;
 940:Drivers/STM32F4xx_HAL_Driver/Src/stm32f4xx_ll_fmc.c ****     Device->PMEM2 = 0xFCFCFCFCU;
 941:Drivers/STM32F4xx_HAL_Driver/Src/stm32f4xx_ll_fmc.c ****     Device->PATT2 = 0xFCFCFCFCU;  
 942:Drivers/STM32F4xx_HAL_Driver/Src/stm32f4xx_ll_fmc.c ****   }
 943:Drivers/STM32F4xx_HAL_Driver/Src/stm32f4xx_ll_fmc.c ****   /* FMC_Bank3_NAND */  
 944:Drivers/STM32F4xx_HAL_Driver/Src/stm32f4xx_ll_fmc.c ****   else
 945:Drivers/STM32F4xx_HAL_Driver/Src/stm32f4xx_ll_fmc.c ****   {
 946:Drivers/STM32F4xx_HAL_Driver/Src/stm32f4xx_ll_fmc.c ****     /* Set the FMC_NAND_BANK3 registers to their reset values */
 947:Drivers/STM32F4xx_HAL_Driver/Src/stm32f4xx_ll_fmc.c ****     Device->PCR3  = 0x00000018U;
 891              		.loc 1 947 19 discriminator 2 view .LVU315
 892 0008 1824     		movs	r4, #24
 948:Drivers/STM32F4xx_HAL_Driver/Src/stm32f4xx_ll_fmc.c ****     Device->SR3   = 0x00000040U;
 949:Drivers/STM32F4xx_HAL_Driver/Src/stm32f4xx_ll_fmc.c ****     Device->PMEM3 = 0xFCFCFCFCU;
 893              		.loc 1 949 19 discriminator 2 view .LVU316
 894 000a 4FF0FC32 		mov	r2, #-50529028
 932:Drivers/STM32F4xx_HAL_Driver/Src/stm32f4xx_ll_fmc.c ****  
 895              		.loc 1 932 3 discriminator 2 view .LVU317
 896 000e 23F00403 		bic	r3, r3, #4
 948:Drivers/STM32F4xx_HAL_Driver/Src/stm32f4xx_ll_fmc.c ****     Device->SR3   = 0x00000040U;
 897              		.loc 1 948 19 discriminator 2 view .LVU318
 898 0012 4021     		movs	r1, #64
 899              	.LVL61:
 932:Drivers/STM32F4xx_HAL_Driver/Src/stm32f4xx_ll_fmc.c ****  
 900              		.loc 1 932 3 discriminator 2 view .LVU319
 901 0014 0362     		str	r3, [r0, #32]
 935:Drivers/STM32F4xx_HAL_Driver/Src/stm32f4xx_ll_fmc.c ****   {
 902              		.loc 1 935 3 is_stmt 1 discriminator 2 view .LVU320
 947:Drivers/STM32F4xx_HAL_Driver/Src/stm32f4xx_ll_fmc.c ****     Device->SR3   = 0x00000040U;
 903              		.loc 1 947 5 discriminator 2 view .LVU321
 947:Drivers/STM32F4xx_HAL_Driver/Src/stm32f4xx_ll_fmc.c ****     Device->SR3   = 0x00000040U;
 904              		.loc 1 947 19 is_stmt 0 discriminator 2 view .LVU322
 905 0016 0462     		str	r4, [r0, #32]
 948:Drivers/STM32F4xx_HAL_Driver/Src/stm32f4xx_ll_fmc.c ****     Device->PMEM3 = 0xFCFCFCFCU;
 906              		.loc 1 948 5 is_stmt 1 discriminator 2 view .LVU323
 948:Drivers/STM32F4xx_HAL_Driver/Src/stm32f4xx_ll_fmc.c ****     Device->PMEM3 = 0xFCFCFCFCU;
 907              		.loc 1 948 19 is_stmt 0 discriminator 2 view .LVU324
 908 0018 4162     		str	r1, [r0, #36]
 909              		.loc 1 949 5 is_stmt 1 discriminator 2 view .LVU325
 950:Drivers/STM32F4xx_HAL_Driver/Src/stm32f4xx_ll_fmc.c ****     Device->PATT3 = 0xFCFCFCFCU; 
 951:Drivers/STM32F4xx_HAL_Driver/Src/stm32f4xx_ll_fmc.c ****   }
 952:Drivers/STM32F4xx_HAL_Driver/Src/stm32f4xx_ll_fmc.c ****   
 953:Drivers/STM32F4xx_HAL_Driver/Src/stm32f4xx_ll_fmc.c ****   return HAL_OK;
 954:Drivers/STM32F4xx_HAL_Driver/Src/stm32f4xx_ll_fmc.c **** }
 910              		.loc 1 954 1 is_stmt 0 discriminator 2 view .LVU326
 911 001a 5DF8044B 		ldr	r4, [sp], #4
 912              	.LCFI22:
 913              		.cfi_remember_state
 914              		.cfi_restore 4
 915              		.cfi_def_cfa_offset 0
 949:Drivers/STM32F4xx_HAL_Driver/Src/stm32f4xx_ll_fmc.c ****     Device->PATT3 = 0xFCFCFCFCU; 
 916              		.loc 1 949 19 discriminator 2 view .LVU327
 917 001e 8262     		str	r2, [r0, #40]
 950:Drivers/STM32F4xx_HAL_Driver/Src/stm32f4xx_ll_fmc.c ****     Device->PATT3 = 0xFCFCFCFCU; 
ARM GAS  C:\Users\zoosman\AppData\Local\Temp\ccuisvXz.s 			page 36


 918              		.loc 1 950 5 is_stmt 1 discriminator 2 view .LVU328
 950:Drivers/STM32F4xx_HAL_Driver/Src/stm32f4xx_ll_fmc.c ****     Device->PATT3 = 0xFCFCFCFCU; 
 919              		.loc 1 950 19 is_stmt 0 discriminator 2 view .LVU329
 920 0020 C262     		str	r2, [r0, #44]
 953:Drivers/STM32F4xx_HAL_Driver/Src/stm32f4xx_ll_fmc.c **** }
 921              		.loc 1 953 3 is_stmt 1 discriminator 2 view .LVU330
 922              		.loc 1 954 1 is_stmt 0 discriminator 2 view .LVU331
 923 0022 0020     		movs	r0, #0
 924              	.LVL62:
 925              		.loc 1 954 1 discriminator 2 view .LVU332
 926 0024 7047     		bx	lr
 927              	.LVL63:
 928              	.L56:
 929              	.LCFI23:
 930              		.cfi_restore_state
 932:Drivers/STM32F4xx_HAL_Driver/Src/stm32f4xx_ll_fmc.c ****  
 931              		.loc 1 932 3 discriminator 1 view .LVU333
 932 0026 0368     		ldr	r3, [r0]
 938:Drivers/STM32F4xx_HAL_Driver/Src/stm32f4xx_ll_fmc.c ****     Device->SR2   = 0x00000040U;
 933              		.loc 1 938 19 discriminator 1 view .LVU334
 934 0028 1824     		movs	r4, #24
 940:Drivers/STM32F4xx_HAL_Driver/Src/stm32f4xx_ll_fmc.c ****     Device->PATT2 = 0xFCFCFCFCU;  
 935              		.loc 1 940 19 discriminator 1 view .LVU335
 936 002a 4FF0FC32 		mov	r2, #-50529028
 932:Drivers/STM32F4xx_HAL_Driver/Src/stm32f4xx_ll_fmc.c ****  
 937              		.loc 1 932 3 discriminator 1 view .LVU336
 938 002e 23F00403 		bic	r3, r3, #4
 939:Drivers/STM32F4xx_HAL_Driver/Src/stm32f4xx_ll_fmc.c ****     Device->PMEM2 = 0xFCFCFCFCU;
 939              		.loc 1 939 19 discriminator 1 view .LVU337
 940 0032 4021     		movs	r1, #64
 941              	.LVL64:
 932:Drivers/STM32F4xx_HAL_Driver/Src/stm32f4xx_ll_fmc.c ****  
 942              		.loc 1 932 3 discriminator 1 view .LVU338
 943 0034 0360     		str	r3, [r0]
 935:Drivers/STM32F4xx_HAL_Driver/Src/stm32f4xx_ll_fmc.c ****   {
 944              		.loc 1 935 3 is_stmt 1 discriminator 1 view .LVU339
 938:Drivers/STM32F4xx_HAL_Driver/Src/stm32f4xx_ll_fmc.c ****     Device->SR2   = 0x00000040U;
 945              		.loc 1 938 5 discriminator 1 view .LVU340
 938:Drivers/STM32F4xx_HAL_Driver/Src/stm32f4xx_ll_fmc.c ****     Device->SR2   = 0x00000040U;
 946              		.loc 1 938 19 is_stmt 0 discriminator 1 view .LVU341
 947 0036 0460     		str	r4, [r0]
 939:Drivers/STM32F4xx_HAL_Driver/Src/stm32f4xx_ll_fmc.c ****     Device->PMEM2 = 0xFCFCFCFCU;
 948              		.loc 1 939 5 is_stmt 1 discriminator 1 view .LVU342
 939:Drivers/STM32F4xx_HAL_Driver/Src/stm32f4xx_ll_fmc.c ****     Device->PMEM2 = 0xFCFCFCFCU;
 949              		.loc 1 939 19 is_stmt 0 discriminator 1 view .LVU343
 950 0038 4160     		str	r1, [r0, #4]
 940:Drivers/STM32F4xx_HAL_Driver/Src/stm32f4xx_ll_fmc.c ****     Device->PATT2 = 0xFCFCFCFCU;  
 951              		.loc 1 940 5 is_stmt 1 discriminator 1 view .LVU344
 952              		.loc 1 954 1 is_stmt 0 discriminator 1 view .LVU345
 953 003a 5DF8044B 		ldr	r4, [sp], #4
 954              	.LCFI24:
 955              		.cfi_restore 4
 956              		.cfi_def_cfa_offset 0
 940:Drivers/STM32F4xx_HAL_Driver/Src/stm32f4xx_ll_fmc.c ****     Device->PATT2 = 0xFCFCFCFCU;  
 957              		.loc 1 940 19 discriminator 1 view .LVU346
 958 003e 8260     		str	r2, [r0, #8]
 941:Drivers/STM32F4xx_HAL_Driver/Src/stm32f4xx_ll_fmc.c ****   }
ARM GAS  C:\Users\zoosman\AppData\Local\Temp\ccuisvXz.s 			page 37


 959              		.loc 1 941 5 is_stmt 1 discriminator 1 view .LVU347
 941:Drivers/STM32F4xx_HAL_Driver/Src/stm32f4xx_ll_fmc.c ****   }
 960              		.loc 1 941 19 is_stmt 0 discriminator 1 view .LVU348
 961 0040 C260     		str	r2, [r0, #12]
 953:Drivers/STM32F4xx_HAL_Driver/Src/stm32f4xx_ll_fmc.c **** }
 962              		.loc 1 953 3 is_stmt 1 discriminator 1 view .LVU349
 963              		.loc 1 954 1 is_stmt 0 discriminator 1 view .LVU350
 964 0042 0020     		movs	r0, #0
 965              	.LVL65:
 966              		.loc 1 954 1 discriminator 1 view .LVU351
 967 0044 7047     		bx	lr
 968              		.cfi_endproc
 969              	.LFE139:
 971 0046 00BF     		.section	.text.FMC_NAND_ECC_Enable,"ax",%progbits
 972              		.align	1
 973              		.p2align 2,,3
 974              		.global	FMC_NAND_ECC_Enable
 975              		.syntax unified
 976              		.thumb
 977              		.thumb_func
 978              		.fpu fpv4-sp-d16
 980              	FMC_NAND_ECC_Enable:
 981              	.LVL66:
 982              	.LFB140:
 955:Drivers/STM32F4xx_HAL_Driver/Src/stm32f4xx_ll_fmc.c **** 
 956:Drivers/STM32F4xx_HAL_Driver/Src/stm32f4xx_ll_fmc.c **** /**
 957:Drivers/STM32F4xx_HAL_Driver/Src/stm32f4xx_ll_fmc.c ****   * @}
 958:Drivers/STM32F4xx_HAL_Driver/Src/stm32f4xx_ll_fmc.c ****   */
 959:Drivers/STM32F4xx_HAL_Driver/Src/stm32f4xx_ll_fmc.c **** 
 960:Drivers/STM32F4xx_HAL_Driver/Src/stm32f4xx_ll_fmc.c **** /** @addtogroup FMC_LL_NAND_Private_Functions_Group2
 961:Drivers/STM32F4xx_HAL_Driver/Src/stm32f4xx_ll_fmc.c ****   *  @brief   management functions 
 962:Drivers/STM32F4xx_HAL_Driver/Src/stm32f4xx_ll_fmc.c ****   *
 963:Drivers/STM32F4xx_HAL_Driver/Src/stm32f4xx_ll_fmc.c **** @verbatim   
 964:Drivers/STM32F4xx_HAL_Driver/Src/stm32f4xx_ll_fmc.c ****   ==============================================================================
 965:Drivers/STM32F4xx_HAL_Driver/Src/stm32f4xx_ll_fmc.c ****                        ##### FMC_NAND Control functions #####
 966:Drivers/STM32F4xx_HAL_Driver/Src/stm32f4xx_ll_fmc.c ****   ==============================================================================  
 967:Drivers/STM32F4xx_HAL_Driver/Src/stm32f4xx_ll_fmc.c ****   [..]
 968:Drivers/STM32F4xx_HAL_Driver/Src/stm32f4xx_ll_fmc.c ****     This subsection provides a set of functions allowing to control dynamically
 969:Drivers/STM32F4xx_HAL_Driver/Src/stm32f4xx_ll_fmc.c ****     the FMC NAND interface.
 970:Drivers/STM32F4xx_HAL_Driver/Src/stm32f4xx_ll_fmc.c **** 
 971:Drivers/STM32F4xx_HAL_Driver/Src/stm32f4xx_ll_fmc.c **** @endverbatim
 972:Drivers/STM32F4xx_HAL_Driver/Src/stm32f4xx_ll_fmc.c ****   * @{
 973:Drivers/STM32F4xx_HAL_Driver/Src/stm32f4xx_ll_fmc.c ****   */ 
 974:Drivers/STM32F4xx_HAL_Driver/Src/stm32f4xx_ll_fmc.c **** /**
 975:Drivers/STM32F4xx_HAL_Driver/Src/stm32f4xx_ll_fmc.c ****   * @brief  Enables dynamically FMC_NAND ECC feature.
 976:Drivers/STM32F4xx_HAL_Driver/Src/stm32f4xx_ll_fmc.c ****   * @param  Device Pointer to NAND device instance
 977:Drivers/STM32F4xx_HAL_Driver/Src/stm32f4xx_ll_fmc.c ****   * @param  Bank NAND bank number
 978:Drivers/STM32F4xx_HAL_Driver/Src/stm32f4xx_ll_fmc.c ****   * @retval HAL status
 979:Drivers/STM32F4xx_HAL_Driver/Src/stm32f4xx_ll_fmc.c ****   */    
 980:Drivers/STM32F4xx_HAL_Driver/Src/stm32f4xx_ll_fmc.c **** HAL_StatusTypeDef FMC_NAND_ECC_Enable(FMC_NAND_TypeDef *Device, uint32_t Bank)
 981:Drivers/STM32F4xx_HAL_Driver/Src/stm32f4xx_ll_fmc.c **** {
 983              		.loc 1 981 1 is_stmt 1 view -0
 984              		.cfi_startproc
 985              		@ args = 0, pretend = 0, frame = 0
 986              		@ frame_needed = 0, uses_anonymous_args = 0
 987              		@ link register save eliminated.
 982:Drivers/STM32F4xx_HAL_Driver/Src/stm32f4xx_ll_fmc.c ****   /* Check the parameters */ 
ARM GAS  C:\Users\zoosman\AppData\Local\Temp\ccuisvXz.s 			page 38


 983:Drivers/STM32F4xx_HAL_Driver/Src/stm32f4xx_ll_fmc.c ****   assert_param(IS_FMC_NAND_DEVICE(Device)); 
 988              		.loc 1 983 3 view .LVU353
 984:Drivers/STM32F4xx_HAL_Driver/Src/stm32f4xx_ll_fmc.c ****   assert_param(IS_FMC_NAND_BANK(Bank));
 989              		.loc 1 984 3 view .LVU354
 985:Drivers/STM32F4xx_HAL_Driver/Src/stm32f4xx_ll_fmc.c ****     
 986:Drivers/STM32F4xx_HAL_Driver/Src/stm32f4xx_ll_fmc.c ****   /* Enable ECC feature */
 987:Drivers/STM32F4xx_HAL_Driver/Src/stm32f4xx_ll_fmc.c ****   if(Bank == FMC_NAND_BANK2)
 990              		.loc 1 987 3 view .LVU355
 991              		.loc 1 987 5 is_stmt 0 view .LVU356
 992 0000 1029     		cmp	r1, #16
 993 0002 05D0     		beq	.L60
 988:Drivers/STM32F4xx_HAL_Driver/Src/stm32f4xx_ll_fmc.c ****   {
 989:Drivers/STM32F4xx_HAL_Driver/Src/stm32f4xx_ll_fmc.c ****     Device->PCR2 |= FMC_PCR2_ECCEN;
 990:Drivers/STM32F4xx_HAL_Driver/Src/stm32f4xx_ll_fmc.c ****   }
 991:Drivers/STM32F4xx_HAL_Driver/Src/stm32f4xx_ll_fmc.c ****   else
 992:Drivers/STM32F4xx_HAL_Driver/Src/stm32f4xx_ll_fmc.c ****   {
 993:Drivers/STM32F4xx_HAL_Driver/Src/stm32f4xx_ll_fmc.c ****     Device->PCR3 |= FMC_PCR3_ECCEN;
 994              		.loc 1 993 5 is_stmt 1 view .LVU357
 995              		.loc 1 993 18 is_stmt 0 view .LVU358
 996 0004 036A     		ldr	r3, [r0, #32]
 997 0006 43F04003 		orr	r3, r3, #64
 998 000a 0362     		str	r3, [r0, #32]
 994:Drivers/STM32F4xx_HAL_Driver/Src/stm32f4xx_ll_fmc.c ****   } 
 995:Drivers/STM32F4xx_HAL_Driver/Src/stm32f4xx_ll_fmc.c ****   
 996:Drivers/STM32F4xx_HAL_Driver/Src/stm32f4xx_ll_fmc.c ****   return HAL_OK;  
 999              		.loc 1 996 3 is_stmt 1 view .LVU359
 997:Drivers/STM32F4xx_HAL_Driver/Src/stm32f4xx_ll_fmc.c **** }
 1000              		.loc 1 997 1 is_stmt 0 view .LVU360
 1001 000c 0020     		movs	r0, #0
 1002              	.LVL67:
 1003              		.loc 1 997 1 view .LVU361
 1004 000e 7047     		bx	lr
 1005              	.LVL68:
 1006              	.L60:
 989:Drivers/STM32F4xx_HAL_Driver/Src/stm32f4xx_ll_fmc.c ****   }
 1007              		.loc 1 989 5 is_stmt 1 view .LVU362
 989:Drivers/STM32F4xx_HAL_Driver/Src/stm32f4xx_ll_fmc.c ****   }
 1008              		.loc 1 989 18 is_stmt 0 view .LVU363
 1009 0010 0368     		ldr	r3, [r0]
 1010 0012 43F04003 		orr	r3, r3, #64
 1011 0016 0360     		str	r3, [r0]
 996:Drivers/STM32F4xx_HAL_Driver/Src/stm32f4xx_ll_fmc.c **** }
 1012              		.loc 1 996 3 is_stmt 1 view .LVU364
 1013              		.loc 1 997 1 is_stmt 0 view .LVU365
 1014 0018 0020     		movs	r0, #0
 1015              	.LVL69:
 1016              		.loc 1 997 1 view .LVU366
 1017 001a 7047     		bx	lr
 1018              		.cfi_endproc
 1019              	.LFE140:
 1021              		.section	.text.FMC_NAND_ECC_Disable,"ax",%progbits
 1022              		.align	1
 1023              		.p2align 2,,3
 1024              		.global	FMC_NAND_ECC_Disable
 1025              		.syntax unified
 1026              		.thumb
 1027              		.thumb_func
ARM GAS  C:\Users\zoosman\AppData\Local\Temp\ccuisvXz.s 			page 39


 1028              		.fpu fpv4-sp-d16
 1030              	FMC_NAND_ECC_Disable:
 1031              	.LVL70:
 1032              	.LFB141:
 998:Drivers/STM32F4xx_HAL_Driver/Src/stm32f4xx_ll_fmc.c **** 
 999:Drivers/STM32F4xx_HAL_Driver/Src/stm32f4xx_ll_fmc.c **** /**
1000:Drivers/STM32F4xx_HAL_Driver/Src/stm32f4xx_ll_fmc.c ****   * @brief  Disables dynamically FMC_NAND ECC feature.
1001:Drivers/STM32F4xx_HAL_Driver/Src/stm32f4xx_ll_fmc.c ****   * @param  Device Pointer to NAND device instance
1002:Drivers/STM32F4xx_HAL_Driver/Src/stm32f4xx_ll_fmc.c ****   * @param  Bank NAND bank number
1003:Drivers/STM32F4xx_HAL_Driver/Src/stm32f4xx_ll_fmc.c ****   * @retval HAL status
1004:Drivers/STM32F4xx_HAL_Driver/Src/stm32f4xx_ll_fmc.c ****   */  
1005:Drivers/STM32F4xx_HAL_Driver/Src/stm32f4xx_ll_fmc.c **** HAL_StatusTypeDef FMC_NAND_ECC_Disable(FMC_NAND_TypeDef *Device, uint32_t Bank)  
1006:Drivers/STM32F4xx_HAL_Driver/Src/stm32f4xx_ll_fmc.c **** {  
 1033              		.loc 1 1006 1 is_stmt 1 view -0
 1034              		.cfi_startproc
 1035              		@ args = 0, pretend = 0, frame = 0
 1036              		@ frame_needed = 0, uses_anonymous_args = 0
 1037              		@ link register save eliminated.
1007:Drivers/STM32F4xx_HAL_Driver/Src/stm32f4xx_ll_fmc.c ****   /* Check the parameters */ 
1008:Drivers/STM32F4xx_HAL_Driver/Src/stm32f4xx_ll_fmc.c ****   assert_param(IS_FMC_NAND_DEVICE(Device)); 
 1038              		.loc 1 1008 3 view .LVU368
1009:Drivers/STM32F4xx_HAL_Driver/Src/stm32f4xx_ll_fmc.c ****   assert_param(IS_FMC_NAND_BANK(Bank));
 1039              		.loc 1 1009 3 view .LVU369
1010:Drivers/STM32F4xx_HAL_Driver/Src/stm32f4xx_ll_fmc.c ****     
1011:Drivers/STM32F4xx_HAL_Driver/Src/stm32f4xx_ll_fmc.c ****   /* Disable ECC feature */
1012:Drivers/STM32F4xx_HAL_Driver/Src/stm32f4xx_ll_fmc.c ****   if(Bank == FMC_NAND_BANK2)
 1040              		.loc 1 1012 3 view .LVU370
 1041              		.loc 1 1012 5 is_stmt 0 view .LVU371
 1042 0000 1029     		cmp	r1, #16
 1043 0002 05D0     		beq	.L64
1013:Drivers/STM32F4xx_HAL_Driver/Src/stm32f4xx_ll_fmc.c ****   {
1014:Drivers/STM32F4xx_HAL_Driver/Src/stm32f4xx_ll_fmc.c ****     Device->PCR2 &= ~FMC_PCR2_ECCEN;
1015:Drivers/STM32F4xx_HAL_Driver/Src/stm32f4xx_ll_fmc.c ****   }
1016:Drivers/STM32F4xx_HAL_Driver/Src/stm32f4xx_ll_fmc.c ****   else
1017:Drivers/STM32F4xx_HAL_Driver/Src/stm32f4xx_ll_fmc.c ****   {
1018:Drivers/STM32F4xx_HAL_Driver/Src/stm32f4xx_ll_fmc.c ****     Device->PCR3 &= ~FMC_PCR3_ECCEN;
 1044              		.loc 1 1018 5 is_stmt 1 view .LVU372
 1045              		.loc 1 1018 18 is_stmt 0 view .LVU373
 1046 0004 036A     		ldr	r3, [r0, #32]
 1047 0006 23F04003 		bic	r3, r3, #64
 1048 000a 0362     		str	r3, [r0, #32]
1019:Drivers/STM32F4xx_HAL_Driver/Src/stm32f4xx_ll_fmc.c ****   } 
1020:Drivers/STM32F4xx_HAL_Driver/Src/stm32f4xx_ll_fmc.c **** 
1021:Drivers/STM32F4xx_HAL_Driver/Src/stm32f4xx_ll_fmc.c ****   return HAL_OK;  
 1049              		.loc 1 1021 3 is_stmt 1 view .LVU374
1022:Drivers/STM32F4xx_HAL_Driver/Src/stm32f4xx_ll_fmc.c **** }
 1050              		.loc 1 1022 1 is_stmt 0 view .LVU375
 1051 000c 0020     		movs	r0, #0
 1052              	.LVL71:
 1053              		.loc 1 1022 1 view .LVU376
 1054 000e 7047     		bx	lr
 1055              	.LVL72:
 1056              	.L64:
1014:Drivers/STM32F4xx_HAL_Driver/Src/stm32f4xx_ll_fmc.c ****   }
 1057              		.loc 1 1014 5 is_stmt 1 view .LVU377
1014:Drivers/STM32F4xx_HAL_Driver/Src/stm32f4xx_ll_fmc.c ****   }
 1058              		.loc 1 1014 18 is_stmt 0 view .LVU378
ARM GAS  C:\Users\zoosman\AppData\Local\Temp\ccuisvXz.s 			page 40


 1059 0010 0368     		ldr	r3, [r0]
 1060 0012 23F04003 		bic	r3, r3, #64
 1061 0016 0360     		str	r3, [r0]
1021:Drivers/STM32F4xx_HAL_Driver/Src/stm32f4xx_ll_fmc.c **** }
 1062              		.loc 1 1021 3 is_stmt 1 view .LVU379
 1063              		.loc 1 1022 1 is_stmt 0 view .LVU380
 1064 0018 0020     		movs	r0, #0
 1065              	.LVL73:
 1066              		.loc 1 1022 1 view .LVU381
 1067 001a 7047     		bx	lr
 1068              		.cfi_endproc
 1069              	.LFE141:
 1071              		.section	.text.FMC_NAND_GetECC,"ax",%progbits
 1072              		.align	1
 1073              		.p2align 2,,3
 1074              		.global	FMC_NAND_GetECC
 1075              		.syntax unified
 1076              		.thumb
 1077              		.thumb_func
 1078              		.fpu fpv4-sp-d16
 1080              	FMC_NAND_GetECC:
 1081              	.LVL74:
 1082              	.LFB142:
1023:Drivers/STM32F4xx_HAL_Driver/Src/stm32f4xx_ll_fmc.c **** 
1024:Drivers/STM32F4xx_HAL_Driver/Src/stm32f4xx_ll_fmc.c **** /**
1025:Drivers/STM32F4xx_HAL_Driver/Src/stm32f4xx_ll_fmc.c ****   * @brief  Disables dynamically FMC_NAND ECC feature.
1026:Drivers/STM32F4xx_HAL_Driver/Src/stm32f4xx_ll_fmc.c ****   * @param  Device Pointer to NAND device instance
1027:Drivers/STM32F4xx_HAL_Driver/Src/stm32f4xx_ll_fmc.c ****   * @param  ECCval Pointer to ECC value
1028:Drivers/STM32F4xx_HAL_Driver/Src/stm32f4xx_ll_fmc.c ****   * @param  Bank NAND bank number
1029:Drivers/STM32F4xx_HAL_Driver/Src/stm32f4xx_ll_fmc.c ****   * @param  Timeout Timeout wait value  
1030:Drivers/STM32F4xx_HAL_Driver/Src/stm32f4xx_ll_fmc.c ****   * @retval HAL status
1031:Drivers/STM32F4xx_HAL_Driver/Src/stm32f4xx_ll_fmc.c ****   */
1032:Drivers/STM32F4xx_HAL_Driver/Src/stm32f4xx_ll_fmc.c **** HAL_StatusTypeDef FMC_NAND_GetECC(FMC_NAND_TypeDef *Device, uint32_t *ECCval, uint32_t Bank, uint32
1033:Drivers/STM32F4xx_HAL_Driver/Src/stm32f4xx_ll_fmc.c **** {
 1083              		.loc 1 1033 1 is_stmt 1 view -0
 1084              		.cfi_startproc
 1085              		@ args = 0, pretend = 0, frame = 0
 1086              		@ frame_needed = 0, uses_anonymous_args = 0
1034:Drivers/STM32F4xx_HAL_Driver/Src/stm32f4xx_ll_fmc.c ****   uint32_t tickstart = 0U;
 1087              		.loc 1 1034 3 view .LVU383
1035:Drivers/STM32F4xx_HAL_Driver/Src/stm32f4xx_ll_fmc.c **** 
1036:Drivers/STM32F4xx_HAL_Driver/Src/stm32f4xx_ll_fmc.c ****   /* Check the parameters */ 
1037:Drivers/STM32F4xx_HAL_Driver/Src/stm32f4xx_ll_fmc.c ****   assert_param(IS_FMC_NAND_DEVICE(Device)); 
 1088              		.loc 1 1037 3 view .LVU384
1038:Drivers/STM32F4xx_HAL_Driver/Src/stm32f4xx_ll_fmc.c ****   assert_param(IS_FMC_NAND_BANK(Bank));
 1089              		.loc 1 1038 3 view .LVU385
1039:Drivers/STM32F4xx_HAL_Driver/Src/stm32f4xx_ll_fmc.c **** 
1040:Drivers/STM32F4xx_HAL_Driver/Src/stm32f4xx_ll_fmc.c ****   /* Get tick */ 
1041:Drivers/STM32F4xx_HAL_Driver/Src/stm32f4xx_ll_fmc.c ****   tickstart = HAL_GetTick();
 1090              		.loc 1 1041 3 view .LVU386
1033:Drivers/STM32F4xx_HAL_Driver/Src/stm32f4xx_ll_fmc.c ****   uint32_t tickstart = 0U;
 1091              		.loc 1 1033 1 is_stmt 0 view .LVU387
 1092 0000 2DE9F843 		push	{r3, r4, r5, r6, r7, r8, r9, lr}
 1093              	.LCFI25:
 1094              		.cfi_def_cfa_offset 32
 1095              		.cfi_offset 3, -32
 1096              		.cfi_offset 4, -28
ARM GAS  C:\Users\zoosman\AppData\Local\Temp\ccuisvXz.s 			page 41


 1097              		.cfi_offset 5, -24
 1098              		.cfi_offset 6, -20
 1099              		.cfi_offset 7, -16
 1100              		.cfi_offset 8, -12
 1101              		.cfi_offset 9, -8
 1102              		.cfi_offset 14, -4
1033:Drivers/STM32F4xx_HAL_Driver/Src/stm32f4xx_ll_fmc.c ****   uint32_t tickstart = 0U;
 1103              		.loc 1 1033 1 view .LVU388
 1104 0004 0646     		mov	r6, r0
 1105 0006 0F46     		mov	r7, r1
 1106 0008 1546     		mov	r5, r2
 1107 000a 9846     		mov	r8, r3
 1108              		.loc 1 1041 15 view .LVU389
 1109 000c FFF7FEFF 		bl	HAL_GetTick
 1110              	.LVL75:
 1111              		.loc 1 1041 15 view .LVU390
 1112 0010 8146     		mov	r9, r0
 1113              	.LVL76:
1042:Drivers/STM32F4xx_HAL_Driver/Src/stm32f4xx_ll_fmc.c **** 
1043:Drivers/STM32F4xx_HAL_Driver/Src/stm32f4xx_ll_fmc.c ****   /* Wait until FIFO is empty */
1044:Drivers/STM32F4xx_HAL_Driver/Src/stm32f4xx_ll_fmc.c ****   while(__FMC_NAND_GET_FLAG(Device, Bank, FMC_FLAG_FEMPT) == RESET)
 1114              		.loc 1 1044 3 is_stmt 1 view .LVU391
 1115              		.loc 1 1044 8 is_stmt 0 view .LVU392
 1116 0012 02E0     		b	.L67
 1117              	.LVL77:
 1118              	.L73:
1045:Drivers/STM32F4xx_HAL_Driver/Src/stm32f4xx_ll_fmc.c ****   {
1046:Drivers/STM32F4xx_HAL_Driver/Src/stm32f4xx_ll_fmc.c ****     /* Check for the Timeout */
1047:Drivers/STM32F4xx_HAL_Driver/Src/stm32f4xx_ll_fmc.c ****     if(Timeout != HAL_MAX_DELAY)
 1119              		.loc 1 1047 7 view .LVU393
 1120 0014 B8F1FF3F 		cmp	r8, #-1
 1121 0018 11D1     		bne	.L78
 1122              	.L67:
1044:Drivers/STM32F4xx_HAL_Driver/Src/stm32f4xx_ll_fmc.c ****   {
 1123              		.loc 1 1044 8 is_stmt 1 view .LVU394
 1124              		.loc 1 1047 5 view .LVU395
1044:Drivers/STM32F4xx_HAL_Driver/Src/stm32f4xx_ll_fmc.c ****   {
 1125              		.loc 1 1044 59 is_stmt 0 view .LVU396
 1126 001a 102D     		cmp	r5, #16
1044:Drivers/STM32F4xx_HAL_Driver/Src/stm32f4xx_ll_fmc.c ****   {
 1127              		.loc 1 1044 9 view .LVU397
 1128 001c 0CBF     		ite	eq
 1129 001e 7468     		ldreq	r4, [r6, #4]
 1130 0020 746A     		ldrne	r4, [r6, #36]
1044:Drivers/STM32F4xx_HAL_Driver/Src/stm32f4xx_ll_fmc.c ****   {
 1131              		.loc 1 1044 59 view .LVU398
 1132 0022 84F04004 		eor	r4, r4, #64
 1133 0026 C4F38014 		ubfx	r4, r4, #6, #1
1044:Drivers/STM32F4xx_HAL_Driver/Src/stm32f4xx_ll_fmc.c ****   {
 1134              		.loc 1 1044 8 view .LVU399
 1135 002a 002C     		cmp	r4, #0
 1136 002c F2D1     		bne	.L73
1048:Drivers/STM32F4xx_HAL_Driver/Src/stm32f4xx_ll_fmc.c ****     {
1049:Drivers/STM32F4xx_HAL_Driver/Src/stm32f4xx_ll_fmc.c ****       if((Timeout == 0U)||((HAL_GetTick() - tickstart ) > Timeout))
1050:Drivers/STM32F4xx_HAL_Driver/Src/stm32f4xx_ll_fmc.c ****       {
1051:Drivers/STM32F4xx_HAL_Driver/Src/stm32f4xx_ll_fmc.c ****         return HAL_TIMEOUT;
1052:Drivers/STM32F4xx_HAL_Driver/Src/stm32f4xx_ll_fmc.c ****       }
ARM GAS  C:\Users\zoosman\AppData\Local\Temp\ccuisvXz.s 			page 42


1053:Drivers/STM32F4xx_HAL_Driver/Src/stm32f4xx_ll_fmc.c ****     }  
1054:Drivers/STM32F4xx_HAL_Driver/Src/stm32f4xx_ll_fmc.c ****   }
1055:Drivers/STM32F4xx_HAL_Driver/Src/stm32f4xx_ll_fmc.c ****      
1056:Drivers/STM32F4xx_HAL_Driver/Src/stm32f4xx_ll_fmc.c ****   if(Bank == FMC_NAND_BANK2)
 1137              		.loc 1 1056 3 is_stmt 1 view .LVU400
 1138              		.loc 1 1056 5 is_stmt 0 view .LVU401
 1139 002e 102D     		cmp	r5, #16
1057:Drivers/STM32F4xx_HAL_Driver/Src/stm32f4xx_ll_fmc.c ****   {    
1058:Drivers/STM32F4xx_HAL_Driver/Src/stm32f4xx_ll_fmc.c ****     /* Get the ECCR2 register value */
1059:Drivers/STM32F4xx_HAL_Driver/Src/stm32f4xx_ll_fmc.c ****     *ECCval = (uint32_t)Device->ECCR2;
 1140              		.loc 1 1059 5 is_stmt 1 view .LVU402
 1141              		.loc 1 1059 31 is_stmt 0 view .LVU403
 1142 0030 0CBF     		ite	eq
 1143 0032 7369     		ldreq	r3, [r6, #20]
1060:Drivers/STM32F4xx_HAL_Driver/Src/stm32f4xx_ll_fmc.c ****   }
1061:Drivers/STM32F4xx_HAL_Driver/Src/stm32f4xx_ll_fmc.c ****   else
1062:Drivers/STM32F4xx_HAL_Driver/Src/stm32f4xx_ll_fmc.c ****   {    
1063:Drivers/STM32F4xx_HAL_Driver/Src/stm32f4xx_ll_fmc.c ****     /* Get the ECCR3 register value */
1064:Drivers/STM32F4xx_HAL_Driver/Src/stm32f4xx_ll_fmc.c ****     *ECCval = (uint32_t)Device->ECCR3;
 1144              		.loc 1 1064 5 is_stmt 1 view .LVU404
 1145              		.loc 1 1064 31 is_stmt 0 view .LVU405
 1146 0034 736B     		ldrne	r3, [r6, #52]
 1147              		.loc 1 1064 13 view .LVU406
 1148 0036 3B60     		str	r3, [r7]
1065:Drivers/STM32F4xx_HAL_Driver/Src/stm32f4xx_ll_fmc.c ****   }
1066:Drivers/STM32F4xx_HAL_Driver/Src/stm32f4xx_ll_fmc.c **** 
1067:Drivers/STM32F4xx_HAL_Driver/Src/stm32f4xx_ll_fmc.c ****   return HAL_OK;  
 1149              		.loc 1 1067 10 view .LVU407
 1150 0038 2046     		mov	r0, r4
 1151              	.L69:
1068:Drivers/STM32F4xx_HAL_Driver/Src/stm32f4xx_ll_fmc.c **** }
 1152              		.loc 1 1068 1 view .LVU408
 1153 003a BDE8F883 		pop	{r3, r4, r5, r6, r7, r8, r9, pc}
 1154              	.LVL78:
 1155              	.L78:
1049:Drivers/STM32F4xx_HAL_Driver/Src/stm32f4xx_ll_fmc.c ****       {
 1156              		.loc 1 1049 7 is_stmt 1 view .LVU409
1049:Drivers/STM32F4xx_HAL_Driver/Src/stm32f4xx_ll_fmc.c ****       {
 1157              		.loc 1 1049 9 is_stmt 0 view .LVU410
 1158 003e B8F1000F 		cmp	r8, #0
 1159 0042 05D0     		beq	.L70
1049:Drivers/STM32F4xx_HAL_Driver/Src/stm32f4xx_ll_fmc.c ****       {
 1160              		.loc 1 1049 29 discriminator 1 view .LVU411
 1161 0044 FFF7FEFF 		bl	HAL_GetTick
 1162              	.LVL79:
1049:Drivers/STM32F4xx_HAL_Driver/Src/stm32f4xx_ll_fmc.c ****       {
 1163              		.loc 1 1049 43 discriminator 1 view .LVU412
 1164 0048 A0EB0900 		sub	r0, r0, r9
1049:Drivers/STM32F4xx_HAL_Driver/Src/stm32f4xx_ll_fmc.c ****       {
 1165              		.loc 1 1049 25 discriminator 1 view .LVU413
 1166 004c 4045     		cmp	r0, r8
 1167 004e E4D9     		bls	.L67
 1168              	.L70:
1051:Drivers/STM32F4xx_HAL_Driver/Src/stm32f4xx_ll_fmc.c ****       }
 1169              		.loc 1 1051 16 view .LVU414
 1170 0050 0320     		movs	r0, #3
 1171 0052 F2E7     		b	.L69
ARM GAS  C:\Users\zoosman\AppData\Local\Temp\ccuisvXz.s 			page 43


 1172              		.cfi_endproc
 1173              	.LFE142:
 1175              		.section	.text.FMC_PCCARD_Init,"ax",%progbits
 1176              		.align	1
 1177              		.p2align 2,,3
 1178              		.global	FMC_PCCARD_Init
 1179              		.syntax unified
 1180              		.thumb
 1181              		.thumb_func
 1182              		.fpu fpv4-sp-d16
 1184              	FMC_PCCARD_Init:
 1185              	.LVL80:
 1186              	.LFB143:
1069:Drivers/STM32F4xx_HAL_Driver/Src/stm32f4xx_ll_fmc.c **** 
1070:Drivers/STM32F4xx_HAL_Driver/Src/stm32f4xx_ll_fmc.c **** /**
1071:Drivers/STM32F4xx_HAL_Driver/Src/stm32f4xx_ll_fmc.c ****   * @}
1072:Drivers/STM32F4xx_HAL_Driver/Src/stm32f4xx_ll_fmc.c ****   */
1073:Drivers/STM32F4xx_HAL_Driver/Src/stm32f4xx_ll_fmc.c **** 
1074:Drivers/STM32F4xx_HAL_Driver/Src/stm32f4xx_ll_fmc.c **** #endif /* defined(STM32F446xx) || defined(STM32F469xx) || defined(STM32F479xx) */
1075:Drivers/STM32F4xx_HAL_Driver/Src/stm32f4xx_ll_fmc.c **** /**
1076:Drivers/STM32F4xx_HAL_Driver/Src/stm32f4xx_ll_fmc.c ****   * @}
1077:Drivers/STM32F4xx_HAL_Driver/Src/stm32f4xx_ll_fmc.c ****   */
1078:Drivers/STM32F4xx_HAL_Driver/Src/stm32f4xx_ll_fmc.c **** 
1079:Drivers/STM32F4xx_HAL_Driver/Src/stm32f4xx_ll_fmc.c **** #if defined(STM32F427xx) || defined(STM32F437xx) || defined(STM32F429xx) || defined(STM32F439xx)
1080:Drivers/STM32F4xx_HAL_Driver/Src/stm32f4xx_ll_fmc.c **** /** @addtogroup FMC_LL_PCCARD
1081:Drivers/STM32F4xx_HAL_Driver/Src/stm32f4xx_ll_fmc.c ****   * @brief    PCCARD Controller functions 
1082:Drivers/STM32F4xx_HAL_Driver/Src/stm32f4xx_ll_fmc.c ****   *
1083:Drivers/STM32F4xx_HAL_Driver/Src/stm32f4xx_ll_fmc.c ****   @verbatim 
1084:Drivers/STM32F4xx_HAL_Driver/Src/stm32f4xx_ll_fmc.c ****   ==============================================================================  
1085:Drivers/STM32F4xx_HAL_Driver/Src/stm32f4xx_ll_fmc.c ****                     ##### How to use PCCARD device driver #####
1086:Drivers/STM32F4xx_HAL_Driver/Src/stm32f4xx_ll_fmc.c ****   ==============================================================================
1087:Drivers/STM32F4xx_HAL_Driver/Src/stm32f4xx_ll_fmc.c ****   [..]
1088:Drivers/STM32F4xx_HAL_Driver/Src/stm32f4xx_ll_fmc.c ****     This driver contains a set of APIs to interface with the FMC PCCARD bank in order
1089:Drivers/STM32F4xx_HAL_Driver/Src/stm32f4xx_ll_fmc.c ****     to run the PCCARD/compact flash external devices.
1090:Drivers/STM32F4xx_HAL_Driver/Src/stm32f4xx_ll_fmc.c ****   
1091:Drivers/STM32F4xx_HAL_Driver/Src/stm32f4xx_ll_fmc.c ****     (+) FMC PCCARD bank reset using the function FMC_PCCARD_DeInit() 
1092:Drivers/STM32F4xx_HAL_Driver/Src/stm32f4xx_ll_fmc.c ****     (+) FMC PCCARD bank control configuration using the function FMC_PCCARD_Init()
1093:Drivers/STM32F4xx_HAL_Driver/Src/stm32f4xx_ll_fmc.c ****     (+) FMC PCCARD bank common space timing configuration using the function 
1094:Drivers/STM32F4xx_HAL_Driver/Src/stm32f4xx_ll_fmc.c ****         FMC_PCCARD_CommonSpace_Timing_Init()
1095:Drivers/STM32F4xx_HAL_Driver/Src/stm32f4xx_ll_fmc.c ****     (+) FMC PCCARD bank attribute space timing configuration using the function 
1096:Drivers/STM32F4xx_HAL_Driver/Src/stm32f4xx_ll_fmc.c ****         FMC_PCCARD_AttributeSpace_Timing_Init()
1097:Drivers/STM32F4xx_HAL_Driver/Src/stm32f4xx_ll_fmc.c ****     (+) FMC PCCARD bank IO space timing configuration using the function 
1098:Drivers/STM32F4xx_HAL_Driver/Src/stm32f4xx_ll_fmc.c ****         FMC_PCCARD_IOSpace_Timing_Init()
1099:Drivers/STM32F4xx_HAL_Driver/Src/stm32f4xx_ll_fmc.c **** @endverbatim
1100:Drivers/STM32F4xx_HAL_Driver/Src/stm32f4xx_ll_fmc.c ****   * @{
1101:Drivers/STM32F4xx_HAL_Driver/Src/stm32f4xx_ll_fmc.c ****   */
1102:Drivers/STM32F4xx_HAL_Driver/Src/stm32f4xx_ll_fmc.c ****   
1103:Drivers/STM32F4xx_HAL_Driver/Src/stm32f4xx_ll_fmc.c **** /** @addtogroup FMC_LL_PCCARD_Private_Functions_Group1
1104:Drivers/STM32F4xx_HAL_Driver/Src/stm32f4xx_ll_fmc.c ****   *  @brief    Initialization and Configuration functions 
1105:Drivers/STM32F4xx_HAL_Driver/Src/stm32f4xx_ll_fmc.c ****   *
1106:Drivers/STM32F4xx_HAL_Driver/Src/stm32f4xx_ll_fmc.c **** @verbatim    
1107:Drivers/STM32F4xx_HAL_Driver/Src/stm32f4xx_ll_fmc.c ****   ==============================================================================
1108:Drivers/STM32F4xx_HAL_Driver/Src/stm32f4xx_ll_fmc.c ****               ##### Initialization and de_initialization functions #####
1109:Drivers/STM32F4xx_HAL_Driver/Src/stm32f4xx_ll_fmc.c ****   ==============================================================================
1110:Drivers/STM32F4xx_HAL_Driver/Src/stm32f4xx_ll_fmc.c ****   [..]  
1111:Drivers/STM32F4xx_HAL_Driver/Src/stm32f4xx_ll_fmc.c ****     This section provides functions allowing to:
1112:Drivers/STM32F4xx_HAL_Driver/Src/stm32f4xx_ll_fmc.c ****     (+) Initialize and configure the FMC PCCARD interface
ARM GAS  C:\Users\zoosman\AppData\Local\Temp\ccuisvXz.s 			page 44


1113:Drivers/STM32F4xx_HAL_Driver/Src/stm32f4xx_ll_fmc.c ****     (+) De-initialize the FMC PCCARD interface 
1114:Drivers/STM32F4xx_HAL_Driver/Src/stm32f4xx_ll_fmc.c ****     (+) Configure the FMC clock and associated GPIOs
1115:Drivers/STM32F4xx_HAL_Driver/Src/stm32f4xx_ll_fmc.c ****         
1116:Drivers/STM32F4xx_HAL_Driver/Src/stm32f4xx_ll_fmc.c **** @endverbatim
1117:Drivers/STM32F4xx_HAL_Driver/Src/stm32f4xx_ll_fmc.c ****   * @{
1118:Drivers/STM32F4xx_HAL_Driver/Src/stm32f4xx_ll_fmc.c ****   */
1119:Drivers/STM32F4xx_HAL_Driver/Src/stm32f4xx_ll_fmc.c ****   
1120:Drivers/STM32F4xx_HAL_Driver/Src/stm32f4xx_ll_fmc.c **** /**
1121:Drivers/STM32F4xx_HAL_Driver/Src/stm32f4xx_ll_fmc.c ****   * @brief  Initializes the FMC_PCCARD device according to the specified
1122:Drivers/STM32F4xx_HAL_Driver/Src/stm32f4xx_ll_fmc.c ****   *         control parameters in the FMC_PCCARD_HandleTypeDef
1123:Drivers/STM32F4xx_HAL_Driver/Src/stm32f4xx_ll_fmc.c ****   * @param  Device Pointer to PCCARD device instance
1124:Drivers/STM32F4xx_HAL_Driver/Src/stm32f4xx_ll_fmc.c ****   * @param  Init Pointer to PCCARD Initialization structure   
1125:Drivers/STM32F4xx_HAL_Driver/Src/stm32f4xx_ll_fmc.c ****   * @retval HAL status
1126:Drivers/STM32F4xx_HAL_Driver/Src/stm32f4xx_ll_fmc.c ****   */
1127:Drivers/STM32F4xx_HAL_Driver/Src/stm32f4xx_ll_fmc.c **** HAL_StatusTypeDef FMC_PCCARD_Init(FMC_PCCARD_TypeDef *Device, FMC_PCCARD_InitTypeDef *Init)
1128:Drivers/STM32F4xx_HAL_Driver/Src/stm32f4xx_ll_fmc.c **** {
 1187              		.loc 1 1128 1 is_stmt 1 view -0
 1188              		.cfi_startproc
 1189              		@ args = 0, pretend = 0, frame = 0
 1190              		@ frame_needed = 0, uses_anonymous_args = 0
 1191              		@ link register save eliminated.
1129:Drivers/STM32F4xx_HAL_Driver/Src/stm32f4xx_ll_fmc.c ****   uint32_t tmpr = 0U;
 1192              		.loc 1 1129 3 view .LVU416
1130:Drivers/STM32F4xx_HAL_Driver/Src/stm32f4xx_ll_fmc.c **** 
1131:Drivers/STM32F4xx_HAL_Driver/Src/stm32f4xx_ll_fmc.c ****   /* Check the parameters */ 
1132:Drivers/STM32F4xx_HAL_Driver/Src/stm32f4xx_ll_fmc.c ****   assert_param(IS_FMC_PCCARD_DEVICE(Device));
 1193              		.loc 1 1132 3 view .LVU417
1133:Drivers/STM32F4xx_HAL_Driver/Src/stm32f4xx_ll_fmc.c ****   assert_param(IS_FMC_WAIT_FEATURE(Init->Waitfeature));
 1194              		.loc 1 1133 3 view .LVU418
1134:Drivers/STM32F4xx_HAL_Driver/Src/stm32f4xx_ll_fmc.c ****   assert_param(IS_FMC_TCLR_TIME(Init->TCLRSetupTime));
 1195              		.loc 1 1134 3 view .LVU419
1135:Drivers/STM32F4xx_HAL_Driver/Src/stm32f4xx_ll_fmc.c ****   assert_param(IS_FMC_TAR_TIME(Init->TARSetupTime));     
 1196              		.loc 1 1135 3 view .LVU420
1136:Drivers/STM32F4xx_HAL_Driver/Src/stm32f4xx_ll_fmc.c ****   
1137:Drivers/STM32F4xx_HAL_Driver/Src/stm32f4xx_ll_fmc.c ****   /* Get PCCARD control register value */
1138:Drivers/STM32F4xx_HAL_Driver/Src/stm32f4xx_ll_fmc.c ****   tmpr = Device->PCR4;
 1197              		.loc 1 1138 3 view .LVU421
 1198              		.loc 1 1138 8 is_stmt 0 view .LVU422
 1199 0000 0368     		ldr	r3, [r0]
 1200              	.LVL81:
1139:Drivers/STM32F4xx_HAL_Driver/Src/stm32f4xx_ll_fmc.c ****   
1140:Drivers/STM32F4xx_HAL_Driver/Src/stm32f4xx_ll_fmc.c ****   /* Clear TAR, TCLR, PWAITEN and PWID bits */
1141:Drivers/STM32F4xx_HAL_Driver/Src/stm32f4xx_ll_fmc.c ****   tmpr &= ((uint32_t)~(FMC_PCR4_TAR  | FMC_PCR4_TCLR | FMC_PCR4_PWAITEN | \
 1201              		.loc 1 1141 3 is_stmt 1 view .LVU423
1142:Drivers/STM32F4xx_HAL_Driver/Src/stm32f4xx_ll_fmc.c ****                        FMC_PCR4_PWID | FMC_PCR4_PTYP));
1143:Drivers/STM32F4xx_HAL_Driver/Src/stm32f4xx_ll_fmc.c ****   
1144:Drivers/STM32F4xx_HAL_Driver/Src/stm32f4xx_ll_fmc.c ****   /* Set FMC_PCCARD device control parameters */
1145:Drivers/STM32F4xx_HAL_Driver/Src/stm32f4xx_ll_fmc.c ****   tmpr |= (uint32_t)(Init->Waitfeature              |\
 1202              		.loc 1 1145 3 view .LVU424
1128:Drivers/STM32F4xx_HAL_Driver/Src/stm32f4xx_ll_fmc.c ****   uint32_t tmpr = 0U;
 1203              		.loc 1 1128 1 is_stmt 0 view .LVU425
 1204 0002 30B4     		push	{r4, r5}
 1205              	.LCFI26:
 1206              		.cfi_def_cfa_offset 8
 1207              		.cfi_offset 4, -8
 1208              		.cfi_offset 5, -4
1146:Drivers/STM32F4xx_HAL_Driver/Src/stm32f4xx_ll_fmc.c ****                      FMC_NAND_PCC_MEM_BUS_WIDTH_16  |\
ARM GAS  C:\Users\zoosman\AppData\Local\Temp\ccuisvXz.s 			page 45


1147:Drivers/STM32F4xx_HAL_Driver/Src/stm32f4xx_ll_fmc.c ****                     (Init->TCLRSetupTime << 9U)     |\
 1209              		.loc 1 1147 42 view .LVU426
 1210 0004 D1E90054 		ldrd	r5, r4, [r1]
1141:Drivers/STM32F4xx_HAL_Driver/Src/stm32f4xx_ll_fmc.c ****                        FMC_PCR4_PWID | FMC_PCR4_PTYP));
 1211              		.loc 1 1141 8 view .LVU427
 1212 0008 23F4FF33 		bic	r3, r3, #130560
 1213              	.LVL82:
1141:Drivers/STM32F4xx_HAL_Driver/Src/stm32f4xx_ll_fmc.c ****                        FMC_PCR4_PWID | FMC_PCR4_PTYP));
 1214              		.loc 1 1141 8 view .LVU428
 1215 000c 23F03A03 		bic	r3, r3, #58
1148:Drivers/STM32F4xx_HAL_Driver/Src/stm32f4xx_ll_fmc.c ****                     (Init->TARSetupTime << 13U));
 1216              		.loc 1 1148 41 view .LVU429
 1217 0010 8968     		ldr	r1, [r1, #8]
 1218              	.LVL83:
1145:Drivers/STM32F4xx_HAL_Driver/Src/stm32f4xx_ll_fmc.c ****                      FMC_NAND_PCC_MEM_BUS_WIDTH_16  |\
 1219              		.loc 1 1145 8 view .LVU430
 1220 0012 2B43     		orrs	r3, r3, r5
 1221 0014 43EA4423 		orr	r3, r3, r4, lsl #9
 1222 0018 43EA4133 		orr	r3, r3, r1, lsl #13
 1223 001c 43F01003 		orr	r3, r3, #16
 1224              	.LVL84:
1149:Drivers/STM32F4xx_HAL_Driver/Src/stm32f4xx_ll_fmc.c ****   
1150:Drivers/STM32F4xx_HAL_Driver/Src/stm32f4xx_ll_fmc.c ****   Device->PCR4 = tmpr;
 1225              		.loc 1 1150 3 is_stmt 1 view .LVU431
 1226              		.loc 1 1150 16 is_stmt 0 view .LVU432
 1227 0020 0360     		str	r3, [r0]
1151:Drivers/STM32F4xx_HAL_Driver/Src/stm32f4xx_ll_fmc.c ****   
1152:Drivers/STM32F4xx_HAL_Driver/Src/stm32f4xx_ll_fmc.c ****   return HAL_OK;
 1228              		.loc 1 1152 3 is_stmt 1 view .LVU433
1153:Drivers/STM32F4xx_HAL_Driver/Src/stm32f4xx_ll_fmc.c **** }
 1229              		.loc 1 1153 1 is_stmt 0 view .LVU434
 1230 0022 30BC     		pop	{r4, r5}
 1231              	.LCFI27:
 1232              		.cfi_restore 5
 1233              		.cfi_restore 4
 1234              		.cfi_def_cfa_offset 0
 1235 0024 0020     		movs	r0, #0
 1236              	.LVL85:
 1237              		.loc 1 1153 1 view .LVU435
 1238 0026 7047     		bx	lr
 1239              		.cfi_endproc
 1240              	.LFE143:
 1242              		.section	.text.FMC_PCCARD_CommonSpace_Timing_Init,"ax",%progbits
 1243              		.align	1
 1244              		.p2align 2,,3
 1245              		.global	FMC_PCCARD_CommonSpace_Timing_Init
 1246              		.syntax unified
 1247              		.thumb
 1248              		.thumb_func
 1249              		.fpu fpv4-sp-d16
 1251              	FMC_PCCARD_CommonSpace_Timing_Init:
 1252              	.LVL86:
 1253              	.LFB144:
1154:Drivers/STM32F4xx_HAL_Driver/Src/stm32f4xx_ll_fmc.c **** 
1155:Drivers/STM32F4xx_HAL_Driver/Src/stm32f4xx_ll_fmc.c **** /**
1156:Drivers/STM32F4xx_HAL_Driver/Src/stm32f4xx_ll_fmc.c ****   * @brief  Initializes the FMC_PCCARD Common space Timing according to the specified
1157:Drivers/STM32F4xx_HAL_Driver/Src/stm32f4xx_ll_fmc.c ****   *         parameters in the FMC_NAND_PCC_TimingTypeDef
ARM GAS  C:\Users\zoosman\AppData\Local\Temp\ccuisvXz.s 			page 46


1158:Drivers/STM32F4xx_HAL_Driver/Src/stm32f4xx_ll_fmc.c ****   * @param  Device Pointer to PCCARD device instance
1159:Drivers/STM32F4xx_HAL_Driver/Src/stm32f4xx_ll_fmc.c ****   * @param  Timing Pointer to PCCARD timing structure 
1160:Drivers/STM32F4xx_HAL_Driver/Src/stm32f4xx_ll_fmc.c ****   * @retval HAL status
1161:Drivers/STM32F4xx_HAL_Driver/Src/stm32f4xx_ll_fmc.c ****   */
1162:Drivers/STM32F4xx_HAL_Driver/Src/stm32f4xx_ll_fmc.c **** HAL_StatusTypeDef FMC_PCCARD_CommonSpace_Timing_Init(FMC_PCCARD_TypeDef *Device, FMC_NAND_PCC_Timin
1163:Drivers/STM32F4xx_HAL_Driver/Src/stm32f4xx_ll_fmc.c **** {
 1254              		.loc 1 1163 1 is_stmt 1 view -0
 1255              		.cfi_startproc
 1256              		@ args = 0, pretend = 0, frame = 0
 1257              		@ frame_needed = 0, uses_anonymous_args = 0
 1258              		@ link register save eliminated.
1164:Drivers/STM32F4xx_HAL_Driver/Src/stm32f4xx_ll_fmc.c ****   uint32_t tmpr = 0U;
 1259              		.loc 1 1164 3 view .LVU437
1165:Drivers/STM32F4xx_HAL_Driver/Src/stm32f4xx_ll_fmc.c ****   
1166:Drivers/STM32F4xx_HAL_Driver/Src/stm32f4xx_ll_fmc.c ****   /* Check the parameters */
1167:Drivers/STM32F4xx_HAL_Driver/Src/stm32f4xx_ll_fmc.c ****   assert_param(IS_FMC_PCCARD_DEVICE(Device));
 1260              		.loc 1 1167 3 view .LVU438
1168:Drivers/STM32F4xx_HAL_Driver/Src/stm32f4xx_ll_fmc.c ****   assert_param(IS_FMC_SETUP_TIME(Timing->SetupTime));
 1261              		.loc 1 1168 3 view .LVU439
1169:Drivers/STM32F4xx_HAL_Driver/Src/stm32f4xx_ll_fmc.c ****   assert_param(IS_FMC_WAIT_TIME(Timing->WaitSetupTime));
 1262              		.loc 1 1169 3 view .LVU440
1170:Drivers/STM32F4xx_HAL_Driver/Src/stm32f4xx_ll_fmc.c ****   assert_param(IS_FMC_HOLD_TIME(Timing->HoldSetupTime));
 1263              		.loc 1 1170 3 view .LVU441
1171:Drivers/STM32F4xx_HAL_Driver/Src/stm32f4xx_ll_fmc.c ****   assert_param(IS_FMC_HIZ_TIME(Timing->HiZSetupTime));
 1264              		.loc 1 1171 3 view .LVU442
1172:Drivers/STM32F4xx_HAL_Driver/Src/stm32f4xx_ll_fmc.c **** 
1173:Drivers/STM32F4xx_HAL_Driver/Src/stm32f4xx_ll_fmc.c ****   /* Get PCCARD common space timing register value */
1174:Drivers/STM32F4xx_HAL_Driver/Src/stm32f4xx_ll_fmc.c ****   tmpr = Device->PMEM4;
 1265              		.loc 1 1174 3 view .LVU443
1163:Drivers/STM32F4xx_HAL_Driver/Src/stm32f4xx_ll_fmc.c ****   uint32_t tmpr = 0U;
 1266              		.loc 1 1163 1 is_stmt 0 view .LVU444
 1267 0000 30B4     		push	{r4, r5}
 1268              	.LCFI28:
 1269              		.cfi_def_cfa_offset 8
 1270              		.cfi_offset 4, -8
 1271              		.cfi_offset 5, -4
1175:Drivers/STM32F4xx_HAL_Driver/Src/stm32f4xx_ll_fmc.c ****   
1176:Drivers/STM32F4xx_HAL_Driver/Src/stm32f4xx_ll_fmc.c ****   /* Clear MEMSETx, MEMWAITx, MEMHOLDx and MEMHIZx bits */
1177:Drivers/STM32F4xx_HAL_Driver/Src/stm32f4xx_ll_fmc.c ****   tmpr &= ((uint32_t)~(FMC_PMEM4_MEMSET4  | FMC_PMEM4_MEMWAIT4 | FMC_PMEM4_MEMHOLD4 | \
1178:Drivers/STM32F4xx_HAL_Driver/Src/stm32f4xx_ll_fmc.c ****                        FMC_PMEM4_MEMHIZ4)); 
1179:Drivers/STM32F4xx_HAL_Driver/Src/stm32f4xx_ll_fmc.c ****   /* Set PCCARD timing parameters */
1180:Drivers/STM32F4xx_HAL_Driver/Src/stm32f4xx_ll_fmc.c ****   tmpr |= (uint32_t)(Timing->SetupTime                  |\
1181:Drivers/STM32F4xx_HAL_Driver/Src/stm32f4xx_ll_fmc.c ****                     ((Timing->WaitSetupTime) << 8U)     |\
 1272              		.loc 1 1181 46 view .LVU445
 1273 0002 D1E90153 		ldrd	r5, r3, [r1, #4]
 1274              		.loc 1 1181 57 view .LVU446
 1275 0006 0C68     		ldr	r4, [r1]
1182:Drivers/STM32F4xx_HAL_Driver/Src/stm32f4xx_ll_fmc.c ****                     ((Timing->HoldSetupTime) << 16U)    |\
1183:Drivers/STM32F4xx_HAL_Driver/Src/stm32f4xx_ll_fmc.c ****                     ((Timing->HiZSetupTime) << 24U)); 
 1276              		.loc 1 1183 45 view .LVU447
 1277 0008 CA68     		ldr	r2, [r1, #12]
1182:Drivers/STM32F4xx_HAL_Driver/Src/stm32f4xx_ll_fmc.c ****                     ((Timing->HoldSetupTime) << 16U)    |\
 1278              		.loc 1 1182 46 view .LVU448
 1279 000a 1B04     		lsls	r3, r3, #16
1181:Drivers/STM32F4xx_HAL_Driver/Src/stm32f4xx_ll_fmc.c ****                     ((Timing->HoldSetupTime) << 16U)    |\
 1280              		.loc 1 1181 57 view .LVU449
 1281 000c 43EA0523 		orr	r3, r3, r5, lsl #8
ARM GAS  C:\Users\zoosman\AppData\Local\Temp\ccuisvXz.s 			page 47


 1282 0010 2343     		orrs	r3, r3, r4
1182:Drivers/STM32F4xx_HAL_Driver/Src/stm32f4xx_ll_fmc.c ****                     ((Timing->HoldSetupTime) << 16U)    |\
 1283              		.loc 1 1182 57 view .LVU450
 1284 0012 43EA0263 		orr	r3, r3, r2, lsl #24
1184:Drivers/STM32F4xx_HAL_Driver/Src/stm32f4xx_ll_fmc.c **** 
1185:Drivers/STM32F4xx_HAL_Driver/Src/stm32f4xx_ll_fmc.c ****   Device->PMEM4 = tmpr;
1186:Drivers/STM32F4xx_HAL_Driver/Src/stm32f4xx_ll_fmc.c ****   
1187:Drivers/STM32F4xx_HAL_Driver/Src/stm32f4xx_ll_fmc.c ****   return HAL_OK;  
1188:Drivers/STM32F4xx_HAL_Driver/Src/stm32f4xx_ll_fmc.c **** }
 1285              		.loc 1 1188 1 view .LVU451
 1286 0016 30BC     		pop	{r4, r5}
 1287              	.LCFI29:
 1288              		.cfi_restore 5
 1289              		.cfi_restore 4
 1290              		.cfi_def_cfa_offset 0
1174:Drivers/STM32F4xx_HAL_Driver/Src/stm32f4xx_ll_fmc.c ****   
 1291              		.loc 1 1174 8 view .LVU452
 1292 0018 8268     		ldr	r2, [r0, #8]
 1293              	.LVL87:
1177:Drivers/STM32F4xx_HAL_Driver/Src/stm32f4xx_ll_fmc.c ****                        FMC_PMEM4_MEMHIZ4)); 
 1294              		.loc 1 1177 3 is_stmt 1 view .LVU453
1180:Drivers/STM32F4xx_HAL_Driver/Src/stm32f4xx_ll_fmc.c ****                     ((Timing->WaitSetupTime) << 8U)     |\
 1295              		.loc 1 1180 3 view .LVU454
1185:Drivers/STM32F4xx_HAL_Driver/Src/stm32f4xx_ll_fmc.c ****   
 1296              		.loc 1 1185 3 view .LVU455
1185:Drivers/STM32F4xx_HAL_Driver/Src/stm32f4xx_ll_fmc.c ****   
 1297              		.loc 1 1185 17 is_stmt 0 view .LVU456
 1298 001a 8360     		str	r3, [r0, #8]
1187:Drivers/STM32F4xx_HAL_Driver/Src/stm32f4xx_ll_fmc.c **** }
 1299              		.loc 1 1187 3 is_stmt 1 view .LVU457
 1300              		.loc 1 1188 1 is_stmt 0 view .LVU458
 1301 001c 0020     		movs	r0, #0
 1302              	.LVL88:
 1303              		.loc 1 1188 1 view .LVU459
 1304 001e 7047     		bx	lr
 1305              		.cfi_endproc
 1306              	.LFE144:
 1308              		.section	.text.FMC_PCCARD_AttributeSpace_Timing_Init,"ax",%progbits
 1309              		.align	1
 1310              		.p2align 2,,3
 1311              		.global	FMC_PCCARD_AttributeSpace_Timing_Init
 1312              		.syntax unified
 1313              		.thumb
 1314              		.thumb_func
 1315              		.fpu fpv4-sp-d16
 1317              	FMC_PCCARD_AttributeSpace_Timing_Init:
 1318              	.LVL89:
 1319              	.LFB145:
1189:Drivers/STM32F4xx_HAL_Driver/Src/stm32f4xx_ll_fmc.c **** 
1190:Drivers/STM32F4xx_HAL_Driver/Src/stm32f4xx_ll_fmc.c **** /**
1191:Drivers/STM32F4xx_HAL_Driver/Src/stm32f4xx_ll_fmc.c ****   * @brief  Initializes the FMC_PCCARD Attribute space Timing according to the specified
1192:Drivers/STM32F4xx_HAL_Driver/Src/stm32f4xx_ll_fmc.c ****   *         parameters in the FMC_NAND_PCC_TimingTypeDef
1193:Drivers/STM32F4xx_HAL_Driver/Src/stm32f4xx_ll_fmc.c ****   * @param  Device Pointer to PCCARD device instance
1194:Drivers/STM32F4xx_HAL_Driver/Src/stm32f4xx_ll_fmc.c ****   * @param  Timing Pointer to PCCARD timing structure  
1195:Drivers/STM32F4xx_HAL_Driver/Src/stm32f4xx_ll_fmc.c ****   * @retval HAL status
1196:Drivers/STM32F4xx_HAL_Driver/Src/stm32f4xx_ll_fmc.c ****   */
1197:Drivers/STM32F4xx_HAL_Driver/Src/stm32f4xx_ll_fmc.c **** HAL_StatusTypeDef FMC_PCCARD_AttributeSpace_Timing_Init(FMC_PCCARD_TypeDef *Device, FMC_NAND_PCC_Ti
ARM GAS  C:\Users\zoosman\AppData\Local\Temp\ccuisvXz.s 			page 48


1198:Drivers/STM32F4xx_HAL_Driver/Src/stm32f4xx_ll_fmc.c **** {
 1320              		.loc 1 1198 1 is_stmt 1 view -0
 1321              		.cfi_startproc
 1322              		@ args = 0, pretend = 0, frame = 0
 1323              		@ frame_needed = 0, uses_anonymous_args = 0
 1324              		@ link register save eliminated.
1199:Drivers/STM32F4xx_HAL_Driver/Src/stm32f4xx_ll_fmc.c ****   uint32_t tmpr = 0U;
 1325              		.loc 1 1199 3 view .LVU461
1200:Drivers/STM32F4xx_HAL_Driver/Src/stm32f4xx_ll_fmc.c ****   
1201:Drivers/STM32F4xx_HAL_Driver/Src/stm32f4xx_ll_fmc.c ****   /* Check the parameters */ 
1202:Drivers/STM32F4xx_HAL_Driver/Src/stm32f4xx_ll_fmc.c ****   assert_param(IS_FMC_PCCARD_DEVICE(Device)); 
 1326              		.loc 1 1202 3 view .LVU462
1203:Drivers/STM32F4xx_HAL_Driver/Src/stm32f4xx_ll_fmc.c ****   assert_param(IS_FMC_SETUP_TIME(Timing->SetupTime));
 1327              		.loc 1 1203 3 view .LVU463
1204:Drivers/STM32F4xx_HAL_Driver/Src/stm32f4xx_ll_fmc.c ****   assert_param(IS_FMC_WAIT_TIME(Timing->WaitSetupTime));
 1328              		.loc 1 1204 3 view .LVU464
1205:Drivers/STM32F4xx_HAL_Driver/Src/stm32f4xx_ll_fmc.c ****   assert_param(IS_FMC_HOLD_TIME(Timing->HoldSetupTime));
 1329              		.loc 1 1205 3 view .LVU465
1206:Drivers/STM32F4xx_HAL_Driver/Src/stm32f4xx_ll_fmc.c ****   assert_param(IS_FMC_HIZ_TIME(Timing->HiZSetupTime));
 1330              		.loc 1 1206 3 view .LVU466
1207:Drivers/STM32F4xx_HAL_Driver/Src/stm32f4xx_ll_fmc.c **** 
1208:Drivers/STM32F4xx_HAL_Driver/Src/stm32f4xx_ll_fmc.c ****   /* Get PCCARD timing parameters */
1209:Drivers/STM32F4xx_HAL_Driver/Src/stm32f4xx_ll_fmc.c ****   tmpr = Device->PATT4;
 1331              		.loc 1 1209 3 view .LVU467
1198:Drivers/STM32F4xx_HAL_Driver/Src/stm32f4xx_ll_fmc.c ****   uint32_t tmpr = 0U;
 1332              		.loc 1 1198 1 is_stmt 0 view .LVU468
 1333 0000 30B4     		push	{r4, r5}
 1334              	.LCFI30:
 1335              		.cfi_def_cfa_offset 8
 1336              		.cfi_offset 4, -8
 1337              		.cfi_offset 5, -4
1210:Drivers/STM32F4xx_HAL_Driver/Src/stm32f4xx_ll_fmc.c **** 
1211:Drivers/STM32F4xx_HAL_Driver/Src/stm32f4xx_ll_fmc.c ****   /* Clear ATTSETx, ATTWAITx, ATTHOLDx and ATTHIZx bits */
1212:Drivers/STM32F4xx_HAL_Driver/Src/stm32f4xx_ll_fmc.c ****   tmpr &= ((uint32_t)~(FMC_PATT4_ATTSET4  | FMC_PATT4_ATTWAIT4 | FMC_PATT4_ATTHOLD4 | \
1213:Drivers/STM32F4xx_HAL_Driver/Src/stm32f4xx_ll_fmc.c ****                        FMC_PATT4_ATTHIZ4));
1214:Drivers/STM32F4xx_HAL_Driver/Src/stm32f4xx_ll_fmc.c ****   
1215:Drivers/STM32F4xx_HAL_Driver/Src/stm32f4xx_ll_fmc.c ****   /* Set PCCARD timing parameters */
1216:Drivers/STM32F4xx_HAL_Driver/Src/stm32f4xx_ll_fmc.c ****   tmpr |= (uint32_t)(Timing->SetupTime                 |\
1217:Drivers/STM32F4xx_HAL_Driver/Src/stm32f4xx_ll_fmc.c ****                    ((Timing->WaitSetupTime) << 8U)     |\
 1338              		.loc 1 1217 45 view .LVU469
 1339 0002 D1E90153 		ldrd	r5, r3, [r1, #4]
 1340              		.loc 1 1217 56 view .LVU470
 1341 0006 0C68     		ldr	r4, [r1]
1218:Drivers/STM32F4xx_HAL_Driver/Src/stm32f4xx_ll_fmc.c ****                    ((Timing->HoldSetupTime) << 16U)    |\
1219:Drivers/STM32F4xx_HAL_Driver/Src/stm32f4xx_ll_fmc.c ****                    ((Timing->HiZSetupTime) << 24U));
 1342              		.loc 1 1219 44 view .LVU471
 1343 0008 CA68     		ldr	r2, [r1, #12]
1218:Drivers/STM32F4xx_HAL_Driver/Src/stm32f4xx_ll_fmc.c ****                    ((Timing->HoldSetupTime) << 16U)    |\
 1344              		.loc 1 1218 45 view .LVU472
 1345 000a 1B04     		lsls	r3, r3, #16
1217:Drivers/STM32F4xx_HAL_Driver/Src/stm32f4xx_ll_fmc.c ****                    ((Timing->HoldSetupTime) << 16U)    |\
 1346              		.loc 1 1217 56 view .LVU473
 1347 000c 43EA0523 		orr	r3, r3, r5, lsl #8
 1348 0010 2343     		orrs	r3, r3, r4
1218:Drivers/STM32F4xx_HAL_Driver/Src/stm32f4xx_ll_fmc.c ****                    ((Timing->HoldSetupTime) << 16U)    |\
 1349              		.loc 1 1218 56 view .LVU474
 1350 0012 43EA0263 		orr	r3, r3, r2, lsl #24
ARM GAS  C:\Users\zoosman\AppData\Local\Temp\ccuisvXz.s 			page 49


1220:Drivers/STM32F4xx_HAL_Driver/Src/stm32f4xx_ll_fmc.c ****   Device->PATT4 = tmpr;
1221:Drivers/STM32F4xx_HAL_Driver/Src/stm32f4xx_ll_fmc.c **** 
1222:Drivers/STM32F4xx_HAL_Driver/Src/stm32f4xx_ll_fmc.c ****   return HAL_OK;
1223:Drivers/STM32F4xx_HAL_Driver/Src/stm32f4xx_ll_fmc.c **** }
 1351              		.loc 1 1223 1 view .LVU475
 1352 0016 30BC     		pop	{r4, r5}
 1353              	.LCFI31:
 1354              		.cfi_restore 5
 1355              		.cfi_restore 4
 1356              		.cfi_def_cfa_offset 0
1209:Drivers/STM32F4xx_HAL_Driver/Src/stm32f4xx_ll_fmc.c **** 
 1357              		.loc 1 1209 8 view .LVU476
 1358 0018 C268     		ldr	r2, [r0, #12]
 1359              	.LVL90:
1212:Drivers/STM32F4xx_HAL_Driver/Src/stm32f4xx_ll_fmc.c ****                        FMC_PATT4_ATTHIZ4));
 1360              		.loc 1 1212 3 is_stmt 1 view .LVU477
1216:Drivers/STM32F4xx_HAL_Driver/Src/stm32f4xx_ll_fmc.c ****                    ((Timing->WaitSetupTime) << 8U)     |\
 1361              		.loc 1 1216 3 view .LVU478
1220:Drivers/STM32F4xx_HAL_Driver/Src/stm32f4xx_ll_fmc.c **** 
 1362              		.loc 1 1220 3 view .LVU479
1220:Drivers/STM32F4xx_HAL_Driver/Src/stm32f4xx_ll_fmc.c **** 
 1363              		.loc 1 1220 17 is_stmt 0 view .LVU480
 1364 001a C360     		str	r3, [r0, #12]
1222:Drivers/STM32F4xx_HAL_Driver/Src/stm32f4xx_ll_fmc.c **** }
 1365              		.loc 1 1222 3 is_stmt 1 view .LVU481
 1366              		.loc 1 1223 1 is_stmt 0 view .LVU482
 1367 001c 0020     		movs	r0, #0
 1368              	.LVL91:
 1369              		.loc 1 1223 1 view .LVU483
 1370 001e 7047     		bx	lr
 1371              		.cfi_endproc
 1372              	.LFE145:
 1374              		.section	.text.FMC_PCCARD_IOSpace_Timing_Init,"ax",%progbits
 1375              		.align	1
 1376              		.p2align 2,,3
 1377              		.global	FMC_PCCARD_IOSpace_Timing_Init
 1378              		.syntax unified
 1379              		.thumb
 1380              		.thumb_func
 1381              		.fpu fpv4-sp-d16
 1383              	FMC_PCCARD_IOSpace_Timing_Init:
 1384              	.LVL92:
 1385              	.LFB146:
1224:Drivers/STM32F4xx_HAL_Driver/Src/stm32f4xx_ll_fmc.c **** 
1225:Drivers/STM32F4xx_HAL_Driver/Src/stm32f4xx_ll_fmc.c **** /**
1226:Drivers/STM32F4xx_HAL_Driver/Src/stm32f4xx_ll_fmc.c ****   * @brief  Initializes the FMC_PCCARD IO space Timing according to the specified
1227:Drivers/STM32F4xx_HAL_Driver/Src/stm32f4xx_ll_fmc.c ****   *         parameters in the FMC_NAND_PCC_TimingTypeDef
1228:Drivers/STM32F4xx_HAL_Driver/Src/stm32f4xx_ll_fmc.c ****   * @param  Device Pointer to PCCARD device instance
1229:Drivers/STM32F4xx_HAL_Driver/Src/stm32f4xx_ll_fmc.c ****   * @param  Timing Pointer to PCCARD timing structure  
1230:Drivers/STM32F4xx_HAL_Driver/Src/stm32f4xx_ll_fmc.c ****   * @retval HAL status
1231:Drivers/STM32F4xx_HAL_Driver/Src/stm32f4xx_ll_fmc.c ****   */
1232:Drivers/STM32F4xx_HAL_Driver/Src/stm32f4xx_ll_fmc.c **** HAL_StatusTypeDef FMC_PCCARD_IOSpace_Timing_Init(FMC_PCCARD_TypeDef *Device, FMC_NAND_PCC_TimingTyp
1233:Drivers/STM32F4xx_HAL_Driver/Src/stm32f4xx_ll_fmc.c **** {
 1386              		.loc 1 1233 1 is_stmt 1 view -0
 1387              		.cfi_startproc
 1388              		@ args = 0, pretend = 0, frame = 0
 1389              		@ frame_needed = 0, uses_anonymous_args = 0
ARM GAS  C:\Users\zoosman\AppData\Local\Temp\ccuisvXz.s 			page 50


 1390              		@ link register save eliminated.
1234:Drivers/STM32F4xx_HAL_Driver/Src/stm32f4xx_ll_fmc.c ****   uint32_t tmpr = 0;
 1391              		.loc 1 1234 3 view .LVU485
1235:Drivers/STM32F4xx_HAL_Driver/Src/stm32f4xx_ll_fmc.c ****   
1236:Drivers/STM32F4xx_HAL_Driver/Src/stm32f4xx_ll_fmc.c ****   /* Check the parameters */  
1237:Drivers/STM32F4xx_HAL_Driver/Src/stm32f4xx_ll_fmc.c ****   assert_param(IS_FMC_PCCARD_DEVICE(Device));
 1392              		.loc 1 1237 3 view .LVU486
1238:Drivers/STM32F4xx_HAL_Driver/Src/stm32f4xx_ll_fmc.c ****   assert_param(IS_FMC_SETUP_TIME(Timing->SetupTime));
 1393              		.loc 1 1238 3 view .LVU487
1239:Drivers/STM32F4xx_HAL_Driver/Src/stm32f4xx_ll_fmc.c ****   assert_param(IS_FMC_WAIT_TIME(Timing->WaitSetupTime));
 1394              		.loc 1 1239 3 view .LVU488
1240:Drivers/STM32F4xx_HAL_Driver/Src/stm32f4xx_ll_fmc.c ****   assert_param(IS_FMC_HOLD_TIME(Timing->HoldSetupTime));
 1395              		.loc 1 1240 3 view .LVU489
1241:Drivers/STM32F4xx_HAL_Driver/Src/stm32f4xx_ll_fmc.c ****   assert_param(IS_FMC_HIZ_TIME(Timing->HiZSetupTime));
 1396              		.loc 1 1241 3 view .LVU490
1242:Drivers/STM32F4xx_HAL_Driver/Src/stm32f4xx_ll_fmc.c **** 
1243:Drivers/STM32F4xx_HAL_Driver/Src/stm32f4xx_ll_fmc.c ****   /* Get FMC_PCCARD device timing parameters */
1244:Drivers/STM32F4xx_HAL_Driver/Src/stm32f4xx_ll_fmc.c ****   tmpr = Device->PIO4;
 1397              		.loc 1 1244 3 view .LVU491
1233:Drivers/STM32F4xx_HAL_Driver/Src/stm32f4xx_ll_fmc.c ****   uint32_t tmpr = 0;
 1398              		.loc 1 1233 1 is_stmt 0 view .LVU492
 1399 0000 30B4     		push	{r4, r5}
 1400              	.LCFI32:
 1401              		.cfi_def_cfa_offset 8
 1402              		.cfi_offset 4, -8
 1403              		.cfi_offset 5, -4
1245:Drivers/STM32F4xx_HAL_Driver/Src/stm32f4xx_ll_fmc.c **** 
1246:Drivers/STM32F4xx_HAL_Driver/Src/stm32f4xx_ll_fmc.c ****   /* Clear IOSET4, IOWAIT4, IOHOLD4 and IOHIZ4 bits */
1247:Drivers/STM32F4xx_HAL_Driver/Src/stm32f4xx_ll_fmc.c ****   tmpr &= ((uint32_t)~(FMC_PIO4_IOSET4  | FMC_PIO4_IOWAIT4 | FMC_PIO4_IOHOLD4 | \
1248:Drivers/STM32F4xx_HAL_Driver/Src/stm32f4xx_ll_fmc.c ****                        FMC_PIO4_IOHIZ4));
1249:Drivers/STM32F4xx_HAL_Driver/Src/stm32f4xx_ll_fmc.c ****   
1250:Drivers/STM32F4xx_HAL_Driver/Src/stm32f4xx_ll_fmc.c ****   /* Set FMC_PCCARD device timing parameters */
1251:Drivers/STM32F4xx_HAL_Driver/Src/stm32f4xx_ll_fmc.c ****   tmpr |= (uint32_t)(Timing->SetupTime                   |\
1252:Drivers/STM32F4xx_HAL_Driver/Src/stm32f4xx_ll_fmc.c ****                      ((Timing->WaitSetupTime) << 8U)     |\
 1404              		.loc 1 1252 47 view .LVU493
 1405 0002 D1E90153 		ldrd	r5, r3, [r1, #4]
 1406              		.loc 1 1252 58 view .LVU494
 1407 0006 0C68     		ldr	r4, [r1]
1253:Drivers/STM32F4xx_HAL_Driver/Src/stm32f4xx_ll_fmc.c ****                      ((Timing->HoldSetupTime) << 16U)    |\
1254:Drivers/STM32F4xx_HAL_Driver/Src/stm32f4xx_ll_fmc.c ****                      ((Timing->HiZSetupTime) << 24U));   
 1408              		.loc 1 1254 46 view .LVU495
 1409 0008 CA68     		ldr	r2, [r1, #12]
1253:Drivers/STM32F4xx_HAL_Driver/Src/stm32f4xx_ll_fmc.c ****                      ((Timing->HoldSetupTime) << 16U)    |\
 1410              		.loc 1 1253 47 view .LVU496
 1411 000a 1B04     		lsls	r3, r3, #16
1252:Drivers/STM32F4xx_HAL_Driver/Src/stm32f4xx_ll_fmc.c ****                      ((Timing->HoldSetupTime) << 16U)    |\
 1412              		.loc 1 1252 58 view .LVU497
 1413 000c 43EA0523 		orr	r3, r3, r5, lsl #8
 1414 0010 2343     		orrs	r3, r3, r4
1253:Drivers/STM32F4xx_HAL_Driver/Src/stm32f4xx_ll_fmc.c ****                      ((Timing->HoldSetupTime) << 16U)    |\
 1415              		.loc 1 1253 58 view .LVU498
 1416 0012 43EA0263 		orr	r3, r3, r2, lsl #24
1255:Drivers/STM32F4xx_HAL_Driver/Src/stm32f4xx_ll_fmc.c ****   
1256:Drivers/STM32F4xx_HAL_Driver/Src/stm32f4xx_ll_fmc.c ****   Device->PIO4 = tmpr;
1257:Drivers/STM32F4xx_HAL_Driver/Src/stm32f4xx_ll_fmc.c ****  
1258:Drivers/STM32F4xx_HAL_Driver/Src/stm32f4xx_ll_fmc.c ****   return HAL_OK;
1259:Drivers/STM32F4xx_HAL_Driver/Src/stm32f4xx_ll_fmc.c **** }
ARM GAS  C:\Users\zoosman\AppData\Local\Temp\ccuisvXz.s 			page 51


 1417              		.loc 1 1259 1 view .LVU499
 1418 0016 30BC     		pop	{r4, r5}
 1419              	.LCFI33:
 1420              		.cfi_restore 5
 1421              		.cfi_restore 4
 1422              		.cfi_def_cfa_offset 0
1244:Drivers/STM32F4xx_HAL_Driver/Src/stm32f4xx_ll_fmc.c **** 
 1423              		.loc 1 1244 8 view .LVU500
 1424 0018 0269     		ldr	r2, [r0, #16]
 1425              	.LVL93:
1247:Drivers/STM32F4xx_HAL_Driver/Src/stm32f4xx_ll_fmc.c ****                        FMC_PIO4_IOHIZ4));
 1426              		.loc 1 1247 3 is_stmt 1 view .LVU501
1251:Drivers/STM32F4xx_HAL_Driver/Src/stm32f4xx_ll_fmc.c ****                      ((Timing->WaitSetupTime) << 8U)     |\
 1427              		.loc 1 1251 3 view .LVU502
1256:Drivers/STM32F4xx_HAL_Driver/Src/stm32f4xx_ll_fmc.c ****  
 1428              		.loc 1 1256 3 view .LVU503
1256:Drivers/STM32F4xx_HAL_Driver/Src/stm32f4xx_ll_fmc.c ****  
 1429              		.loc 1 1256 16 is_stmt 0 view .LVU504
 1430 001a 0361     		str	r3, [r0, #16]
1258:Drivers/STM32F4xx_HAL_Driver/Src/stm32f4xx_ll_fmc.c **** }
 1431              		.loc 1 1258 3 is_stmt 1 view .LVU505
 1432              		.loc 1 1259 1 is_stmt 0 view .LVU506
 1433 001c 0020     		movs	r0, #0
 1434              	.LVL94:
 1435              		.loc 1 1259 1 view .LVU507
 1436 001e 7047     		bx	lr
 1437              		.cfi_endproc
 1438              	.LFE146:
 1440              		.section	.text.FMC_PCCARD_DeInit,"ax",%progbits
 1441              		.align	1
 1442              		.p2align 2,,3
 1443              		.global	FMC_PCCARD_DeInit
 1444              		.syntax unified
 1445              		.thumb
 1446              		.thumb_func
 1447              		.fpu fpv4-sp-d16
 1449              	FMC_PCCARD_DeInit:
 1450              	.LVL95:
 1451              	.LFB147:
1260:Drivers/STM32F4xx_HAL_Driver/Src/stm32f4xx_ll_fmc.c ****                                            
1261:Drivers/STM32F4xx_HAL_Driver/Src/stm32f4xx_ll_fmc.c **** /**
1262:Drivers/STM32F4xx_HAL_Driver/Src/stm32f4xx_ll_fmc.c ****   * @brief  DeInitializes the FMC_PCCARD device 
1263:Drivers/STM32F4xx_HAL_Driver/Src/stm32f4xx_ll_fmc.c ****   * @param  Device Pointer to PCCARD device instance
1264:Drivers/STM32F4xx_HAL_Driver/Src/stm32f4xx_ll_fmc.c ****   * @retval HAL status
1265:Drivers/STM32F4xx_HAL_Driver/Src/stm32f4xx_ll_fmc.c ****   */
1266:Drivers/STM32F4xx_HAL_Driver/Src/stm32f4xx_ll_fmc.c **** HAL_StatusTypeDef FMC_PCCARD_DeInit(FMC_PCCARD_TypeDef *Device)
1267:Drivers/STM32F4xx_HAL_Driver/Src/stm32f4xx_ll_fmc.c **** {
 1452              		.loc 1 1267 1 is_stmt 1 view -0
 1453              		.cfi_startproc
 1454              		@ args = 0, pretend = 0, frame = 0
 1455              		@ frame_needed = 0, uses_anonymous_args = 0
 1456              		@ link register save eliminated.
1268:Drivers/STM32F4xx_HAL_Driver/Src/stm32f4xx_ll_fmc.c ****   /* Check the parameters */  
1269:Drivers/STM32F4xx_HAL_Driver/Src/stm32f4xx_ll_fmc.c ****   assert_param(IS_FMC_PCCARD_DEVICE(Device));
 1457              		.loc 1 1269 3 view .LVU509
1270:Drivers/STM32F4xx_HAL_Driver/Src/stm32f4xx_ll_fmc.c ****     
1271:Drivers/STM32F4xx_HAL_Driver/Src/stm32f4xx_ll_fmc.c ****   /* Disable the FMC_PCCARD device */
ARM GAS  C:\Users\zoosman\AppData\Local\Temp\ccuisvXz.s 			page 52


1272:Drivers/STM32F4xx_HAL_Driver/Src/stm32f4xx_ll_fmc.c ****   __FMC_PCCARD_DISABLE(Device);
 1458              		.loc 1 1272 3 view .LVU510
 1459 0000 0168     		ldr	r1, [r0]
1267:Drivers/STM32F4xx_HAL_Driver/Src/stm32f4xx_ll_fmc.c ****   /* Check the parameters */  
 1460              		.loc 1 1267 1 is_stmt 0 view .LVU511
 1461 0002 0346     		mov	r3, r0
 1462 0004 10B4     		push	{r4}
 1463              	.LCFI34:
 1464              		.cfi_def_cfa_offset 4
 1465              		.cfi_offset 4, -4
1273:Drivers/STM32F4xx_HAL_Driver/Src/stm32f4xx_ll_fmc.c ****   
1274:Drivers/STM32F4xx_HAL_Driver/Src/stm32f4xx_ll_fmc.c ****   /* De-initialize the FMC_PCCARD device */
1275:Drivers/STM32F4xx_HAL_Driver/Src/stm32f4xx_ll_fmc.c ****   Device->PCR4    = 0x00000018U; 
1276:Drivers/STM32F4xx_HAL_Driver/Src/stm32f4xx_ll_fmc.c ****   Device->SR4     = 0x00000000U;	
1277:Drivers/STM32F4xx_HAL_Driver/Src/stm32f4xx_ll_fmc.c ****   Device->PMEM4   = 0xFCFCFCFCU;
 1466              		.loc 1 1277 19 view .LVU512
 1467 0006 4FF0FC32 		mov	r2, #-50529028
1275:Drivers/STM32F4xx_HAL_Driver/Src/stm32f4xx_ll_fmc.c ****   Device->SR4     = 0x00000000U;	
 1468              		.loc 1 1275 19 view .LVU513
 1469 000a 1824     		movs	r4, #24
1276:Drivers/STM32F4xx_HAL_Driver/Src/stm32f4xx_ll_fmc.c ****   Device->PMEM4   = 0xFCFCFCFCU;
 1470              		.loc 1 1276 19 view .LVU514
 1471 000c 0020     		movs	r0, #0
 1472              	.LVL96:
1272:Drivers/STM32F4xx_HAL_Driver/Src/stm32f4xx_ll_fmc.c ****   
 1473              		.loc 1 1272 3 view .LVU515
 1474 000e 21F00401 		bic	r1, r1, #4
 1475 0012 1960     		str	r1, [r3]
1275:Drivers/STM32F4xx_HAL_Driver/Src/stm32f4xx_ll_fmc.c ****   Device->SR4     = 0x00000000U;	
 1476              		.loc 1 1275 3 is_stmt 1 view .LVU516
1275:Drivers/STM32F4xx_HAL_Driver/Src/stm32f4xx_ll_fmc.c ****   Device->SR4     = 0x00000000U;	
 1477              		.loc 1 1275 19 is_stmt 0 view .LVU517
 1478 0014 1C60     		str	r4, [r3]
1276:Drivers/STM32F4xx_HAL_Driver/Src/stm32f4xx_ll_fmc.c ****   Device->PMEM4   = 0xFCFCFCFCU;
 1479              		.loc 1 1276 3 is_stmt 1 view .LVU518
1276:Drivers/STM32F4xx_HAL_Driver/Src/stm32f4xx_ll_fmc.c ****   Device->PMEM4   = 0xFCFCFCFCU;
 1480              		.loc 1 1276 19 is_stmt 0 view .LVU519
 1481 0016 5860     		str	r0, [r3, #4]
 1482              		.loc 1 1277 3 is_stmt 1 view .LVU520
1278:Drivers/STM32F4xx_HAL_Driver/Src/stm32f4xx_ll_fmc.c ****   Device->PATT4   = 0xFCFCFCFCU;
1279:Drivers/STM32F4xx_HAL_Driver/Src/stm32f4xx_ll_fmc.c ****   Device->PIO4    = 0xFCFCFCFCU;
1280:Drivers/STM32F4xx_HAL_Driver/Src/stm32f4xx_ll_fmc.c ****   
1281:Drivers/STM32F4xx_HAL_Driver/Src/stm32f4xx_ll_fmc.c ****   return HAL_OK;
1282:Drivers/STM32F4xx_HAL_Driver/Src/stm32f4xx_ll_fmc.c **** }
 1483              		.loc 1 1282 1 is_stmt 0 view .LVU521
 1484 0018 5DF8044B 		ldr	r4, [sp], #4
 1485              	.LCFI35:
 1486              		.cfi_restore 4
 1487              		.cfi_def_cfa_offset 0
1277:Drivers/STM32F4xx_HAL_Driver/Src/stm32f4xx_ll_fmc.c ****   Device->PATT4   = 0xFCFCFCFCU;
 1488              		.loc 1 1277 19 view .LVU522
 1489 001c 9A60     		str	r2, [r3, #8]
1278:Drivers/STM32F4xx_HAL_Driver/Src/stm32f4xx_ll_fmc.c ****   Device->PATT4   = 0xFCFCFCFCU;
 1490              		.loc 1 1278 3 is_stmt 1 view .LVU523
1278:Drivers/STM32F4xx_HAL_Driver/Src/stm32f4xx_ll_fmc.c ****   Device->PATT4   = 0xFCFCFCFCU;
 1491              		.loc 1 1278 19 is_stmt 0 view .LVU524
 1492 001e DA60     		str	r2, [r3, #12]
ARM GAS  C:\Users\zoosman\AppData\Local\Temp\ccuisvXz.s 			page 53


1279:Drivers/STM32F4xx_HAL_Driver/Src/stm32f4xx_ll_fmc.c ****   
 1493              		.loc 1 1279 3 is_stmt 1 view .LVU525
1279:Drivers/STM32F4xx_HAL_Driver/Src/stm32f4xx_ll_fmc.c ****   
 1494              		.loc 1 1279 19 is_stmt 0 view .LVU526
 1495 0020 1A61     		str	r2, [r3, #16]
1281:Drivers/STM32F4xx_HAL_Driver/Src/stm32f4xx_ll_fmc.c **** }
 1496              		.loc 1 1281 3 is_stmt 1 view .LVU527
 1497              		.loc 1 1282 1 is_stmt 0 view .LVU528
 1498 0022 7047     		bx	lr
 1499              		.cfi_endproc
 1500              	.LFE147:
 1502              		.section	.text.FMC_SDRAM_Init,"ax",%progbits
 1503              		.align	1
 1504              		.p2align 2,,3
 1505              		.global	FMC_SDRAM_Init
 1506              		.syntax unified
 1507              		.thumb
 1508              		.thumb_func
 1509              		.fpu fpv4-sp-d16
 1511              	FMC_SDRAM_Init:
 1512              	.LVL97:
 1513              	.LFB148:
1283:Drivers/STM32F4xx_HAL_Driver/Src/stm32f4xx_ll_fmc.c **** 
1284:Drivers/STM32F4xx_HAL_Driver/Src/stm32f4xx_ll_fmc.c **** /**
1285:Drivers/STM32F4xx_HAL_Driver/Src/stm32f4xx_ll_fmc.c ****   * @}
1286:Drivers/STM32F4xx_HAL_Driver/Src/stm32f4xx_ll_fmc.c ****   */
1287:Drivers/STM32F4xx_HAL_Driver/Src/stm32f4xx_ll_fmc.c **** #endif /* STM32F427xx || STM32F437xx || STM32F429xx || STM32F439xx */
1288:Drivers/STM32F4xx_HAL_Driver/Src/stm32f4xx_ll_fmc.c **** 
1289:Drivers/STM32F4xx_HAL_Driver/Src/stm32f4xx_ll_fmc.c **** 
1290:Drivers/STM32F4xx_HAL_Driver/Src/stm32f4xx_ll_fmc.c **** /** @addtogroup FMC_LL_SDRAM
1291:Drivers/STM32F4xx_HAL_Driver/Src/stm32f4xx_ll_fmc.c ****   * @brief    SDRAM Controller functions 
1292:Drivers/STM32F4xx_HAL_Driver/Src/stm32f4xx_ll_fmc.c ****   *
1293:Drivers/STM32F4xx_HAL_Driver/Src/stm32f4xx_ll_fmc.c ****   @verbatim 
1294:Drivers/STM32F4xx_HAL_Driver/Src/stm32f4xx_ll_fmc.c ****   ==============================================================================
1295:Drivers/STM32F4xx_HAL_Driver/Src/stm32f4xx_ll_fmc.c ****                      ##### How to use SDRAM device driver #####
1296:Drivers/STM32F4xx_HAL_Driver/Src/stm32f4xx_ll_fmc.c ****   ==============================================================================
1297:Drivers/STM32F4xx_HAL_Driver/Src/stm32f4xx_ll_fmc.c ****   [..] 
1298:Drivers/STM32F4xx_HAL_Driver/Src/stm32f4xx_ll_fmc.c ****     This driver contains a set of APIs to interface with the FMC SDRAM banks in order
1299:Drivers/STM32F4xx_HAL_Driver/Src/stm32f4xx_ll_fmc.c ****     to run the SDRAM external devices.
1300:Drivers/STM32F4xx_HAL_Driver/Src/stm32f4xx_ll_fmc.c ****     
1301:Drivers/STM32F4xx_HAL_Driver/Src/stm32f4xx_ll_fmc.c ****     (+) FMC SDRAM bank reset using the function FMC_SDRAM_DeInit() 
1302:Drivers/STM32F4xx_HAL_Driver/Src/stm32f4xx_ll_fmc.c ****     (+) FMC SDRAM bank control configuration using the function FMC_SDRAM_Init()
1303:Drivers/STM32F4xx_HAL_Driver/Src/stm32f4xx_ll_fmc.c ****     (+) FMC SDRAM bank timing configuration using the function FMC_SDRAM_Timing_Init()
1304:Drivers/STM32F4xx_HAL_Driver/Src/stm32f4xx_ll_fmc.c ****     (+) FMC SDRAM bank enable/disable write operation using the functions
1305:Drivers/STM32F4xx_HAL_Driver/Src/stm32f4xx_ll_fmc.c ****         FMC_SDRAM_WriteOperation_Enable()/FMC_SDRAM_WriteOperation_Disable()   
1306:Drivers/STM32F4xx_HAL_Driver/Src/stm32f4xx_ll_fmc.c ****     (+) FMC SDRAM bank send command using the function FMC_SDRAM_SendCommand()      
1307:Drivers/STM32F4xx_HAL_Driver/Src/stm32f4xx_ll_fmc.c ****        
1308:Drivers/STM32F4xx_HAL_Driver/Src/stm32f4xx_ll_fmc.c **** @endverbatim
1309:Drivers/STM32F4xx_HAL_Driver/Src/stm32f4xx_ll_fmc.c ****   * @{
1310:Drivers/STM32F4xx_HAL_Driver/Src/stm32f4xx_ll_fmc.c ****   */
1311:Drivers/STM32F4xx_HAL_Driver/Src/stm32f4xx_ll_fmc.c ****          
1312:Drivers/STM32F4xx_HAL_Driver/Src/stm32f4xx_ll_fmc.c **** /** @addtogroup FMC_LL_SDRAM_Private_Functions_Group1
1313:Drivers/STM32F4xx_HAL_Driver/Src/stm32f4xx_ll_fmc.c ****   *  @brief    Initialization and Configuration functions 
1314:Drivers/STM32F4xx_HAL_Driver/Src/stm32f4xx_ll_fmc.c ****   *
1315:Drivers/STM32F4xx_HAL_Driver/Src/stm32f4xx_ll_fmc.c **** @verbatim    
1316:Drivers/STM32F4xx_HAL_Driver/Src/stm32f4xx_ll_fmc.c ****   ==============================================================================
1317:Drivers/STM32F4xx_HAL_Driver/Src/stm32f4xx_ll_fmc.c ****               ##### Initialization and de_initialization functions #####
ARM GAS  C:\Users\zoosman\AppData\Local\Temp\ccuisvXz.s 			page 54


1318:Drivers/STM32F4xx_HAL_Driver/Src/stm32f4xx_ll_fmc.c ****   ==============================================================================
1319:Drivers/STM32F4xx_HAL_Driver/Src/stm32f4xx_ll_fmc.c ****   [..]  
1320:Drivers/STM32F4xx_HAL_Driver/Src/stm32f4xx_ll_fmc.c ****     This section provides functions allowing to:
1321:Drivers/STM32F4xx_HAL_Driver/Src/stm32f4xx_ll_fmc.c ****     (+) Initialize and configure the FMC SDRAM interface
1322:Drivers/STM32F4xx_HAL_Driver/Src/stm32f4xx_ll_fmc.c ****     (+) De-initialize the FMC SDRAM interface 
1323:Drivers/STM32F4xx_HAL_Driver/Src/stm32f4xx_ll_fmc.c ****     (+) Configure the FMC clock and associated GPIOs
1324:Drivers/STM32F4xx_HAL_Driver/Src/stm32f4xx_ll_fmc.c ****         
1325:Drivers/STM32F4xx_HAL_Driver/Src/stm32f4xx_ll_fmc.c **** @endverbatim
1326:Drivers/STM32F4xx_HAL_Driver/Src/stm32f4xx_ll_fmc.c ****   * @{
1327:Drivers/STM32F4xx_HAL_Driver/Src/stm32f4xx_ll_fmc.c ****   */
1328:Drivers/STM32F4xx_HAL_Driver/Src/stm32f4xx_ll_fmc.c **** 
1329:Drivers/STM32F4xx_HAL_Driver/Src/stm32f4xx_ll_fmc.c **** /**
1330:Drivers/STM32F4xx_HAL_Driver/Src/stm32f4xx_ll_fmc.c ****   * @brief  Initializes the FMC_SDRAM device according to the specified
1331:Drivers/STM32F4xx_HAL_Driver/Src/stm32f4xx_ll_fmc.c ****   *         control parameters in the FMC_SDRAM_InitTypeDef
1332:Drivers/STM32F4xx_HAL_Driver/Src/stm32f4xx_ll_fmc.c ****   * @param  Device Pointer to SDRAM device instance
1333:Drivers/STM32F4xx_HAL_Driver/Src/stm32f4xx_ll_fmc.c ****   * @param  Init Pointer to SDRAM Initialization structure   
1334:Drivers/STM32F4xx_HAL_Driver/Src/stm32f4xx_ll_fmc.c ****   * @retval HAL status
1335:Drivers/STM32F4xx_HAL_Driver/Src/stm32f4xx_ll_fmc.c ****   */
1336:Drivers/STM32F4xx_HAL_Driver/Src/stm32f4xx_ll_fmc.c **** HAL_StatusTypeDef FMC_SDRAM_Init(FMC_SDRAM_TypeDef *Device, FMC_SDRAM_InitTypeDef *Init)
1337:Drivers/STM32F4xx_HAL_Driver/Src/stm32f4xx_ll_fmc.c **** {
 1514              		.loc 1 1337 1 is_stmt 1 view -0
 1515              		.cfi_startproc
 1516              		@ args = 0, pretend = 0, frame = 0
 1517              		@ frame_needed = 0, uses_anonymous_args = 0
 1518              		@ link register save eliminated.
1338:Drivers/STM32F4xx_HAL_Driver/Src/stm32f4xx_ll_fmc.c ****   uint32_t tmpr1 = 0U;
 1519              		.loc 1 1338 3 view .LVU530
1339:Drivers/STM32F4xx_HAL_Driver/Src/stm32f4xx_ll_fmc.c ****   uint32_t tmpr2 = 0U;
 1520              		.loc 1 1339 3 view .LVU531
1340:Drivers/STM32F4xx_HAL_Driver/Src/stm32f4xx_ll_fmc.c ****     
1341:Drivers/STM32F4xx_HAL_Driver/Src/stm32f4xx_ll_fmc.c ****   /* Check the parameters */
1342:Drivers/STM32F4xx_HAL_Driver/Src/stm32f4xx_ll_fmc.c ****   assert_param(IS_FMC_SDRAM_DEVICE(Device));
 1521              		.loc 1 1342 3 view .LVU532
1343:Drivers/STM32F4xx_HAL_Driver/Src/stm32f4xx_ll_fmc.c ****   assert_param(IS_FMC_SDRAM_BANK(Init->SDBank));
 1522              		.loc 1 1343 3 view .LVU533
1344:Drivers/STM32F4xx_HAL_Driver/Src/stm32f4xx_ll_fmc.c ****   assert_param(IS_FMC_COLUMNBITS_NUMBER(Init->ColumnBitsNumber));
 1523              		.loc 1 1344 3 view .LVU534
1345:Drivers/STM32F4xx_HAL_Driver/Src/stm32f4xx_ll_fmc.c ****   assert_param(IS_FMC_ROWBITS_NUMBER(Init->RowBitsNumber));
 1524              		.loc 1 1345 3 view .LVU535
1346:Drivers/STM32F4xx_HAL_Driver/Src/stm32f4xx_ll_fmc.c ****   assert_param(IS_FMC_SDMEMORY_WIDTH(Init->MemoryDataWidth));
 1525              		.loc 1 1346 3 view .LVU536
1347:Drivers/STM32F4xx_HAL_Driver/Src/stm32f4xx_ll_fmc.c ****   assert_param(IS_FMC_INTERNALBANK_NUMBER(Init->InternalBankNumber));
 1526              		.loc 1 1347 3 view .LVU537
1348:Drivers/STM32F4xx_HAL_Driver/Src/stm32f4xx_ll_fmc.c ****   assert_param(IS_FMC_CAS_LATENCY(Init->CASLatency));
 1527              		.loc 1 1348 3 view .LVU538
1349:Drivers/STM32F4xx_HAL_Driver/Src/stm32f4xx_ll_fmc.c ****   assert_param(IS_FMC_WRITE_PROTECTION(Init->WriteProtection));
 1528              		.loc 1 1349 3 view .LVU539
1350:Drivers/STM32F4xx_HAL_Driver/Src/stm32f4xx_ll_fmc.c ****   assert_param(IS_FMC_SDCLOCK_PERIOD(Init->SDClockPeriod));
 1529              		.loc 1 1350 3 view .LVU540
1351:Drivers/STM32F4xx_HAL_Driver/Src/stm32f4xx_ll_fmc.c ****   assert_param(IS_FMC_READ_BURST(Init->ReadBurst));
 1530              		.loc 1 1351 3 view .LVU541
1352:Drivers/STM32F4xx_HAL_Driver/Src/stm32f4xx_ll_fmc.c ****   assert_param(IS_FMC_READPIPE_DELAY(Init->ReadPipeDelay));   
 1531              		.loc 1 1352 3 view .LVU542
1353:Drivers/STM32F4xx_HAL_Driver/Src/stm32f4xx_ll_fmc.c **** 
1354:Drivers/STM32F4xx_HAL_Driver/Src/stm32f4xx_ll_fmc.c ****   /* Set SDRAM bank configuration parameters */
1355:Drivers/STM32F4xx_HAL_Driver/Src/stm32f4xx_ll_fmc.c ****   if (Init->SDBank != FMC_SDRAM_BANK2) 
 1532              		.loc 1 1355 3 view .LVU543
ARM GAS  C:\Users\zoosman\AppData\Local\Temp\ccuisvXz.s 			page 55


 1533              		.loc 1 1355 6 is_stmt 0 view .LVU544
 1534 0000 0B68     		ldr	r3, [r1]
 1535 0002 012B     		cmp	r3, #1
1337:Drivers/STM32F4xx_HAL_Driver/Src/stm32f4xx_ll_fmc.c ****   uint32_t tmpr1 = 0U;
 1536              		.loc 1 1337 1 view .LVU545
 1537 0004 70B4     		push	{r4, r5, r6}
 1538              	.LCFI36:
 1539              		.cfi_def_cfa_offset 12
 1540              		.cfi_offset 4, -12
 1541              		.cfi_offset 5, -8
 1542              		.cfi_offset 6, -4
 1543              		.loc 1 1355 6 view .LVU546
 1544 0006 1AD0     		beq	.L90
1356:Drivers/STM32F4xx_HAL_Driver/Src/stm32f4xx_ll_fmc.c ****   {    
1357:Drivers/STM32F4xx_HAL_Driver/Src/stm32f4xx_ll_fmc.c ****     tmpr1 = Device->SDCR[FMC_SDRAM_BANK1];
 1545              		.loc 1 1357 5 is_stmt 1 view .LVU547
 1546              		.loc 1 1357 11 is_stmt 0 view .LVU548
 1547 0008 0368     		ldr	r3, [r0]
 1548              	.LVL98:
1358:Drivers/STM32F4xx_HAL_Driver/Src/stm32f4xx_ll_fmc.c ****     
1359:Drivers/STM32F4xx_HAL_Driver/Src/stm32f4xx_ll_fmc.c ****     /* Clear NC, NR, MWID, NB, CAS, WP, SDCLK, RBURST, and RPIPE bits */
1360:Drivers/STM32F4xx_HAL_Driver/Src/stm32f4xx_ll_fmc.c ****     tmpr1 &= ((uint32_t)~(FMC_SDCR1_NC  | FMC_SDCR1_NR | FMC_SDCR1_MWID | \
 1549              		.loc 1 1360 5 is_stmt 1 view .LVU549
1361:Drivers/STM32F4xx_HAL_Driver/Src/stm32f4xx_ll_fmc.c ****                          FMC_SDCR1_NB  | FMC_SDCR1_CAS | FMC_SDCR1_WP | \
1362:Drivers/STM32F4xx_HAL_Driver/Src/stm32f4xx_ll_fmc.c ****                          FMC_SDCR1_SDCLK | FMC_SDCR1_RBURST | FMC_SDCR1_RPIPE));
1363:Drivers/STM32F4xx_HAL_Driver/Src/stm32f4xx_ll_fmc.c ****   
1364:Drivers/STM32F4xx_HAL_Driver/Src/stm32f4xx_ll_fmc.c ****   
1365:Drivers/STM32F4xx_HAL_Driver/Src/stm32f4xx_ll_fmc.c ****     tmpr1 |= (uint32_t)(Init->ColumnBitsNumber   |\
 1550              		.loc 1 1365 5 view .LVU550
 1551 000a CD68     		ldr	r5, [r1, #12]
 1552 000c D1E90164 		ldrd	r6, r4, [r1, #4]
1360:Drivers/STM32F4xx_HAL_Driver/Src/stm32f4xx_ll_fmc.c ****                          FMC_SDCR1_NB  | FMC_SDCR1_CAS | FMC_SDCR1_WP | \
 1553              		.loc 1 1360 11 is_stmt 0 view .LVU551
 1554 0010 23F4FF43 		bic	r3, r3, #32640
 1555              	.LVL99:
1360:Drivers/STM32F4xx_HAL_Driver/Src/stm32f4xx_ll_fmc.c ****                          FMC_SDCR1_NB  | FMC_SDCR1_CAS | FMC_SDCR1_WP | \
 1556              		.loc 1 1360 11 view .LVU552
 1557 0014 23F07F03 		bic	r3, r3, #127
 1558 0018 3343     		orrs	r3, r3, r6
 1559 001a 2343     		orrs	r3, r3, r4
 1560 001c D1E90424 		ldrd	r2, r4, [r1, #16]
 1561 0020 2B43     		orrs	r3, r3, r5
 1562 0022 1343     		orrs	r3, r3, r2
 1563 0024 D1E90625 		ldrd	r2, r5, [r1, #24]
 1564 0028 2343     		orrs	r3, r3, r4
 1565 002a 1343     		orrs	r3, r3, r2
 1566              		.loc 1 1365 11 view .LVU553
 1567 002c D1E90842 		ldrd	r4, r2, [r1, #32]
 1568 0030 2B43     		orrs	r3, r3, r5
 1569 0032 2343     		orrs	r3, r3, r4
 1570 0034 1343     		orrs	r3, r3, r2
 1571              	.LVL100:
1366:Drivers/STM32F4xx_HAL_Driver/Src/stm32f4xx_ll_fmc.c ****                                                Init->RowBitsNumber      |\
1367:Drivers/STM32F4xx_HAL_Driver/Src/stm32f4xx_ll_fmc.c ****                                                Init->MemoryDataWidth    |\
1368:Drivers/STM32F4xx_HAL_Driver/Src/stm32f4xx_ll_fmc.c ****                                                Init->InternalBankNumber |\
1369:Drivers/STM32F4xx_HAL_Driver/Src/stm32f4xx_ll_fmc.c ****                                                Init->CASLatency         |\
1370:Drivers/STM32F4xx_HAL_Driver/Src/stm32f4xx_ll_fmc.c ****                                                Init->WriteProtection    |\
ARM GAS  C:\Users\zoosman\AppData\Local\Temp\ccuisvXz.s 			page 56


1371:Drivers/STM32F4xx_HAL_Driver/Src/stm32f4xx_ll_fmc.c ****                                                Init->SDClockPeriod      |\
1372:Drivers/STM32F4xx_HAL_Driver/Src/stm32f4xx_ll_fmc.c ****                                                Init->ReadBurst          |\
1373:Drivers/STM32F4xx_HAL_Driver/Src/stm32f4xx_ll_fmc.c ****                                                Init->ReadPipeDelay
1374:Drivers/STM32F4xx_HAL_Driver/Src/stm32f4xx_ll_fmc.c ****                                                );
1375:Drivers/STM32F4xx_HAL_Driver/Src/stm32f4xx_ll_fmc.c ****     Device->SDCR[FMC_SDRAM_BANK1] = tmpr1;
 1572              		.loc 1 1375 5 is_stmt 1 view .LVU554
 1573              		.loc 1 1375 35 is_stmt 0 view .LVU555
 1574 0036 0360     		str	r3, [r0]
1376:Drivers/STM32F4xx_HAL_Driver/Src/stm32f4xx_ll_fmc.c ****   }
1377:Drivers/STM32F4xx_HAL_Driver/Src/stm32f4xx_ll_fmc.c ****   else /* FMC_Bank2_SDRAM */                      
1378:Drivers/STM32F4xx_HAL_Driver/Src/stm32f4xx_ll_fmc.c ****   {
1379:Drivers/STM32F4xx_HAL_Driver/Src/stm32f4xx_ll_fmc.c ****     tmpr1 = Device->SDCR[FMC_SDRAM_BANK1];
1380:Drivers/STM32F4xx_HAL_Driver/Src/stm32f4xx_ll_fmc.c ****     
1381:Drivers/STM32F4xx_HAL_Driver/Src/stm32f4xx_ll_fmc.c ****     /* Clear NC, NR, MWID, NB, CAS, WP, SDCLK, RBURST, and RPIPE bits */
1382:Drivers/STM32F4xx_HAL_Driver/Src/stm32f4xx_ll_fmc.c ****     tmpr1 &= ((uint32_t)~(FMC_SDCR1_SDCLK | FMC_SDCR1_RBURST | FMC_SDCR1_RPIPE));
1383:Drivers/STM32F4xx_HAL_Driver/Src/stm32f4xx_ll_fmc.c ****     
1384:Drivers/STM32F4xx_HAL_Driver/Src/stm32f4xx_ll_fmc.c ****     tmpr1 |= (uint32_t)(Init->SDClockPeriod      |\
1385:Drivers/STM32F4xx_HAL_Driver/Src/stm32f4xx_ll_fmc.c ****                         Init->ReadBurst          |\
1386:Drivers/STM32F4xx_HAL_Driver/Src/stm32f4xx_ll_fmc.c ****                         Init->ReadPipeDelay);  
1387:Drivers/STM32F4xx_HAL_Driver/Src/stm32f4xx_ll_fmc.c ****     
1388:Drivers/STM32F4xx_HAL_Driver/Src/stm32f4xx_ll_fmc.c ****     tmpr2 = Device->SDCR[FMC_SDRAM_BANK2];
1389:Drivers/STM32F4xx_HAL_Driver/Src/stm32f4xx_ll_fmc.c ****     
1390:Drivers/STM32F4xx_HAL_Driver/Src/stm32f4xx_ll_fmc.c ****     /* Clear NC, NR, MWID, NB, CAS, WP, SDCLK, RBURST, and RPIPE bits */
1391:Drivers/STM32F4xx_HAL_Driver/Src/stm32f4xx_ll_fmc.c ****     tmpr2 &= ((uint32_t)~(FMC_SDCR1_NC  | FMC_SDCR1_NR | FMC_SDCR1_MWID | \
1392:Drivers/STM32F4xx_HAL_Driver/Src/stm32f4xx_ll_fmc.c ****                           FMC_SDCR1_NB  | FMC_SDCR1_CAS | FMC_SDCR1_WP | \
1393:Drivers/STM32F4xx_HAL_Driver/Src/stm32f4xx_ll_fmc.c ****                           FMC_SDCR1_SDCLK | FMC_SDCR1_RBURST | FMC_SDCR1_RPIPE));
1394:Drivers/STM32F4xx_HAL_Driver/Src/stm32f4xx_ll_fmc.c **** 
1395:Drivers/STM32F4xx_HAL_Driver/Src/stm32f4xx_ll_fmc.c ****     tmpr2 |= (uint32_t)(Init->ColumnBitsNumber   |\
1396:Drivers/STM32F4xx_HAL_Driver/Src/stm32f4xx_ll_fmc.c ****                        Init->RowBitsNumber      |\
1397:Drivers/STM32F4xx_HAL_Driver/Src/stm32f4xx_ll_fmc.c ****                        Init->MemoryDataWidth    |\
1398:Drivers/STM32F4xx_HAL_Driver/Src/stm32f4xx_ll_fmc.c ****                        Init->InternalBankNumber |\
1399:Drivers/STM32F4xx_HAL_Driver/Src/stm32f4xx_ll_fmc.c ****                        Init->CASLatency         |\
1400:Drivers/STM32F4xx_HAL_Driver/Src/stm32f4xx_ll_fmc.c ****                        Init->WriteProtection);
1401:Drivers/STM32F4xx_HAL_Driver/Src/stm32f4xx_ll_fmc.c **** 
1402:Drivers/STM32F4xx_HAL_Driver/Src/stm32f4xx_ll_fmc.c ****     Device->SDCR[FMC_SDRAM_BANK1] = tmpr1;
1403:Drivers/STM32F4xx_HAL_Driver/Src/stm32f4xx_ll_fmc.c ****     Device->SDCR[FMC_SDRAM_BANK2] = tmpr2;
1404:Drivers/STM32F4xx_HAL_Driver/Src/stm32f4xx_ll_fmc.c ****   }  
1405:Drivers/STM32F4xx_HAL_Driver/Src/stm32f4xx_ll_fmc.c ****   
1406:Drivers/STM32F4xx_HAL_Driver/Src/stm32f4xx_ll_fmc.c ****   return HAL_OK;
 1575              		.loc 1 1406 3 is_stmt 1 view .LVU556
1407:Drivers/STM32F4xx_HAL_Driver/Src/stm32f4xx_ll_fmc.c **** }
 1576              		.loc 1 1407 1 is_stmt 0 view .LVU557
 1577 0038 70BC     		pop	{r4, r5, r6}
 1578              	.LCFI37:
 1579              		.cfi_remember_state
 1580              		.cfi_restore 6
 1581              		.cfi_restore 5
 1582              		.cfi_restore 4
 1583              		.cfi_def_cfa_offset 0
 1584 003a 0020     		movs	r0, #0
 1585              	.LVL101:
 1586              		.loc 1 1407 1 view .LVU558
 1587 003c 7047     		bx	lr
 1588              	.LVL102:
 1589              	.L90:
 1590              	.LCFI38:
 1591              		.cfi_restore_state
ARM GAS  C:\Users\zoosman\AppData\Local\Temp\ccuisvXz.s 			page 57


1379:Drivers/STM32F4xx_HAL_Driver/Src/stm32f4xx_ll_fmc.c ****     
 1592              		.loc 1 1379 5 is_stmt 1 view .LVU559
1379:Drivers/STM32F4xx_HAL_Driver/Src/stm32f4xx_ll_fmc.c ****     
 1593              		.loc 1 1379 11 is_stmt 0 view .LVU560
 1594 003e 0568     		ldr	r5, [r0]
 1595              	.LVL103:
1382:Drivers/STM32F4xx_HAL_Driver/Src/stm32f4xx_ll_fmc.c ****     
 1596              		.loc 1 1382 5 is_stmt 1 view .LVU561
1384:Drivers/STM32F4xx_HAL_Driver/Src/stm32f4xx_ll_fmc.c ****                         Init->ReadBurst          |\
 1597              		.loc 1 1384 5 view .LVU562
1388:Drivers/STM32F4xx_HAL_Driver/Src/stm32f4xx_ll_fmc.c ****     
 1598              		.loc 1 1388 11 is_stmt 0 view .LVU563
 1599 0040 4368     		ldr	r3, [r0, #4]
 1600              	.LVL104:
1388:Drivers/STM32F4xx_HAL_Driver/Src/stm32f4xx_ll_fmc.c ****     
 1601              		.loc 1 1388 11 view .LVU564
 1602 0042 4E68     		ldr	r6, [r1, #4]
 1603 0044 CC69     		ldr	r4, [r1, #28]
1391:Drivers/STM32F4xx_HAL_Driver/Src/stm32f4xx_ll_fmc.c ****                           FMC_SDCR1_NB  | FMC_SDCR1_CAS | FMC_SDCR1_WP | \
 1604              		.loc 1 1391 11 view .LVU565
 1605 0046 23F4FF43 		bic	r3, r3, #32640
 1606 004a 23F07F03 		bic	r3, r3, #127
 1607 004e 3343     		orrs	r3, r3, r6
 1608 0050 D1E90226 		ldrd	r2, r6, [r1, #8]
 1609 0054 1343     		orrs	r3, r3, r2
1382:Drivers/STM32F4xx_HAL_Driver/Src/stm32f4xx_ll_fmc.c ****     
 1610              		.loc 1 1382 11 view .LVU566
 1611 0056 25F4F842 		bic	r2, r5, #31744
 1612              	.LVL105:
1382:Drivers/STM32F4xx_HAL_Driver/Src/stm32f4xx_ll_fmc.c ****     
 1613              		.loc 1 1382 11 view .LVU567
 1614 005a 0D69     		ldr	r5, [r1, #16]
 1615 005c 3343     		orrs	r3, r3, r6
 1616 005e 2B43     		orrs	r3, r3, r5
 1617 0060 0E6A     		ldr	r6, [r1, #32]
 1618 0062 4D69     		ldr	r5, [r1, #20]
 1619 0064 2243     		orrs	r2, r2, r4
 1620              	.LVL106:
1384:Drivers/STM32F4xx_HAL_Driver/Src/stm32f4xx_ll_fmc.c ****                         Init->ReadBurst          |\
 1621              		.loc 1 1384 11 view .LVU568
 1622 0066 4C6A     		ldr	r4, [r1, #36]
1395:Drivers/STM32F4xx_HAL_Driver/Src/stm32f4xx_ll_fmc.c ****                        Init->RowBitsNumber      |\
 1623              		.loc 1 1395 11 view .LVU569
 1624 0068 8969     		ldr	r1, [r1, #24]
 1625              	.LVL107:
1395:Drivers/STM32F4xx_HAL_Driver/Src/stm32f4xx_ll_fmc.c ****                        Init->RowBitsNumber      |\
 1626              		.loc 1 1395 11 view .LVU570
 1627 006a 3243     		orrs	r2, r2, r6
 1628 006c 2B43     		orrs	r3, r3, r5
1384:Drivers/STM32F4xx_HAL_Driver/Src/stm32f4xx_ll_fmc.c ****                         Init->ReadBurst          |\
 1629              		.loc 1 1384 11 view .LVU571
 1630 006e 2243     		orrs	r2, r2, r4
 1631              	.LVL108:
1388:Drivers/STM32F4xx_HAL_Driver/Src/stm32f4xx_ll_fmc.c ****     
 1632              		.loc 1 1388 5 is_stmt 1 view .LVU572
1391:Drivers/STM32F4xx_HAL_Driver/Src/stm32f4xx_ll_fmc.c ****                           FMC_SDCR1_NB  | FMC_SDCR1_CAS | FMC_SDCR1_WP | \
 1633              		.loc 1 1391 5 view .LVU573
ARM GAS  C:\Users\zoosman\AppData\Local\Temp\ccuisvXz.s 			page 58


1395:Drivers/STM32F4xx_HAL_Driver/Src/stm32f4xx_ll_fmc.c ****                        Init->RowBitsNumber      |\
 1634              		.loc 1 1395 5 view .LVU574
1395:Drivers/STM32F4xx_HAL_Driver/Src/stm32f4xx_ll_fmc.c ****                        Init->RowBitsNumber      |\
 1635              		.loc 1 1395 11 is_stmt 0 view .LVU575
 1636 0070 0B43     		orrs	r3, r3, r1
 1637              	.LVL109:
1402:Drivers/STM32F4xx_HAL_Driver/Src/stm32f4xx_ll_fmc.c ****     Device->SDCR[FMC_SDRAM_BANK2] = tmpr2;
 1638              		.loc 1 1402 5 is_stmt 1 view .LVU576
1402:Drivers/STM32F4xx_HAL_Driver/Src/stm32f4xx_ll_fmc.c ****     Device->SDCR[FMC_SDRAM_BANK2] = tmpr2;
 1639              		.loc 1 1402 35 is_stmt 0 view .LVU577
 1640 0072 0260     		str	r2, [r0]
1403:Drivers/STM32F4xx_HAL_Driver/Src/stm32f4xx_ll_fmc.c ****   }  
 1641              		.loc 1 1403 5 is_stmt 1 view .LVU578
 1642              		.loc 1 1407 1 is_stmt 0 view .LVU579
 1643 0074 70BC     		pop	{r4, r5, r6}
 1644              	.LCFI39:
 1645              		.cfi_restore 6
 1646              		.cfi_restore 5
 1647              		.cfi_restore 4
 1648              		.cfi_def_cfa_offset 0
1403:Drivers/STM32F4xx_HAL_Driver/Src/stm32f4xx_ll_fmc.c ****   }  
 1649              		.loc 1 1403 35 view .LVU580
 1650 0076 4360     		str	r3, [r0, #4]
1406:Drivers/STM32F4xx_HAL_Driver/Src/stm32f4xx_ll_fmc.c **** }
 1651              		.loc 1 1406 3 is_stmt 1 view .LVU581
 1652              		.loc 1 1407 1 is_stmt 0 view .LVU582
 1653 0078 0020     		movs	r0, #0
 1654              	.LVL110:
 1655              		.loc 1 1407 1 view .LVU583
 1656 007a 7047     		bx	lr
 1657              		.cfi_endproc
 1658              	.LFE148:
 1660              		.section	.text.FMC_SDRAM_Timing_Init,"ax",%progbits
 1661              		.align	1
 1662              		.p2align 2,,3
 1663              		.global	FMC_SDRAM_Timing_Init
 1664              		.syntax unified
 1665              		.thumb
 1666              		.thumb_func
 1667              		.fpu fpv4-sp-d16
 1669              	FMC_SDRAM_Timing_Init:
 1670              	.LVL111:
 1671              	.LFB149:
1408:Drivers/STM32F4xx_HAL_Driver/Src/stm32f4xx_ll_fmc.c **** 
1409:Drivers/STM32F4xx_HAL_Driver/Src/stm32f4xx_ll_fmc.c **** /**
1410:Drivers/STM32F4xx_HAL_Driver/Src/stm32f4xx_ll_fmc.c ****   * @brief  Initializes the FMC_SDRAM device timing according to the specified
1411:Drivers/STM32F4xx_HAL_Driver/Src/stm32f4xx_ll_fmc.c ****   *         parameters in the FMC_SDRAM_TimingTypeDef
1412:Drivers/STM32F4xx_HAL_Driver/Src/stm32f4xx_ll_fmc.c ****   * @param  Device Pointer to SDRAM device instance
1413:Drivers/STM32F4xx_HAL_Driver/Src/stm32f4xx_ll_fmc.c ****   * @param  Timing Pointer to SDRAM Timing structure
1414:Drivers/STM32F4xx_HAL_Driver/Src/stm32f4xx_ll_fmc.c ****   * @param  Bank SDRAM bank number   
1415:Drivers/STM32F4xx_HAL_Driver/Src/stm32f4xx_ll_fmc.c ****   * @retval HAL status
1416:Drivers/STM32F4xx_HAL_Driver/Src/stm32f4xx_ll_fmc.c ****   */
1417:Drivers/STM32F4xx_HAL_Driver/Src/stm32f4xx_ll_fmc.c **** HAL_StatusTypeDef FMC_SDRAM_Timing_Init(FMC_SDRAM_TypeDef *Device, FMC_SDRAM_TimingTypeDef *Timing,
1418:Drivers/STM32F4xx_HAL_Driver/Src/stm32f4xx_ll_fmc.c **** {
 1672              		.loc 1 1418 1 is_stmt 1 view -0
 1673              		.cfi_startproc
 1674              		@ args = 0, pretend = 0, frame = 0
ARM GAS  C:\Users\zoosman\AppData\Local\Temp\ccuisvXz.s 			page 59


 1675              		@ frame_needed = 0, uses_anonymous_args = 0
 1676              		@ link register save eliminated.
1419:Drivers/STM32F4xx_HAL_Driver/Src/stm32f4xx_ll_fmc.c ****   uint32_t tmpr1 = 0U;
 1677              		.loc 1 1419 3 view .LVU585
1420:Drivers/STM32F4xx_HAL_Driver/Src/stm32f4xx_ll_fmc.c ****   uint32_t tmpr2 = 0U;
 1678              		.loc 1 1420 3 view .LVU586
1421:Drivers/STM32F4xx_HAL_Driver/Src/stm32f4xx_ll_fmc.c ****     
1422:Drivers/STM32F4xx_HAL_Driver/Src/stm32f4xx_ll_fmc.c ****   /* Check the parameters */
1423:Drivers/STM32F4xx_HAL_Driver/Src/stm32f4xx_ll_fmc.c ****   assert_param(IS_FMC_SDRAM_DEVICE(Device));
 1679              		.loc 1 1423 3 view .LVU587
1424:Drivers/STM32F4xx_HAL_Driver/Src/stm32f4xx_ll_fmc.c ****   assert_param(IS_FMC_LOADTOACTIVE_DELAY(Timing->LoadToActiveDelay));
 1680              		.loc 1 1424 3 view .LVU588
1425:Drivers/STM32F4xx_HAL_Driver/Src/stm32f4xx_ll_fmc.c ****   assert_param(IS_FMC_EXITSELFREFRESH_DELAY(Timing->ExitSelfRefreshDelay));
 1681              		.loc 1 1425 3 view .LVU589
1426:Drivers/STM32F4xx_HAL_Driver/Src/stm32f4xx_ll_fmc.c ****   assert_param(IS_FMC_SELFREFRESH_TIME(Timing->SelfRefreshTime));
 1682              		.loc 1 1426 3 view .LVU590
1427:Drivers/STM32F4xx_HAL_Driver/Src/stm32f4xx_ll_fmc.c ****   assert_param(IS_FMC_ROWCYCLE_DELAY(Timing->RowCycleDelay));
 1683              		.loc 1 1427 3 view .LVU591
1428:Drivers/STM32F4xx_HAL_Driver/Src/stm32f4xx_ll_fmc.c ****   assert_param(IS_FMC_WRITE_RECOVERY_TIME(Timing->WriteRecoveryTime));
 1684              		.loc 1 1428 3 view .LVU592
1429:Drivers/STM32F4xx_HAL_Driver/Src/stm32f4xx_ll_fmc.c ****   assert_param(IS_FMC_RP_DELAY(Timing->RPDelay));
 1685              		.loc 1 1429 3 view .LVU593
1430:Drivers/STM32F4xx_HAL_Driver/Src/stm32f4xx_ll_fmc.c ****   assert_param(IS_FMC_RCD_DELAY(Timing->RCDDelay));
 1686              		.loc 1 1430 3 view .LVU594
1431:Drivers/STM32F4xx_HAL_Driver/Src/stm32f4xx_ll_fmc.c ****   assert_param(IS_FMC_SDRAM_BANK(Bank));
 1687              		.loc 1 1431 3 view .LVU595
1432:Drivers/STM32F4xx_HAL_Driver/Src/stm32f4xx_ll_fmc.c ****   
1433:Drivers/STM32F4xx_HAL_Driver/Src/stm32f4xx_ll_fmc.c ****   /* Set SDRAM device timing parameters */ 
1434:Drivers/STM32F4xx_HAL_Driver/Src/stm32f4xx_ll_fmc.c ****   if (Bank != FMC_SDRAM_BANK2) 
 1688              		.loc 1 1434 3 view .LVU596
 1689              		.loc 1 1434 6 is_stmt 0 view .LVU597
 1690 0000 012A     		cmp	r2, #1
1418:Drivers/STM32F4xx_HAL_Driver/Src/stm32f4xx_ll_fmc.c ****   uint32_t tmpr1 = 0U;
 1691              		.loc 1 1418 1 view .LVU598
 1692 0002 70B4     		push	{r4, r5, r6}
 1693              	.LCFI40:
 1694              		.cfi_def_cfa_offset 12
 1695              		.cfi_offset 4, -12
 1696              		.cfi_offset 5, -8
 1697              		.cfi_offset 6, -4
 1698              		.loc 1 1434 6 view .LVU599
 1699 0004 21D0     		beq	.L94
1435:Drivers/STM32F4xx_HAL_Driver/Src/stm32f4xx_ll_fmc.c ****   { 
1436:Drivers/STM32F4xx_HAL_Driver/Src/stm32f4xx_ll_fmc.c ****     tmpr1 = Device->SDTR[FMC_SDRAM_BANK1];
 1700              		.loc 1 1436 5 is_stmt 1 view .LVU600
1437:Drivers/STM32F4xx_HAL_Driver/Src/stm32f4xx_ll_fmc.c ****     
1438:Drivers/STM32F4xx_HAL_Driver/Src/stm32f4xx_ll_fmc.c ****     /* Clear TMRD, TXSR, TRAS, TRC, TWR, TRP and TRCD bits */
1439:Drivers/STM32F4xx_HAL_Driver/Src/stm32f4xx_ll_fmc.c ****     tmpr1 &= ((uint32_t)~(FMC_SDTR1_TMRD  | FMC_SDTR1_TXSR | FMC_SDTR1_TRAS | \
1440:Drivers/STM32F4xx_HAL_Driver/Src/stm32f4xx_ll_fmc.c ****                           FMC_SDTR1_TRC  | FMC_SDTR1_TWR | FMC_SDTR1_TRP | \
1441:Drivers/STM32F4xx_HAL_Driver/Src/stm32f4xx_ll_fmc.c ****                           FMC_SDTR1_TRCD));
1442:Drivers/STM32F4xx_HAL_Driver/Src/stm32f4xx_ll_fmc.c ****     
1443:Drivers/STM32F4xx_HAL_Driver/Src/stm32f4xx_ll_fmc.c ****     tmpr1 |= (uint32_t)(((Timing->LoadToActiveDelay)-1U)           |\
 1701              		.loc 1 1443 53 is_stmt 0 view .LVU601
 1702 0006 D1E90025 		ldrd	r2, r5, [r1]
 1703              	.LVL112:
1436:Drivers/STM32F4xx_HAL_Driver/Src/stm32f4xx_ll_fmc.c ****     
 1704              		.loc 1 1436 11 view .LVU602
ARM GAS  C:\Users\zoosman\AppData\Local\Temp\ccuisvXz.s 			page 60


 1705 000a 8368     		ldr	r3, [r0, #8]
 1706              	.LVL113:
1439:Drivers/STM32F4xx_HAL_Driver/Src/stm32f4xx_ll_fmc.c ****                           FMC_SDTR1_TRC  | FMC_SDTR1_TWR | FMC_SDTR1_TRP | \
 1707              		.loc 1 1439 5 is_stmt 1 view .LVU603
 1708              		.loc 1 1443 5 view .LVU604
1444:Drivers/STM32F4xx_HAL_Driver/Src/stm32f4xx_ll_fmc.c ****                        (((Timing->ExitSelfRefreshDelay)-1U) << 4U) |\
1445:Drivers/STM32F4xx_HAL_Driver/Src/stm32f4xx_ll_fmc.c ****                        (((Timing->SelfRefreshTime)-1U) << 8U)      |\
 1709              		.loc 1 1445 51 is_stmt 0 view .LVU605
 1710 000c 8C68     		ldr	r4, [r1, #8]
1444:Drivers/STM32F4xx_HAL_Driver/Src/stm32f4xx_ll_fmc.c ****                        (((Timing->ExitSelfRefreshDelay)-1U) << 4U) |\
 1711              		.loc 1 1444 56 view .LVU606
 1712 000e 013D     		subs	r5, r5, #1
1439:Drivers/STM32F4xx_HAL_Driver/Src/stm32f4xx_ll_fmc.c ****                           FMC_SDTR1_TRC  | FMC_SDTR1_TWR | FMC_SDTR1_TRP | \
 1713              		.loc 1 1439 11 view .LVU607
 1714 0010 03F07043 		and	r3, r3, #-268435456
 1715              	.LVL114:
1439:Drivers/STM32F4xx_HAL_Driver/Src/stm32f4xx_ll_fmc.c ****                           FMC_SDTR1_TRC  | FMC_SDTR1_TWR | FMC_SDTR1_TRP | \
 1716              		.loc 1 1439 11 view .LVU608
 1717 0014 43EA0513 		orr	r3, r3, r5, lsl #4
 1718              	.LVL115:
1443:Drivers/STM32F4xx_HAL_Driver/Src/stm32f4xx_ll_fmc.c ****                        (((Timing->ExitSelfRefreshDelay)-1U) << 4U) |\
 1719              		.loc 1 1443 53 view .LVU609
 1720 0018 551E     		subs	r5, r2, #1
1446:Drivers/STM32F4xx_HAL_Driver/Src/stm32f4xx_ll_fmc.c ****                        (((Timing->RowCycleDelay)-1U) << 12U)       |\
 1721              		.loc 1 1446 49 view .LVU610
 1722 001a CA68     		ldr	r2, [r1, #12]
 1723 001c 2B43     		orrs	r3, r3, r5
1445:Drivers/STM32F4xx_HAL_Driver/Src/stm32f4xx_ll_fmc.c ****                        (((Timing->RowCycleDelay)-1U) << 12U)       |\
 1724              		.loc 1 1445 51 view .LVU611
 1725 001e 013C     		subs	r4, r4, #1
1447:Drivers/STM32F4xx_HAL_Driver/Src/stm32f4xx_ll_fmc.c ****                        (((Timing->WriteRecoveryTime)-1U) <<16U)    |\
 1726              		.loc 1 1447 53 view .LVU612
 1727 0020 0D69     		ldr	r5, [r1, #16]
1446:Drivers/STM32F4xx_HAL_Driver/Src/stm32f4xx_ll_fmc.c ****                        (((Timing->RowCycleDelay)-1U) << 12U)       |\
 1728              		.loc 1 1446 49 view .LVU613
 1729 0022 561E     		subs	r6, r2, #1
 1730 0024 43EA0423 		orr	r3, r3, r4, lsl #8
1448:Drivers/STM32F4xx_HAL_Driver/Src/stm32f4xx_ll_fmc.c ****                        (((Timing->RPDelay)-1U) << 20U)             |\
1449:Drivers/STM32F4xx_HAL_Driver/Src/stm32f4xx_ll_fmc.c ****                        (((Timing->RCDDelay)-1U) << 24U));
 1731              		.loc 1 1449 44 view .LVU614
 1732 0028 D1E90542 		ldrd	r4, r2, [r1, #20]
 1733 002c 43EA0633 		orr	r3, r3, r6, lsl #12
1447:Drivers/STM32F4xx_HAL_Driver/Src/stm32f4xx_ll_fmc.c ****                        (((Timing->WriteRecoveryTime)-1U) <<16U)    |\
 1734              		.loc 1 1447 53 view .LVU615
 1735 0030 691E     		subs	r1, r5, #1
 1736              	.LVL116:
1447:Drivers/STM32F4xx_HAL_Driver/Src/stm32f4xx_ll_fmc.c ****                        (((Timing->WriteRecoveryTime)-1U) <<16U)    |\
 1737              		.loc 1 1447 53 view .LVU616
 1738 0032 43EA0143 		orr	r3, r3, r1, lsl #16
1448:Drivers/STM32F4xx_HAL_Driver/Src/stm32f4xx_ll_fmc.c ****                        (((Timing->RPDelay)-1U) << 20U)             |\
 1739              		.loc 1 1448 43 view .LVU617
 1740 0036 611E     		subs	r1, r4, #1
 1741 0038 43EA0153 		orr	r3, r3, r1, lsl #20
 1742              		.loc 1 1449 44 view .LVU618
 1743 003c 013A     		subs	r2, r2, #1
1443:Drivers/STM32F4xx_HAL_Driver/Src/stm32f4xx_ll_fmc.c ****                        (((Timing->ExitSelfRefreshDelay)-1U) << 4U) |\
 1744              		.loc 1 1443 11 view .LVU619
ARM GAS  C:\Users\zoosman\AppData\Local\Temp\ccuisvXz.s 			page 61


 1745 003e 43EA0263 		orr	r3, r3, r2, lsl #24
 1746              	.LVL117:
1450:Drivers/STM32F4xx_HAL_Driver/Src/stm32f4xx_ll_fmc.c ****     Device->SDTR[FMC_SDRAM_BANK1] = tmpr1;
 1747              		.loc 1 1450 5 is_stmt 1 view .LVU620
 1748              		.loc 1 1450 35 is_stmt 0 view .LVU621
 1749 0042 8360     		str	r3, [r0, #8]
1451:Drivers/STM32F4xx_HAL_Driver/Src/stm32f4xx_ll_fmc.c ****   }
1452:Drivers/STM32F4xx_HAL_Driver/Src/stm32f4xx_ll_fmc.c ****    else /* FMC_Bank2_SDRAM */
1453:Drivers/STM32F4xx_HAL_Driver/Src/stm32f4xx_ll_fmc.c ****   {
1454:Drivers/STM32F4xx_HAL_Driver/Src/stm32f4xx_ll_fmc.c ****     tmpr1 = Device->SDTR[FMC_SDRAM_BANK1];
1455:Drivers/STM32F4xx_HAL_Driver/Src/stm32f4xx_ll_fmc.c ****     
1456:Drivers/STM32F4xx_HAL_Driver/Src/stm32f4xx_ll_fmc.c ****     /* Clear TRC and TRP bits */
1457:Drivers/STM32F4xx_HAL_Driver/Src/stm32f4xx_ll_fmc.c ****     tmpr1 &= ((uint32_t)~(FMC_SDTR1_TRC | FMC_SDTR1_TRP));
1458:Drivers/STM32F4xx_HAL_Driver/Src/stm32f4xx_ll_fmc.c ****     
1459:Drivers/STM32F4xx_HAL_Driver/Src/stm32f4xx_ll_fmc.c ****     tmpr1 |= (uint32_t)((((Timing->RowCycleDelay)-1U) << 12U)       |\
1460:Drivers/STM32F4xx_HAL_Driver/Src/stm32f4xx_ll_fmc.c ****                         (((Timing->RPDelay)-1U) << 20U)); 
1461:Drivers/STM32F4xx_HAL_Driver/Src/stm32f4xx_ll_fmc.c ****     
1462:Drivers/STM32F4xx_HAL_Driver/Src/stm32f4xx_ll_fmc.c ****     tmpr2 = Device->SDTR[FMC_SDRAM_BANK2];
1463:Drivers/STM32F4xx_HAL_Driver/Src/stm32f4xx_ll_fmc.c ****     
1464:Drivers/STM32F4xx_HAL_Driver/Src/stm32f4xx_ll_fmc.c ****     /* Clear TMRD, TXSR, TRAS, TRC, TWR, TRP and TRCD bits */
1465:Drivers/STM32F4xx_HAL_Driver/Src/stm32f4xx_ll_fmc.c ****     tmpr2 &= ((uint32_t)~(FMC_SDTR1_TMRD  | FMC_SDTR1_TXSR | FMC_SDTR1_TRAS | \
1466:Drivers/STM32F4xx_HAL_Driver/Src/stm32f4xx_ll_fmc.c ****                           FMC_SDTR1_TRC  | FMC_SDTR1_TWR | FMC_SDTR1_TRP | \
1467:Drivers/STM32F4xx_HAL_Driver/Src/stm32f4xx_ll_fmc.c ****                           FMC_SDTR1_TRCD));
1468:Drivers/STM32F4xx_HAL_Driver/Src/stm32f4xx_ll_fmc.c ****     
1469:Drivers/STM32F4xx_HAL_Driver/Src/stm32f4xx_ll_fmc.c ****     tmpr2 |= (uint32_t)((((Timing->LoadToActiveDelay)-1U)           |\
1470:Drivers/STM32F4xx_HAL_Driver/Src/stm32f4xx_ll_fmc.c ****                        (((Timing->ExitSelfRefreshDelay)-1U) << 4U)  |\
1471:Drivers/STM32F4xx_HAL_Driver/Src/stm32f4xx_ll_fmc.c ****                        (((Timing->SelfRefreshTime)-1U) << 8U)       |\
1472:Drivers/STM32F4xx_HAL_Driver/Src/stm32f4xx_ll_fmc.c ****                        (((Timing->WriteRecoveryTime)-1U) <<16U)     |\
1473:Drivers/STM32F4xx_HAL_Driver/Src/stm32f4xx_ll_fmc.c ****                        (((Timing->RCDDelay)-1U) << 24U)));   
1474:Drivers/STM32F4xx_HAL_Driver/Src/stm32f4xx_ll_fmc.c **** 
1475:Drivers/STM32F4xx_HAL_Driver/Src/stm32f4xx_ll_fmc.c ****     Device->SDTR[FMC_SDRAM_BANK1] = tmpr1;
1476:Drivers/STM32F4xx_HAL_Driver/Src/stm32f4xx_ll_fmc.c ****     Device->SDTR[FMC_SDRAM_BANK2] = tmpr2;
1477:Drivers/STM32F4xx_HAL_Driver/Src/stm32f4xx_ll_fmc.c ****   }
1478:Drivers/STM32F4xx_HAL_Driver/Src/stm32f4xx_ll_fmc.c ****   return HAL_OK;
 1750              		.loc 1 1478 3 is_stmt 1 view .LVU622
1479:Drivers/STM32F4xx_HAL_Driver/Src/stm32f4xx_ll_fmc.c **** }
 1751              		.loc 1 1479 1 is_stmt 0 view .LVU623
 1752 0044 70BC     		pop	{r4, r5, r6}
 1753              	.LCFI41:
 1754              		.cfi_remember_state
 1755              		.cfi_restore 6
 1756              		.cfi_restore 5
 1757              		.cfi_restore 4
 1758              		.cfi_def_cfa_offset 0
 1759 0046 0020     		movs	r0, #0
 1760              	.LVL118:
 1761              		.loc 1 1479 1 view .LVU624
 1762 0048 7047     		bx	lr
 1763              	.LVL119:
 1764              	.L94:
 1765              	.LCFI42:
 1766              		.cfi_restore_state
1454:Drivers/STM32F4xx_HAL_Driver/Src/stm32f4xx_ll_fmc.c ****     
 1767              		.loc 1 1454 5 is_stmt 1 view .LVU625
1454:Drivers/STM32F4xx_HAL_Driver/Src/stm32f4xx_ll_fmc.c ****     
 1768              		.loc 1 1454 11 is_stmt 0 view .LVU626
 1769 004a 8268     		ldr	r2, [r0, #8]
ARM GAS  C:\Users\zoosman\AppData\Local\Temp\ccuisvXz.s 			page 62


 1770              	.LVL120:
1457:Drivers/STM32F4xx_HAL_Driver/Src/stm32f4xx_ll_fmc.c ****     
 1771              		.loc 1 1457 5 is_stmt 1 view .LVU627
1459:Drivers/STM32F4xx_HAL_Driver/Src/stm32f4xx_ll_fmc.c ****                         (((Timing->RPDelay)-1U) << 20U)); 
 1772              		.loc 1 1459 5 view .LVU628
1470:Drivers/STM32F4xx_HAL_Driver/Src/stm32f4xx_ll_fmc.c ****                        (((Timing->SelfRefreshTime)-1U) << 8U)       |\
 1773              		.loc 1 1470 56 is_stmt 0 view .LVU629
 1774 004c 4E68     		ldr	r6, [r1, #4]
1462:Drivers/STM32F4xx_HAL_Driver/Src/stm32f4xx_ll_fmc.c ****     
 1775              		.loc 1 1462 11 view .LVU630
 1776 004e C368     		ldr	r3, [r0, #12]
 1777              	.LVL121:
1469:Drivers/STM32F4xx_HAL_Driver/Src/stm32f4xx_ll_fmc.c ****                        (((Timing->ExitSelfRefreshDelay)-1U) << 4U)  |\
 1778              		.loc 1 1469 54 view .LVU631
 1779 0050 0D68     		ldr	r5, [r1]
1459:Drivers/STM32F4xx_HAL_Driver/Src/stm32f4xx_ll_fmc.c ****                         (((Timing->RPDelay)-1U) << 20U)); 
 1780              		.loc 1 1459 50 view .LVU632
 1781 0052 CC68     		ldr	r4, [r1, #12]
1470:Drivers/STM32F4xx_HAL_Driver/Src/stm32f4xx_ll_fmc.c ****                        (((Timing->SelfRefreshTime)-1U) << 8U)       |\
 1782              		.loc 1 1470 56 view .LVU633
 1783 0054 013E     		subs	r6, r6, #1
1465:Drivers/STM32F4xx_HAL_Driver/Src/stm32f4xx_ll_fmc.c ****                           FMC_SDTR1_TRC  | FMC_SDTR1_TWR | FMC_SDTR1_TRP | \
 1784              		.loc 1 1465 11 view .LVU634
 1785 0056 03F07043 		and	r3, r3, #-268435456
1457:Drivers/STM32F4xx_HAL_Driver/Src/stm32f4xx_ll_fmc.c ****     
 1786              		.loc 1 1457 11 view .LVU635
 1787 005a 22F47002 		bic	r2, r2, #15728640
 1788              	.LVL122:
1457:Drivers/STM32F4xx_HAL_Driver/Src/stm32f4xx_ll_fmc.c ****     
 1789              		.loc 1 1457 11 view .LVU636
 1790 005e 43EA0613 		orr	r3, r3, r6, lsl #4
1469:Drivers/STM32F4xx_HAL_Driver/Src/stm32f4xx_ll_fmc.c ****                        (((Timing->ExitSelfRefreshDelay)-1U) << 4U)  |\
 1791              		.loc 1 1469 54 view .LVU637
 1792 0062 013D     		subs	r5, r5, #1
