ARM GAS  C:\Users\zoosman\AppData\Local\Temp\cc7JyQVY.s 			page 1


   1              		.cpu cortex-m4
   2              		.eabi_attribute 27, 1
   3              		.eabi_attribute 28, 1
   4              		.eabi_attribute 20, 1
   5              		.eabi_attribute 21, 1
   6              		.eabi_attribute 23, 3
   7              		.eabi_attribute 24, 1
   8              		.eabi_attribute 25, 1
   9              		.eabi_attribute 26, 1
  10              		.eabi_attribute 30, 2
  11              		.eabi_attribute 34, 1
  12              		.eabi_attribute 18, 4
  13              		.file	"stm32f4xx_ll_exti.c"
  14              		.text
  15              	.Ltext0:
  16              		.cfi_sections	.debug_frame
  17              		.section	.text.LL_EXTI_DeInit,"ax",%progbits
  18              		.align	1
  19              		.p2align 2,,3
  20              		.global	LL_EXTI_DeInit
  21              		.arch armv7e-m
  22              		.syntax unified
  23              		.thumb
  24              		.thumb_func
  25              		.fpu fpv4-sp-d16
  27              	LL_EXTI_DeInit:
  28              	.LFB146:
  29              		.file 1 "Drivers/STM32F4xx_HAL_Driver/Src/stm32f4xx_ll_exti.c"
   1:Drivers/STM32F4xx_HAL_Driver/Src/stm32f4xx_ll_exti.c **** /**
   2:Drivers/STM32F4xx_HAL_Driver/Src/stm32f4xx_ll_exti.c ****   ******************************************************************************
   3:Drivers/STM32F4xx_HAL_Driver/Src/stm32f4xx_ll_exti.c ****   * @file    stm32f4xx_ll_exti.c
   4:Drivers/STM32F4xx_HAL_Driver/Src/stm32f4xx_ll_exti.c ****   * @author  MCD Application Team
   5:Drivers/STM32F4xx_HAL_Driver/Src/stm32f4xx_ll_exti.c ****   * @brief   EXTI LL module driver.
   6:Drivers/STM32F4xx_HAL_Driver/Src/stm32f4xx_ll_exti.c ****   ******************************************************************************
   7:Drivers/STM32F4xx_HAL_Driver/Src/stm32f4xx_ll_exti.c ****   * @attention
   8:Drivers/STM32F4xx_HAL_Driver/Src/stm32f4xx_ll_exti.c ****   *
   9:Drivers/STM32F4xx_HAL_Driver/Src/stm32f4xx_ll_exti.c ****   * <h2><center>&copy; Copyright (c) 2016 STMicroelectronics.
  10:Drivers/STM32F4xx_HAL_Driver/Src/stm32f4xx_ll_exti.c ****   * All rights reserved.</center></h2>
  11:Drivers/STM32F4xx_HAL_Driver/Src/stm32f4xx_ll_exti.c ****   *
  12:Drivers/STM32F4xx_HAL_Driver/Src/stm32f4xx_ll_exti.c ****   * This software component is licensed by ST under BSD 3-Clause license,
  13:Drivers/STM32F4xx_HAL_Driver/Src/stm32f4xx_ll_exti.c ****   * the "License"; You may not use this file except in compliance with the
  14:Drivers/STM32F4xx_HAL_Driver/Src/stm32f4xx_ll_exti.c ****   * License. You may obtain a copy of the License at:
  15:Drivers/STM32F4xx_HAL_Driver/Src/stm32f4xx_ll_exti.c ****   *                        opensource.org/licenses/BSD-3-Clause
  16:Drivers/STM32F4xx_HAL_Driver/Src/stm32f4xx_ll_exti.c ****   *
  17:Drivers/STM32F4xx_HAL_Driver/Src/stm32f4xx_ll_exti.c ****   ******************************************************************************
  18:Drivers/STM32F4xx_HAL_Driver/Src/stm32f4xx_ll_exti.c ****   */
  19:Drivers/STM32F4xx_HAL_Driver/Src/stm32f4xx_ll_exti.c **** #if defined(USE_FULL_LL_DRIVER)
  20:Drivers/STM32F4xx_HAL_Driver/Src/stm32f4xx_ll_exti.c **** 
  21:Drivers/STM32F4xx_HAL_Driver/Src/stm32f4xx_ll_exti.c **** /* Includes ------------------------------------------------------------------*/
  22:Drivers/STM32F4xx_HAL_Driver/Src/stm32f4xx_ll_exti.c **** #include "stm32f4xx_ll_exti.h"
  23:Drivers/STM32F4xx_HAL_Driver/Src/stm32f4xx_ll_exti.c **** #ifdef  USE_FULL_ASSERT
  24:Drivers/STM32F4xx_HAL_Driver/Src/stm32f4xx_ll_exti.c **** #include "stm32_assert.h"
  25:Drivers/STM32F4xx_HAL_Driver/Src/stm32f4xx_ll_exti.c **** #else
  26:Drivers/STM32F4xx_HAL_Driver/Src/stm32f4xx_ll_exti.c **** #define assert_param(expr) ((void)0U)
  27:Drivers/STM32F4xx_HAL_Driver/Src/stm32f4xx_ll_exti.c **** #endif
  28:Drivers/STM32F4xx_HAL_Driver/Src/stm32f4xx_ll_exti.c **** 
  29:Drivers/STM32F4xx_HAL_Driver/Src/stm32f4xx_ll_exti.c **** /** @addtogroup STM32F4xx_LL_Driver
ARM GAS  C:\Users\zoosman\AppData\Local\Temp\cc7JyQVY.s 			page 2


  30:Drivers/STM32F4xx_HAL_Driver/Src/stm32f4xx_ll_exti.c ****   * @{
  31:Drivers/STM32F4xx_HAL_Driver/Src/stm32f4xx_ll_exti.c ****   */
  32:Drivers/STM32F4xx_HAL_Driver/Src/stm32f4xx_ll_exti.c **** 
  33:Drivers/STM32F4xx_HAL_Driver/Src/stm32f4xx_ll_exti.c **** #if defined (EXTI)
  34:Drivers/STM32F4xx_HAL_Driver/Src/stm32f4xx_ll_exti.c **** 
  35:Drivers/STM32F4xx_HAL_Driver/Src/stm32f4xx_ll_exti.c **** /** @defgroup EXTI_LL EXTI
  36:Drivers/STM32F4xx_HAL_Driver/Src/stm32f4xx_ll_exti.c ****   * @{
  37:Drivers/STM32F4xx_HAL_Driver/Src/stm32f4xx_ll_exti.c ****   */
  38:Drivers/STM32F4xx_HAL_Driver/Src/stm32f4xx_ll_exti.c **** 
  39:Drivers/STM32F4xx_HAL_Driver/Src/stm32f4xx_ll_exti.c **** /* Private types -------------------------------------------------------------*/
  40:Drivers/STM32F4xx_HAL_Driver/Src/stm32f4xx_ll_exti.c **** /* Private variables ---------------------------------------------------------*/
  41:Drivers/STM32F4xx_HAL_Driver/Src/stm32f4xx_ll_exti.c **** /* Private constants ---------------------------------------------------------*/
  42:Drivers/STM32F4xx_HAL_Driver/Src/stm32f4xx_ll_exti.c **** /* Private macros ------------------------------------------------------------*/
  43:Drivers/STM32F4xx_HAL_Driver/Src/stm32f4xx_ll_exti.c **** /** @addtogroup EXTI_LL_Private_Macros
  44:Drivers/STM32F4xx_HAL_Driver/Src/stm32f4xx_ll_exti.c ****   * @{
  45:Drivers/STM32F4xx_HAL_Driver/Src/stm32f4xx_ll_exti.c ****   */
  46:Drivers/STM32F4xx_HAL_Driver/Src/stm32f4xx_ll_exti.c **** 
  47:Drivers/STM32F4xx_HAL_Driver/Src/stm32f4xx_ll_exti.c **** #define IS_LL_EXTI_LINE_0_31(__VALUE__)              (((__VALUE__) & ~LL_EXTI_LINE_ALL_0_31) == 0x0
  48:Drivers/STM32F4xx_HAL_Driver/Src/stm32f4xx_ll_exti.c **** 
  49:Drivers/STM32F4xx_HAL_Driver/Src/stm32f4xx_ll_exti.c **** #define IS_LL_EXTI_MODE(__VALUE__)                   (((__VALUE__) == LL_EXTI_MODE_IT)            \
  50:Drivers/STM32F4xx_HAL_Driver/Src/stm32f4xx_ll_exti.c ****                                                    || ((__VALUE__) == LL_EXTI_MODE_EVENT)         \
  51:Drivers/STM32F4xx_HAL_Driver/Src/stm32f4xx_ll_exti.c ****                                                    || ((__VALUE__) == LL_EXTI_MODE_IT_EVENT))
  52:Drivers/STM32F4xx_HAL_Driver/Src/stm32f4xx_ll_exti.c **** 
  53:Drivers/STM32F4xx_HAL_Driver/Src/stm32f4xx_ll_exti.c **** 
  54:Drivers/STM32F4xx_HAL_Driver/Src/stm32f4xx_ll_exti.c **** #define IS_LL_EXTI_TRIGGER(__VALUE__)                (((__VALUE__) == LL_EXTI_TRIGGER_NONE)       \
  55:Drivers/STM32F4xx_HAL_Driver/Src/stm32f4xx_ll_exti.c ****                                                    || ((__VALUE__) == LL_EXTI_TRIGGER_RISING)     \
  56:Drivers/STM32F4xx_HAL_Driver/Src/stm32f4xx_ll_exti.c ****                                                    || ((__VALUE__) == LL_EXTI_TRIGGER_FALLING)    \
  57:Drivers/STM32F4xx_HAL_Driver/Src/stm32f4xx_ll_exti.c ****                                                    || ((__VALUE__) == LL_EXTI_TRIGGER_RISING_FALLIN
  58:Drivers/STM32F4xx_HAL_Driver/Src/stm32f4xx_ll_exti.c **** 
  59:Drivers/STM32F4xx_HAL_Driver/Src/stm32f4xx_ll_exti.c **** /**
  60:Drivers/STM32F4xx_HAL_Driver/Src/stm32f4xx_ll_exti.c ****   * @}
  61:Drivers/STM32F4xx_HAL_Driver/Src/stm32f4xx_ll_exti.c ****   */
  62:Drivers/STM32F4xx_HAL_Driver/Src/stm32f4xx_ll_exti.c **** 
  63:Drivers/STM32F4xx_HAL_Driver/Src/stm32f4xx_ll_exti.c **** /* Private function prototypes -----------------------------------------------*/
  64:Drivers/STM32F4xx_HAL_Driver/Src/stm32f4xx_ll_exti.c **** 
  65:Drivers/STM32F4xx_HAL_Driver/Src/stm32f4xx_ll_exti.c **** /* Exported functions --------------------------------------------------------*/
  66:Drivers/STM32F4xx_HAL_Driver/Src/stm32f4xx_ll_exti.c **** /** @addtogroup EXTI_LL_Exported_Functions
  67:Drivers/STM32F4xx_HAL_Driver/Src/stm32f4xx_ll_exti.c ****   * @{
  68:Drivers/STM32F4xx_HAL_Driver/Src/stm32f4xx_ll_exti.c ****   */
  69:Drivers/STM32F4xx_HAL_Driver/Src/stm32f4xx_ll_exti.c **** 
  70:Drivers/STM32F4xx_HAL_Driver/Src/stm32f4xx_ll_exti.c **** /** @addtogroup EXTI_LL_EF_Init
  71:Drivers/STM32F4xx_HAL_Driver/Src/stm32f4xx_ll_exti.c ****   * @{
  72:Drivers/STM32F4xx_HAL_Driver/Src/stm32f4xx_ll_exti.c ****   */
  73:Drivers/STM32F4xx_HAL_Driver/Src/stm32f4xx_ll_exti.c **** 
  74:Drivers/STM32F4xx_HAL_Driver/Src/stm32f4xx_ll_exti.c **** /**
  75:Drivers/STM32F4xx_HAL_Driver/Src/stm32f4xx_ll_exti.c ****   * @brief  De-initialize the EXTI registers to their default reset values.
  76:Drivers/STM32F4xx_HAL_Driver/Src/stm32f4xx_ll_exti.c ****   * @retval An ErrorStatus enumeration value:
  77:Drivers/STM32F4xx_HAL_Driver/Src/stm32f4xx_ll_exti.c ****   *          - SUCCESS: EXTI registers are de-initialized
  78:Drivers/STM32F4xx_HAL_Driver/Src/stm32f4xx_ll_exti.c ****   *          - ERROR: not applicable
  79:Drivers/STM32F4xx_HAL_Driver/Src/stm32f4xx_ll_exti.c ****   */
  80:Drivers/STM32F4xx_HAL_Driver/Src/stm32f4xx_ll_exti.c **** uint32_t LL_EXTI_DeInit(void)
  81:Drivers/STM32F4xx_HAL_Driver/Src/stm32f4xx_ll_exti.c **** {
  30              		.loc 1 81 1 view -0
  31              		.cfi_startproc
  32              		@ args = 0, pretend = 0, frame = 0
  33              		@ frame_needed = 0, uses_anonymous_args = 0
  34              		@ link register save eliminated.
ARM GAS  C:\Users\zoosman\AppData\Local\Temp\cc7JyQVY.s 			page 3


  82:Drivers/STM32F4xx_HAL_Driver/Src/stm32f4xx_ll_exti.c ****   /* Interrupt mask register set to default reset values */
  83:Drivers/STM32F4xx_HAL_Driver/Src/stm32f4xx_ll_exti.c ****   LL_EXTI_WriteReg(IMR,   0x00000000U);
  35              		.loc 1 83 3 view .LVU1
  36 0000 054B     		ldr	r3, .L3
  37 0002 0020     		movs	r0, #0
  84:Drivers/STM32F4xx_HAL_Driver/Src/stm32f4xx_ll_exti.c ****   /* Event mask register set to default reset values */
  85:Drivers/STM32F4xx_HAL_Driver/Src/stm32f4xx_ll_exti.c ****   LL_EXTI_WriteReg(EMR,   0x00000000U);
  86:Drivers/STM32F4xx_HAL_Driver/Src/stm32f4xx_ll_exti.c ****   /* Rising Trigger selection register set to default reset values */
  87:Drivers/STM32F4xx_HAL_Driver/Src/stm32f4xx_ll_exti.c ****   LL_EXTI_WriteReg(RTSR,  0x00000000U);
  88:Drivers/STM32F4xx_HAL_Driver/Src/stm32f4xx_ll_exti.c ****   /* Falling Trigger selection register set to default reset values */
  89:Drivers/STM32F4xx_HAL_Driver/Src/stm32f4xx_ll_exti.c ****   LL_EXTI_WriteReg(FTSR,  0x00000000U);
  90:Drivers/STM32F4xx_HAL_Driver/Src/stm32f4xx_ll_exti.c ****   /* Software interrupt event register set to default reset values */
  91:Drivers/STM32F4xx_HAL_Driver/Src/stm32f4xx_ll_exti.c ****   LL_EXTI_WriteReg(SWIER, 0x00000000U);
  92:Drivers/STM32F4xx_HAL_Driver/Src/stm32f4xx_ll_exti.c ****   /* Pending register set to default reset values */
  93:Drivers/STM32F4xx_HAL_Driver/Src/stm32f4xx_ll_exti.c ****   LL_EXTI_WriteReg(PR,    0x00FFFFFFU);
  38              		.loc 1 93 3 is_stmt 0 view .LVU2
  39 0004 6FF07F42 		mvn	r2, #-16777216
  83:Drivers/STM32F4xx_HAL_Driver/Src/stm32f4xx_ll_exti.c ****   /* Event mask register set to default reset values */
  40              		.loc 1 83 3 view .LVU3
  41 0008 1860     		str	r0, [r3]
  85:Drivers/STM32F4xx_HAL_Driver/Src/stm32f4xx_ll_exti.c ****   /* Rising Trigger selection register set to default reset values */
  42              		.loc 1 85 3 is_stmt 1 view .LVU4
  43 000a 5860     		str	r0, [r3, #4]
  87:Drivers/STM32F4xx_HAL_Driver/Src/stm32f4xx_ll_exti.c ****   /* Falling Trigger selection register set to default reset values */
  44              		.loc 1 87 3 view .LVU5
  45 000c 9860     		str	r0, [r3, #8]
  89:Drivers/STM32F4xx_HAL_Driver/Src/stm32f4xx_ll_exti.c ****   /* Software interrupt event register set to default reset values */
  46              		.loc 1 89 3 view .LVU6
  47 000e D860     		str	r0, [r3, #12]
  91:Drivers/STM32F4xx_HAL_Driver/Src/stm32f4xx_ll_exti.c ****   /* Pending register set to default reset values */
  48              		.loc 1 91 3 view .LVU7
  49 0010 1861     		str	r0, [r3, #16]
  50              		.loc 1 93 3 view .LVU8
  51 0012 5A61     		str	r2, [r3, #20]
  94:Drivers/STM32F4xx_HAL_Driver/Src/stm32f4xx_ll_exti.c **** 
  95:Drivers/STM32F4xx_HAL_Driver/Src/stm32f4xx_ll_exti.c ****   return SUCCESS;
  52              		.loc 1 95 3 view .LVU9
  96:Drivers/STM32F4xx_HAL_Driver/Src/stm32f4xx_ll_exti.c **** }
  53              		.loc 1 96 1 is_stmt 0 view .LVU10
  54 0014 7047     		bx	lr
  55              	.L4:
  56 0016 00BF     		.align	2
  57              	.L3:
  58 0018 003C0140 		.word	1073822720
  59              		.cfi_endproc
  60              	.LFE146:
  62              		.section	.text.LL_EXTI_Init,"ax",%progbits
  63              		.align	1
  64              		.p2align 2,,3
  65              		.global	LL_EXTI_Init
  66              		.syntax unified
  67              		.thumb
  68              		.thumb_func
  69              		.fpu fpv4-sp-d16
  71              	LL_EXTI_Init:
  72              	.LVL0:
  73              	.LFB147:
ARM GAS  C:\Users\zoosman\AppData\Local\Temp\cc7JyQVY.s 			page 4


  97:Drivers/STM32F4xx_HAL_Driver/Src/stm32f4xx_ll_exti.c **** 
  98:Drivers/STM32F4xx_HAL_Driver/Src/stm32f4xx_ll_exti.c **** /**
  99:Drivers/STM32F4xx_HAL_Driver/Src/stm32f4xx_ll_exti.c ****   * @brief  Initialize the EXTI registers according to the specified parameters in EXTI_InitStruct.
 100:Drivers/STM32F4xx_HAL_Driver/Src/stm32f4xx_ll_exti.c ****   * @param  EXTI_InitStruct pointer to a @ref LL_EXTI_InitTypeDef structure.
 101:Drivers/STM32F4xx_HAL_Driver/Src/stm32f4xx_ll_exti.c ****   * @retval An ErrorStatus enumeration value:
 102:Drivers/STM32F4xx_HAL_Driver/Src/stm32f4xx_ll_exti.c ****   *          - SUCCESS: EXTI registers are initialized
 103:Drivers/STM32F4xx_HAL_Driver/Src/stm32f4xx_ll_exti.c ****   *          - ERROR: not applicable
 104:Drivers/STM32F4xx_HAL_Driver/Src/stm32f4xx_ll_exti.c ****   */
 105:Drivers/STM32F4xx_HAL_Driver/Src/stm32f4xx_ll_exti.c **** uint32_t LL_EXTI_Init(LL_EXTI_InitTypeDef *EXTI_InitStruct)
 106:Drivers/STM32F4xx_HAL_Driver/Src/stm32f4xx_ll_exti.c **** {
  74              		.loc 1 106 1 is_stmt 1 view -0
  75              		.cfi_startproc
  76              		@ args = 0, pretend = 0, frame = 0
  77              		@ frame_needed = 0, uses_anonymous_args = 0
  78              		@ link register save eliminated.
 107:Drivers/STM32F4xx_HAL_Driver/Src/stm32f4xx_ll_exti.c ****   ErrorStatus status = SUCCESS;
  79              		.loc 1 107 3 view .LVU12
 108:Drivers/STM32F4xx_HAL_Driver/Src/stm32f4xx_ll_exti.c ****   /* Check the parameters */
 109:Drivers/STM32F4xx_HAL_Driver/Src/stm32f4xx_ll_exti.c ****   assert_param(IS_LL_EXTI_LINE_0_31(EXTI_InitStruct->Line_0_31));
  80              		.loc 1 109 3 view .LVU13
 110:Drivers/STM32F4xx_HAL_Driver/Src/stm32f4xx_ll_exti.c ****   assert_param(IS_FUNCTIONAL_STATE(EXTI_InitStruct->LineCommand));
  81              		.loc 1 110 3 view .LVU14
 111:Drivers/STM32F4xx_HAL_Driver/Src/stm32f4xx_ll_exti.c ****   assert_param(IS_LL_EXTI_MODE(EXTI_InitStruct->Mode));
  82              		.loc 1 111 3 view .LVU15
 112:Drivers/STM32F4xx_HAL_Driver/Src/stm32f4xx_ll_exti.c **** 
 113:Drivers/STM32F4xx_HAL_Driver/Src/stm32f4xx_ll_exti.c ****   /* ENABLE LineCommand */
 114:Drivers/STM32F4xx_HAL_Driver/Src/stm32f4xx_ll_exti.c ****   if (EXTI_InitStruct->LineCommand != DISABLE)
  83              		.loc 1 114 3 view .LVU16
 106:Drivers/STM32F4xx_HAL_Driver/Src/stm32f4xx_ll_exti.c ****   ErrorStatus status = SUCCESS;
  84              		.loc 1 106 1 is_stmt 0 view .LVU17
  85 0000 10B4     		push	{r4}
  86              	.LCFI0:
  87              		.cfi_def_cfa_offset 4
  88              		.cfi_offset 4, -4
 106:Drivers/STM32F4xx_HAL_Driver/Src/stm32f4xx_ll_exti.c ****   ErrorStatus status = SUCCESS;
  89              		.loc 1 106 1 view .LVU18
  90 0002 0346     		mov	r3, r0
  91              		.loc 1 114 6 view .LVU19
  92 0004 0079     		ldrb	r0, [r0, #4]	@ zero_extendqisi2
  93              	.LVL1:
  94              		.loc 1 114 6 view .LVU20
  95 0006 A0B1     		cbz	r0, .L6
 115:Drivers/STM32F4xx_HAL_Driver/Src/stm32f4xx_ll_exti.c ****   {
 116:Drivers/STM32F4xx_HAL_Driver/Src/stm32f4xx_ll_exti.c ****     assert_param(IS_LL_EXTI_TRIGGER(EXTI_InitStruct->Trigger));
  96              		.loc 1 116 5 is_stmt 1 view .LVU21
 117:Drivers/STM32F4xx_HAL_Driver/Src/stm32f4xx_ll_exti.c **** 
 118:Drivers/STM32F4xx_HAL_Driver/Src/stm32f4xx_ll_exti.c ****     /* Configure EXTI Lines in range from 0 to 31 */
 119:Drivers/STM32F4xx_HAL_Driver/Src/stm32f4xx_ll_exti.c ****     if (EXTI_InitStruct->Line_0_31 != LL_EXTI_LINE_NONE)
  97              		.loc 1 119 5 view .LVU22
  98              		.loc 1 119 24 is_stmt 0 view .LVU23
  99 0008 1868     		ldr	r0, [r3]
 100              		.loc 1 119 8 view .LVU24
 101 000a 78B1     		cbz	r0, .L5
 120:Drivers/STM32F4xx_HAL_Driver/Src/stm32f4xx_ll_exti.c ****     {
 121:Drivers/STM32F4xx_HAL_Driver/Src/stm32f4xx_ll_exti.c ****       switch (EXTI_InitStruct->Mode)
 102              		.loc 1 121 7 is_stmt 1 view .LVU25
 103              		.loc 1 121 30 is_stmt 0 view .LVU26
ARM GAS  C:\Users\zoosman\AppData\Local\Temp\cc7JyQVY.s 			page 5


 104 000c 5A79     		ldrb	r2, [r3, #5]	@ zero_extendqisi2
 105              		.loc 1 121 7 view .LVU27
 106 000e 012A     		cmp	r2, #1
 107 0010 34D0     		beq	.L8
 108 0012 022A     		cmp	r2, #2
 109 0014 1AD0     		beq	.L9
 110 0016 42B3     		cbz	r2, .L23
 111 0018 0122     		movs	r2, #1
 112              	.L10:
 113              	.LVL2:
 122:Drivers/STM32F4xx_HAL_Driver/Src/stm32f4xx_ll_exti.c ****       {
 123:Drivers/STM32F4xx_HAL_Driver/Src/stm32f4xx_ll_exti.c ****         case LL_EXTI_MODE_IT:
 124:Drivers/STM32F4xx_HAL_Driver/Src/stm32f4xx_ll_exti.c ****           /* First Disable Event on provided Lines */
 125:Drivers/STM32F4xx_HAL_Driver/Src/stm32f4xx_ll_exti.c ****           LL_EXTI_DisableEvent_0_31(EXTI_InitStruct->Line_0_31);
 126:Drivers/STM32F4xx_HAL_Driver/Src/stm32f4xx_ll_exti.c ****           /* Then Enable IT on provided Lines */
 127:Drivers/STM32F4xx_HAL_Driver/Src/stm32f4xx_ll_exti.c ****           LL_EXTI_EnableIT_0_31(EXTI_InitStruct->Line_0_31);
 128:Drivers/STM32F4xx_HAL_Driver/Src/stm32f4xx_ll_exti.c ****           break;
 129:Drivers/STM32F4xx_HAL_Driver/Src/stm32f4xx_ll_exti.c ****         case LL_EXTI_MODE_EVENT:
 130:Drivers/STM32F4xx_HAL_Driver/Src/stm32f4xx_ll_exti.c ****           /* First Disable IT on provided Lines */
 131:Drivers/STM32F4xx_HAL_Driver/Src/stm32f4xx_ll_exti.c ****           LL_EXTI_DisableIT_0_31(EXTI_InitStruct->Line_0_31);
 132:Drivers/STM32F4xx_HAL_Driver/Src/stm32f4xx_ll_exti.c ****           /* Then Enable Event on provided Lines */
 133:Drivers/STM32F4xx_HAL_Driver/Src/stm32f4xx_ll_exti.c ****           LL_EXTI_EnableEvent_0_31(EXTI_InitStruct->Line_0_31);
 134:Drivers/STM32F4xx_HAL_Driver/Src/stm32f4xx_ll_exti.c ****           break;
 135:Drivers/STM32F4xx_HAL_Driver/Src/stm32f4xx_ll_exti.c ****         case LL_EXTI_MODE_IT_EVENT:
 136:Drivers/STM32F4xx_HAL_Driver/Src/stm32f4xx_ll_exti.c ****           /* Directly Enable IT & Event on provided Lines */
 137:Drivers/STM32F4xx_HAL_Driver/Src/stm32f4xx_ll_exti.c ****           LL_EXTI_EnableIT_0_31(EXTI_InitStruct->Line_0_31);
 138:Drivers/STM32F4xx_HAL_Driver/Src/stm32f4xx_ll_exti.c ****           LL_EXTI_EnableEvent_0_31(EXTI_InitStruct->Line_0_31);
 139:Drivers/STM32F4xx_HAL_Driver/Src/stm32f4xx_ll_exti.c ****           break;
 140:Drivers/STM32F4xx_HAL_Driver/Src/stm32f4xx_ll_exti.c ****         default:
 141:Drivers/STM32F4xx_HAL_Driver/Src/stm32f4xx_ll_exti.c ****           status = ERROR;
 142:Drivers/STM32F4xx_HAL_Driver/Src/stm32f4xx_ll_exti.c ****           break;
 143:Drivers/STM32F4xx_HAL_Driver/Src/stm32f4xx_ll_exti.c ****       }
 144:Drivers/STM32F4xx_HAL_Driver/Src/stm32f4xx_ll_exti.c ****       if (EXTI_InitStruct->Trigger != LL_EXTI_TRIGGER_NONE)
 114              		.loc 1 144 7 is_stmt 1 view .LVU28
 115              		.loc 1 144 26 is_stmt 0 view .LVU29
 116 001a 9B79     		ldrb	r3, [r3, #6]	@ zero_extendqisi2
 117              	.LVL3:
 118              		.loc 1 144 10 view .LVU30
 119 001c 0BB3     		cbz	r3, .L21
 120              	.L11:
 145:Drivers/STM32F4xx_HAL_Driver/Src/stm32f4xx_ll_exti.c ****       {
 146:Drivers/STM32F4xx_HAL_Driver/Src/stm32f4xx_ll_exti.c ****         switch (EXTI_InitStruct->Trigger)
 121              		.loc 1 146 9 is_stmt 1 view .LVU31
 122 001e 022B     		cmp	r3, #2
 123 0020 31D0     		beq	.L12
 124 0022 032B     		cmp	r3, #3
 125 0024 43D0     		beq	.L13
 126 0026 012B     		cmp	r3, #1
 127 0028 37D0     		beq	.L24
 128 002a 0120     		movs	r0, #1
 129              	.LVL4:
 147:Drivers/STM32F4xx_HAL_Driver/Src/stm32f4xx_ll_exti.c ****         {
 148:Drivers/STM32F4xx_HAL_Driver/Src/stm32f4xx_ll_exti.c ****           case LL_EXTI_TRIGGER_RISING:
 149:Drivers/STM32F4xx_HAL_Driver/Src/stm32f4xx_ll_exti.c ****             /* First Disable Falling Trigger on provided Lines */
 150:Drivers/STM32F4xx_HAL_Driver/Src/stm32f4xx_ll_exti.c ****             LL_EXTI_DisableFallingTrig_0_31(EXTI_InitStruct->Line_0_31);
 151:Drivers/STM32F4xx_HAL_Driver/Src/stm32f4xx_ll_exti.c ****             /* Then Enable Rising Trigger on provided Lines */
 152:Drivers/STM32F4xx_HAL_Driver/Src/stm32f4xx_ll_exti.c ****             LL_EXTI_EnableRisingTrig_0_31(EXTI_InitStruct->Line_0_31);
ARM GAS  C:\Users\zoosman\AppData\Local\Temp\cc7JyQVY.s 			page 6


 153:Drivers/STM32F4xx_HAL_Driver/Src/stm32f4xx_ll_exti.c ****             break;
 154:Drivers/STM32F4xx_HAL_Driver/Src/stm32f4xx_ll_exti.c ****           case LL_EXTI_TRIGGER_FALLING:
 155:Drivers/STM32F4xx_HAL_Driver/Src/stm32f4xx_ll_exti.c ****             /* First Disable Rising Trigger on provided Lines */
 156:Drivers/STM32F4xx_HAL_Driver/Src/stm32f4xx_ll_exti.c ****             LL_EXTI_DisableRisingTrig_0_31(EXTI_InitStruct->Line_0_31);
 157:Drivers/STM32F4xx_HAL_Driver/Src/stm32f4xx_ll_exti.c ****             /* Then Enable Falling Trigger on provided Lines */
 158:Drivers/STM32F4xx_HAL_Driver/Src/stm32f4xx_ll_exti.c ****             LL_EXTI_EnableFallingTrig_0_31(EXTI_InitStruct->Line_0_31);
 159:Drivers/STM32F4xx_HAL_Driver/Src/stm32f4xx_ll_exti.c ****             break;
 160:Drivers/STM32F4xx_HAL_Driver/Src/stm32f4xx_ll_exti.c ****           case LL_EXTI_TRIGGER_RISING_FALLING:
 161:Drivers/STM32F4xx_HAL_Driver/Src/stm32f4xx_ll_exti.c ****             LL_EXTI_EnableRisingTrig_0_31(EXTI_InitStruct->Line_0_31);
 162:Drivers/STM32F4xx_HAL_Driver/Src/stm32f4xx_ll_exti.c ****             LL_EXTI_EnableFallingTrig_0_31(EXTI_InitStruct->Line_0_31);
 163:Drivers/STM32F4xx_HAL_Driver/Src/stm32f4xx_ll_exti.c ****             break;
 164:Drivers/STM32F4xx_HAL_Driver/Src/stm32f4xx_ll_exti.c ****           default:
 165:Drivers/STM32F4xx_HAL_Driver/Src/stm32f4xx_ll_exti.c ****             status = ERROR;
 166:Drivers/STM32F4xx_HAL_Driver/Src/stm32f4xx_ll_exti.c ****             break;
 167:Drivers/STM32F4xx_HAL_Driver/Src/stm32f4xx_ll_exti.c ****         }
 168:Drivers/STM32F4xx_HAL_Driver/Src/stm32f4xx_ll_exti.c ****       }
 169:Drivers/STM32F4xx_HAL_Driver/Src/stm32f4xx_ll_exti.c ****     }
 170:Drivers/STM32F4xx_HAL_Driver/Src/stm32f4xx_ll_exti.c ****   }
 171:Drivers/STM32F4xx_HAL_Driver/Src/stm32f4xx_ll_exti.c ****   /* DISABLE LineCommand */
 172:Drivers/STM32F4xx_HAL_Driver/Src/stm32f4xx_ll_exti.c ****   else
 173:Drivers/STM32F4xx_HAL_Driver/Src/stm32f4xx_ll_exti.c ****   {
 174:Drivers/STM32F4xx_HAL_Driver/Src/stm32f4xx_ll_exti.c ****     /* De-configure EXTI Lines in range from 0 to 31 */
 175:Drivers/STM32F4xx_HAL_Driver/Src/stm32f4xx_ll_exti.c ****     LL_EXTI_DisableIT_0_31(EXTI_InitStruct->Line_0_31);
 176:Drivers/STM32F4xx_HAL_Driver/Src/stm32f4xx_ll_exti.c ****     LL_EXTI_DisableEvent_0_31(EXTI_InitStruct->Line_0_31);
 177:Drivers/STM32F4xx_HAL_Driver/Src/stm32f4xx_ll_exti.c ****   }
 178:Drivers/STM32F4xx_HAL_Driver/Src/stm32f4xx_ll_exti.c ****   return status;
 130              		.loc 1 178 3 view .LVU32
 131              	.L5:
 179:Drivers/STM32F4xx_HAL_Driver/Src/stm32f4xx_ll_exti.c **** }
 132              		.loc 1 179 1 is_stmt 0 view .LVU33
 133 002c 5DF8044B 		ldr	r4, [sp], #4
 134              	.LCFI1:
 135              		.cfi_remember_state
 136              		.cfi_restore 4
 137              		.cfi_def_cfa_offset 0
 138 0030 7047     		bx	lr
 139              	.LVL5:
 140              	.L6:
 141              	.LCFI2:
 142              		.cfi_restore_state
 175:Drivers/STM32F4xx_HAL_Driver/Src/stm32f4xx_ll_exti.c ****     LL_EXTI_DisableEvent_0_31(EXTI_InitStruct->Line_0_31);
 143              		.loc 1 175 5 is_stmt 1 view .LVU34
 144              	.LBB30:
 145              	.LBI30:
 146              		.file 2 "Drivers/STM32F4xx_HAL_Driver/Inc/stm32f4xx_ll_exti.h"
   1:Drivers/STM32F4xx_HAL_Driver/Inc/stm32f4xx_ll_exti.h **** /**
   2:Drivers/STM32F4xx_HAL_Driver/Inc/stm32f4xx_ll_exti.h ****   ******************************************************************************
   3:Drivers/STM32F4xx_HAL_Driver/Inc/stm32f4xx_ll_exti.h ****   * @file    stm32f4xx_ll_exti.h
   4:Drivers/STM32F4xx_HAL_Driver/Inc/stm32f4xx_ll_exti.h ****   * @author  MCD Application Team
   5:Drivers/STM32F4xx_HAL_Driver/Inc/stm32f4xx_ll_exti.h ****   * @brief   Header file of EXTI LL module.
   6:Drivers/STM32F4xx_HAL_Driver/Inc/stm32f4xx_ll_exti.h ****   ******************************************************************************
   7:Drivers/STM32F4xx_HAL_Driver/Inc/stm32f4xx_ll_exti.h ****   * @attention
   8:Drivers/STM32F4xx_HAL_Driver/Inc/stm32f4xx_ll_exti.h ****   *
   9:Drivers/STM32F4xx_HAL_Driver/Inc/stm32f4xx_ll_exti.h ****   * <h2><center>&copy; Copyright (c) 2016 STMicroelectronics.
  10:Drivers/STM32F4xx_HAL_Driver/Inc/stm32f4xx_ll_exti.h ****   * All rights reserved.</center></h2>
  11:Drivers/STM32F4xx_HAL_Driver/Inc/stm32f4xx_ll_exti.h ****   *
  12:Drivers/STM32F4xx_HAL_Driver/Inc/stm32f4xx_ll_exti.h ****   * This software component is licensed by ST under BSD 3-Clause license,
ARM GAS  C:\Users\zoosman\AppData\Local\Temp\cc7JyQVY.s 			page 7


  13:Drivers/STM32F4xx_HAL_Driver/Inc/stm32f4xx_ll_exti.h ****   * the "License"; You may not use this file except in compliance with the
  14:Drivers/STM32F4xx_HAL_Driver/Inc/stm32f4xx_ll_exti.h ****   * License. You may obtain a copy of the License at:
  15:Drivers/STM32F4xx_HAL_Driver/Inc/stm32f4xx_ll_exti.h ****   *                        opensource.org/licenses/BSD-3-Clause
  16:Drivers/STM32F4xx_HAL_Driver/Inc/stm32f4xx_ll_exti.h ****   *
  17:Drivers/STM32F4xx_HAL_Driver/Inc/stm32f4xx_ll_exti.h ****   ******************************************************************************
  18:Drivers/STM32F4xx_HAL_Driver/Inc/stm32f4xx_ll_exti.h ****   */
  19:Drivers/STM32F4xx_HAL_Driver/Inc/stm32f4xx_ll_exti.h **** 
  20:Drivers/STM32F4xx_HAL_Driver/Inc/stm32f4xx_ll_exti.h **** /* Define to prevent recursive inclusion -------------------------------------*/
  21:Drivers/STM32F4xx_HAL_Driver/Inc/stm32f4xx_ll_exti.h **** #ifndef __STM32F4xx_LL_EXTI_H
  22:Drivers/STM32F4xx_HAL_Driver/Inc/stm32f4xx_ll_exti.h **** #define __STM32F4xx_LL_EXTI_H
  23:Drivers/STM32F4xx_HAL_Driver/Inc/stm32f4xx_ll_exti.h **** 
  24:Drivers/STM32F4xx_HAL_Driver/Inc/stm32f4xx_ll_exti.h **** #ifdef __cplusplus
  25:Drivers/STM32F4xx_HAL_Driver/Inc/stm32f4xx_ll_exti.h **** extern "C" {
  26:Drivers/STM32F4xx_HAL_Driver/Inc/stm32f4xx_ll_exti.h **** #endif
  27:Drivers/STM32F4xx_HAL_Driver/Inc/stm32f4xx_ll_exti.h **** 
  28:Drivers/STM32F4xx_HAL_Driver/Inc/stm32f4xx_ll_exti.h **** /* Includes ------------------------------------------------------------------*/
  29:Drivers/STM32F4xx_HAL_Driver/Inc/stm32f4xx_ll_exti.h **** #include "stm32f4xx.h"
  30:Drivers/STM32F4xx_HAL_Driver/Inc/stm32f4xx_ll_exti.h **** 
  31:Drivers/STM32F4xx_HAL_Driver/Inc/stm32f4xx_ll_exti.h **** /** @addtogroup STM32F4xx_LL_Driver
  32:Drivers/STM32F4xx_HAL_Driver/Inc/stm32f4xx_ll_exti.h ****   * @{
  33:Drivers/STM32F4xx_HAL_Driver/Inc/stm32f4xx_ll_exti.h ****   */
  34:Drivers/STM32F4xx_HAL_Driver/Inc/stm32f4xx_ll_exti.h **** 
  35:Drivers/STM32F4xx_HAL_Driver/Inc/stm32f4xx_ll_exti.h **** #if defined (EXTI)
  36:Drivers/STM32F4xx_HAL_Driver/Inc/stm32f4xx_ll_exti.h **** 
  37:Drivers/STM32F4xx_HAL_Driver/Inc/stm32f4xx_ll_exti.h **** /** @defgroup EXTI_LL EXTI
  38:Drivers/STM32F4xx_HAL_Driver/Inc/stm32f4xx_ll_exti.h ****   * @{
  39:Drivers/STM32F4xx_HAL_Driver/Inc/stm32f4xx_ll_exti.h ****   */
  40:Drivers/STM32F4xx_HAL_Driver/Inc/stm32f4xx_ll_exti.h **** 
  41:Drivers/STM32F4xx_HAL_Driver/Inc/stm32f4xx_ll_exti.h **** /* Private types -------------------------------------------------------------*/
  42:Drivers/STM32F4xx_HAL_Driver/Inc/stm32f4xx_ll_exti.h **** /* Private variables ---------------------------------------------------------*/
  43:Drivers/STM32F4xx_HAL_Driver/Inc/stm32f4xx_ll_exti.h **** /* Private constants ---------------------------------------------------------*/
  44:Drivers/STM32F4xx_HAL_Driver/Inc/stm32f4xx_ll_exti.h **** /* Private Macros ------------------------------------------------------------*/
  45:Drivers/STM32F4xx_HAL_Driver/Inc/stm32f4xx_ll_exti.h **** #if defined(USE_FULL_LL_DRIVER)
  46:Drivers/STM32F4xx_HAL_Driver/Inc/stm32f4xx_ll_exti.h **** /** @defgroup EXTI_LL_Private_Macros EXTI Private Macros
  47:Drivers/STM32F4xx_HAL_Driver/Inc/stm32f4xx_ll_exti.h ****   * @{
  48:Drivers/STM32F4xx_HAL_Driver/Inc/stm32f4xx_ll_exti.h ****   */
  49:Drivers/STM32F4xx_HAL_Driver/Inc/stm32f4xx_ll_exti.h **** /**
  50:Drivers/STM32F4xx_HAL_Driver/Inc/stm32f4xx_ll_exti.h ****   * @}
  51:Drivers/STM32F4xx_HAL_Driver/Inc/stm32f4xx_ll_exti.h ****   */
  52:Drivers/STM32F4xx_HAL_Driver/Inc/stm32f4xx_ll_exti.h **** #endif /*USE_FULL_LL_DRIVER*/
  53:Drivers/STM32F4xx_HAL_Driver/Inc/stm32f4xx_ll_exti.h **** /* Exported types ------------------------------------------------------------*/
  54:Drivers/STM32F4xx_HAL_Driver/Inc/stm32f4xx_ll_exti.h **** #if defined(USE_FULL_LL_DRIVER)
  55:Drivers/STM32F4xx_HAL_Driver/Inc/stm32f4xx_ll_exti.h **** /** @defgroup EXTI_LL_ES_INIT EXTI Exported Init structure
  56:Drivers/STM32F4xx_HAL_Driver/Inc/stm32f4xx_ll_exti.h ****   * @{
  57:Drivers/STM32F4xx_HAL_Driver/Inc/stm32f4xx_ll_exti.h ****   */
  58:Drivers/STM32F4xx_HAL_Driver/Inc/stm32f4xx_ll_exti.h **** typedef struct
  59:Drivers/STM32F4xx_HAL_Driver/Inc/stm32f4xx_ll_exti.h **** {
  60:Drivers/STM32F4xx_HAL_Driver/Inc/stm32f4xx_ll_exti.h **** 
  61:Drivers/STM32F4xx_HAL_Driver/Inc/stm32f4xx_ll_exti.h ****   uint32_t Line_0_31;           /*!< Specifies the EXTI lines to be enabled or disabled for Lines i
  62:Drivers/STM32F4xx_HAL_Driver/Inc/stm32f4xx_ll_exti.h ****                                      This parameter can be any combination of @ref EXTI_LL_EC_LINE 
  63:Drivers/STM32F4xx_HAL_Driver/Inc/stm32f4xx_ll_exti.h **** 
  64:Drivers/STM32F4xx_HAL_Driver/Inc/stm32f4xx_ll_exti.h ****   FunctionalState LineCommand;  /*!< Specifies the new state of the selected EXTI lines.
  65:Drivers/STM32F4xx_HAL_Driver/Inc/stm32f4xx_ll_exti.h ****                                      This parameter can be set either to ENABLE or DISABLE */
  66:Drivers/STM32F4xx_HAL_Driver/Inc/stm32f4xx_ll_exti.h **** 
  67:Drivers/STM32F4xx_HAL_Driver/Inc/stm32f4xx_ll_exti.h ****   uint8_t Mode;                 /*!< Specifies the mode for the EXTI lines.
  68:Drivers/STM32F4xx_HAL_Driver/Inc/stm32f4xx_ll_exti.h ****                                      This parameter can be a value of @ref EXTI_LL_EC_MODE. */
  69:Drivers/STM32F4xx_HAL_Driver/Inc/stm32f4xx_ll_exti.h **** 
ARM GAS  C:\Users\zoosman\AppData\Local\Temp\cc7JyQVY.s 			page 8


  70:Drivers/STM32F4xx_HAL_Driver/Inc/stm32f4xx_ll_exti.h ****   uint8_t Trigger;              /*!< Specifies the trigger signal active edge for the EXTI lines.
  71:Drivers/STM32F4xx_HAL_Driver/Inc/stm32f4xx_ll_exti.h ****                                      This parameter can be a value of @ref EXTI_LL_EC_TRIGGER. */
  72:Drivers/STM32F4xx_HAL_Driver/Inc/stm32f4xx_ll_exti.h **** } LL_EXTI_InitTypeDef;
  73:Drivers/STM32F4xx_HAL_Driver/Inc/stm32f4xx_ll_exti.h **** 
  74:Drivers/STM32F4xx_HAL_Driver/Inc/stm32f4xx_ll_exti.h **** /**
  75:Drivers/STM32F4xx_HAL_Driver/Inc/stm32f4xx_ll_exti.h ****   * @}
  76:Drivers/STM32F4xx_HAL_Driver/Inc/stm32f4xx_ll_exti.h ****   */
  77:Drivers/STM32F4xx_HAL_Driver/Inc/stm32f4xx_ll_exti.h **** #endif /*USE_FULL_LL_DRIVER*/
  78:Drivers/STM32F4xx_HAL_Driver/Inc/stm32f4xx_ll_exti.h **** 
  79:Drivers/STM32F4xx_HAL_Driver/Inc/stm32f4xx_ll_exti.h **** /* Exported constants --------------------------------------------------------*/
  80:Drivers/STM32F4xx_HAL_Driver/Inc/stm32f4xx_ll_exti.h **** /** @defgroup EXTI_LL_Exported_Constants EXTI Exported Constants
  81:Drivers/STM32F4xx_HAL_Driver/Inc/stm32f4xx_ll_exti.h ****   * @{
  82:Drivers/STM32F4xx_HAL_Driver/Inc/stm32f4xx_ll_exti.h ****   */
  83:Drivers/STM32F4xx_HAL_Driver/Inc/stm32f4xx_ll_exti.h **** 
  84:Drivers/STM32F4xx_HAL_Driver/Inc/stm32f4xx_ll_exti.h **** /** @defgroup EXTI_LL_EC_LINE LINE
  85:Drivers/STM32F4xx_HAL_Driver/Inc/stm32f4xx_ll_exti.h ****   * @{
  86:Drivers/STM32F4xx_HAL_Driver/Inc/stm32f4xx_ll_exti.h ****   */
  87:Drivers/STM32F4xx_HAL_Driver/Inc/stm32f4xx_ll_exti.h **** #define LL_EXTI_LINE_0                 EXTI_IMR_IM0           /*!< Extended line 0 */
  88:Drivers/STM32F4xx_HAL_Driver/Inc/stm32f4xx_ll_exti.h **** #define LL_EXTI_LINE_1                 EXTI_IMR_IM1           /*!< Extended line 1 */
  89:Drivers/STM32F4xx_HAL_Driver/Inc/stm32f4xx_ll_exti.h **** #define LL_EXTI_LINE_2                 EXTI_IMR_IM2           /*!< Extended line 2 */
  90:Drivers/STM32F4xx_HAL_Driver/Inc/stm32f4xx_ll_exti.h **** #define LL_EXTI_LINE_3                 EXTI_IMR_IM3           /*!< Extended line 3 */
  91:Drivers/STM32F4xx_HAL_Driver/Inc/stm32f4xx_ll_exti.h **** #define LL_EXTI_LINE_4                 EXTI_IMR_IM4           /*!< Extended line 4 */
  92:Drivers/STM32F4xx_HAL_Driver/Inc/stm32f4xx_ll_exti.h **** #define LL_EXTI_LINE_5                 EXTI_IMR_IM5           /*!< Extended line 5 */
  93:Drivers/STM32F4xx_HAL_Driver/Inc/stm32f4xx_ll_exti.h **** #define LL_EXTI_LINE_6                 EXTI_IMR_IM6           /*!< Extended line 6 */
  94:Drivers/STM32F4xx_HAL_Driver/Inc/stm32f4xx_ll_exti.h **** #define LL_EXTI_LINE_7                 EXTI_IMR_IM7           /*!< Extended line 7 */
  95:Drivers/STM32F4xx_HAL_Driver/Inc/stm32f4xx_ll_exti.h **** #define LL_EXTI_LINE_8                 EXTI_IMR_IM8           /*!< Extended line 8 */
  96:Drivers/STM32F4xx_HAL_Driver/Inc/stm32f4xx_ll_exti.h **** #define LL_EXTI_LINE_9                 EXTI_IMR_IM9           /*!< Extended line 9 */
  97:Drivers/STM32F4xx_HAL_Driver/Inc/stm32f4xx_ll_exti.h **** #define LL_EXTI_LINE_10                EXTI_IMR_IM10          /*!< Extended line 10 */
  98:Drivers/STM32F4xx_HAL_Driver/Inc/stm32f4xx_ll_exti.h **** #define LL_EXTI_LINE_11                EXTI_IMR_IM11          /*!< Extended line 11 */
  99:Drivers/STM32F4xx_HAL_Driver/Inc/stm32f4xx_ll_exti.h **** #define LL_EXTI_LINE_12                EXTI_IMR_IM12          /*!< Extended line 12 */
 100:Drivers/STM32F4xx_HAL_Driver/Inc/stm32f4xx_ll_exti.h **** #define LL_EXTI_LINE_13                EXTI_IMR_IM13          /*!< Extended line 13 */
 101:Drivers/STM32F4xx_HAL_Driver/Inc/stm32f4xx_ll_exti.h **** #define LL_EXTI_LINE_14                EXTI_IMR_IM14          /*!< Extended line 14 */
 102:Drivers/STM32F4xx_HAL_Driver/Inc/stm32f4xx_ll_exti.h **** #define LL_EXTI_LINE_15                EXTI_IMR_IM15          /*!< Extended line 15 */
 103:Drivers/STM32F4xx_HAL_Driver/Inc/stm32f4xx_ll_exti.h **** #if defined(EXTI_IMR_IM16)
 104:Drivers/STM32F4xx_HAL_Driver/Inc/stm32f4xx_ll_exti.h **** #define LL_EXTI_LINE_16                EXTI_IMR_IM16          /*!< Extended line 16 */
 105:Drivers/STM32F4xx_HAL_Driver/Inc/stm32f4xx_ll_exti.h **** #endif
 106:Drivers/STM32F4xx_HAL_Driver/Inc/stm32f4xx_ll_exti.h **** #define LL_EXTI_LINE_17                EXTI_IMR_IM17          /*!< Extended line 17 */
 107:Drivers/STM32F4xx_HAL_Driver/Inc/stm32f4xx_ll_exti.h **** #if defined(EXTI_IMR_IM18)
 108:Drivers/STM32F4xx_HAL_Driver/Inc/stm32f4xx_ll_exti.h **** #define LL_EXTI_LINE_18                EXTI_IMR_IM18          /*!< Extended line 18 */
 109:Drivers/STM32F4xx_HAL_Driver/Inc/stm32f4xx_ll_exti.h **** #endif
 110:Drivers/STM32F4xx_HAL_Driver/Inc/stm32f4xx_ll_exti.h **** #define LL_EXTI_LINE_19                EXTI_IMR_IM19          /*!< Extended line 19 */
 111:Drivers/STM32F4xx_HAL_Driver/Inc/stm32f4xx_ll_exti.h **** #if defined(EXTI_IMR_IM20)
 112:Drivers/STM32F4xx_HAL_Driver/Inc/stm32f4xx_ll_exti.h **** #define LL_EXTI_LINE_20                EXTI_IMR_IM20          /*!< Extended line 20 */
 113:Drivers/STM32F4xx_HAL_Driver/Inc/stm32f4xx_ll_exti.h **** #endif
 114:Drivers/STM32F4xx_HAL_Driver/Inc/stm32f4xx_ll_exti.h **** #if defined(EXTI_IMR_IM21)
 115:Drivers/STM32F4xx_HAL_Driver/Inc/stm32f4xx_ll_exti.h **** #define LL_EXTI_LINE_21                EXTI_IMR_IM21          /*!< Extended line 21 */
 116:Drivers/STM32F4xx_HAL_Driver/Inc/stm32f4xx_ll_exti.h **** #endif
 117:Drivers/STM32F4xx_HAL_Driver/Inc/stm32f4xx_ll_exti.h **** #if defined(EXTI_IMR_IM22)
 118:Drivers/STM32F4xx_HAL_Driver/Inc/stm32f4xx_ll_exti.h **** #define LL_EXTI_LINE_22                EXTI_IMR_IM22          /*!< Extended line 22 */
 119:Drivers/STM32F4xx_HAL_Driver/Inc/stm32f4xx_ll_exti.h **** #endif
 120:Drivers/STM32F4xx_HAL_Driver/Inc/stm32f4xx_ll_exti.h **** #if defined(EXTI_IMR_IM23)
 121:Drivers/STM32F4xx_HAL_Driver/Inc/stm32f4xx_ll_exti.h **** #define LL_EXTI_LINE_23                EXTI_IMR_IM23          /*!< Extended line 23 */
 122:Drivers/STM32F4xx_HAL_Driver/Inc/stm32f4xx_ll_exti.h **** #endif
 123:Drivers/STM32F4xx_HAL_Driver/Inc/stm32f4xx_ll_exti.h **** #if defined(EXTI_IMR_IM24)
 124:Drivers/STM32F4xx_HAL_Driver/Inc/stm32f4xx_ll_exti.h **** #define LL_EXTI_LINE_24                EXTI_IMR_IM24          /*!< Extended line 24 */
 125:Drivers/STM32F4xx_HAL_Driver/Inc/stm32f4xx_ll_exti.h **** #endif
 126:Drivers/STM32F4xx_HAL_Driver/Inc/stm32f4xx_ll_exti.h **** #if defined(EXTI_IMR_IM25)
ARM GAS  C:\Users\zoosman\AppData\Local\Temp\cc7JyQVY.s 			page 9


 127:Drivers/STM32F4xx_HAL_Driver/Inc/stm32f4xx_ll_exti.h **** #define LL_EXTI_LINE_25                EXTI_IMR_IM25          /*!< Extended line 25 */
 128:Drivers/STM32F4xx_HAL_Driver/Inc/stm32f4xx_ll_exti.h **** #endif
 129:Drivers/STM32F4xx_HAL_Driver/Inc/stm32f4xx_ll_exti.h **** #if defined(EXTI_IMR_IM26)
 130:Drivers/STM32F4xx_HAL_Driver/Inc/stm32f4xx_ll_exti.h **** #define LL_EXTI_LINE_26                EXTI_IMR_IM26          /*!< Extended line 26 */
 131:Drivers/STM32F4xx_HAL_Driver/Inc/stm32f4xx_ll_exti.h **** #endif
 132:Drivers/STM32F4xx_HAL_Driver/Inc/stm32f4xx_ll_exti.h **** #if defined(EXTI_IMR_IM27)
 133:Drivers/STM32F4xx_HAL_Driver/Inc/stm32f4xx_ll_exti.h **** #define LL_EXTI_LINE_27                EXTI_IMR_IM27          /*!< Extended line 27 */
 134:Drivers/STM32F4xx_HAL_Driver/Inc/stm32f4xx_ll_exti.h **** #endif
 135:Drivers/STM32F4xx_HAL_Driver/Inc/stm32f4xx_ll_exti.h **** #if defined(EXTI_IMR_IM28)
 136:Drivers/STM32F4xx_HAL_Driver/Inc/stm32f4xx_ll_exti.h **** #define LL_EXTI_LINE_28                EXTI_IMR_IM28          /*!< Extended line 28 */
 137:Drivers/STM32F4xx_HAL_Driver/Inc/stm32f4xx_ll_exti.h **** #endif
 138:Drivers/STM32F4xx_HAL_Driver/Inc/stm32f4xx_ll_exti.h **** #if defined(EXTI_IMR_IM29)
 139:Drivers/STM32F4xx_HAL_Driver/Inc/stm32f4xx_ll_exti.h **** #define LL_EXTI_LINE_29                EXTI_IMR_IM29          /*!< Extended line 29 */
 140:Drivers/STM32F4xx_HAL_Driver/Inc/stm32f4xx_ll_exti.h **** #endif
 141:Drivers/STM32F4xx_HAL_Driver/Inc/stm32f4xx_ll_exti.h **** #if defined(EXTI_IMR_IM30)
 142:Drivers/STM32F4xx_HAL_Driver/Inc/stm32f4xx_ll_exti.h **** #define LL_EXTI_LINE_30                EXTI_IMR_IM30          /*!< Extended line 30 */
 143:Drivers/STM32F4xx_HAL_Driver/Inc/stm32f4xx_ll_exti.h **** #endif
 144:Drivers/STM32F4xx_HAL_Driver/Inc/stm32f4xx_ll_exti.h **** #if defined(EXTI_IMR_IM31)
 145:Drivers/STM32F4xx_HAL_Driver/Inc/stm32f4xx_ll_exti.h **** #define LL_EXTI_LINE_31                EXTI_IMR_IM31          /*!< Extended line 31 */
 146:Drivers/STM32F4xx_HAL_Driver/Inc/stm32f4xx_ll_exti.h **** #endif
 147:Drivers/STM32F4xx_HAL_Driver/Inc/stm32f4xx_ll_exti.h **** #define LL_EXTI_LINE_ALL_0_31          EXTI_IMR_IM            /*!< All Extended line not reserved*/
 148:Drivers/STM32F4xx_HAL_Driver/Inc/stm32f4xx_ll_exti.h **** 
 149:Drivers/STM32F4xx_HAL_Driver/Inc/stm32f4xx_ll_exti.h **** 
 150:Drivers/STM32F4xx_HAL_Driver/Inc/stm32f4xx_ll_exti.h **** #define LL_EXTI_LINE_ALL               ((uint32_t)0xFFFFFFFFU)  /*!< All Extended line */
 151:Drivers/STM32F4xx_HAL_Driver/Inc/stm32f4xx_ll_exti.h **** 
 152:Drivers/STM32F4xx_HAL_Driver/Inc/stm32f4xx_ll_exti.h **** #if defined(USE_FULL_LL_DRIVER)
 153:Drivers/STM32F4xx_HAL_Driver/Inc/stm32f4xx_ll_exti.h **** #define LL_EXTI_LINE_NONE              ((uint32_t)0x00000000U)  /*!< None Extended line */
 154:Drivers/STM32F4xx_HAL_Driver/Inc/stm32f4xx_ll_exti.h **** #endif /*USE_FULL_LL_DRIVER*/
 155:Drivers/STM32F4xx_HAL_Driver/Inc/stm32f4xx_ll_exti.h **** 
 156:Drivers/STM32F4xx_HAL_Driver/Inc/stm32f4xx_ll_exti.h **** /**
 157:Drivers/STM32F4xx_HAL_Driver/Inc/stm32f4xx_ll_exti.h ****   * @}
 158:Drivers/STM32F4xx_HAL_Driver/Inc/stm32f4xx_ll_exti.h ****   */
 159:Drivers/STM32F4xx_HAL_Driver/Inc/stm32f4xx_ll_exti.h **** #if defined(USE_FULL_LL_DRIVER)
 160:Drivers/STM32F4xx_HAL_Driver/Inc/stm32f4xx_ll_exti.h **** 
 161:Drivers/STM32F4xx_HAL_Driver/Inc/stm32f4xx_ll_exti.h **** /** @defgroup EXTI_LL_EC_MODE Mode
 162:Drivers/STM32F4xx_HAL_Driver/Inc/stm32f4xx_ll_exti.h ****   * @{
 163:Drivers/STM32F4xx_HAL_Driver/Inc/stm32f4xx_ll_exti.h ****   */
 164:Drivers/STM32F4xx_HAL_Driver/Inc/stm32f4xx_ll_exti.h **** #define LL_EXTI_MODE_IT                 ((uint8_t)0x00U) /*!< Interrupt Mode */
 165:Drivers/STM32F4xx_HAL_Driver/Inc/stm32f4xx_ll_exti.h **** #define LL_EXTI_MODE_EVENT              ((uint8_t)0x01U) /*!< Event Mode */
 166:Drivers/STM32F4xx_HAL_Driver/Inc/stm32f4xx_ll_exti.h **** #define LL_EXTI_MODE_IT_EVENT           ((uint8_t)0x02U) /*!< Interrupt & Event Mode */
 167:Drivers/STM32F4xx_HAL_Driver/Inc/stm32f4xx_ll_exti.h **** /**
 168:Drivers/STM32F4xx_HAL_Driver/Inc/stm32f4xx_ll_exti.h ****   * @}
 169:Drivers/STM32F4xx_HAL_Driver/Inc/stm32f4xx_ll_exti.h ****   */
 170:Drivers/STM32F4xx_HAL_Driver/Inc/stm32f4xx_ll_exti.h **** 
 171:Drivers/STM32F4xx_HAL_Driver/Inc/stm32f4xx_ll_exti.h **** /** @defgroup EXTI_LL_EC_TRIGGER Edge Trigger
 172:Drivers/STM32F4xx_HAL_Driver/Inc/stm32f4xx_ll_exti.h ****   * @{
 173:Drivers/STM32F4xx_HAL_Driver/Inc/stm32f4xx_ll_exti.h ****   */
 174:Drivers/STM32F4xx_HAL_Driver/Inc/stm32f4xx_ll_exti.h **** #define LL_EXTI_TRIGGER_NONE            ((uint8_t)0x00U) /*!< No Trigger Mode */
 175:Drivers/STM32F4xx_HAL_Driver/Inc/stm32f4xx_ll_exti.h **** #define LL_EXTI_TRIGGER_RISING          ((uint8_t)0x01U) /*!< Trigger Rising Mode */
 176:Drivers/STM32F4xx_HAL_Driver/Inc/stm32f4xx_ll_exti.h **** #define LL_EXTI_TRIGGER_FALLING         ((uint8_t)0x02U) /*!< Trigger Falling Mode */
 177:Drivers/STM32F4xx_HAL_Driver/Inc/stm32f4xx_ll_exti.h **** #define LL_EXTI_TRIGGER_RISING_FALLING  ((uint8_t)0x03U) /*!< Trigger Rising & Falling Mode */
 178:Drivers/STM32F4xx_HAL_Driver/Inc/stm32f4xx_ll_exti.h **** 
 179:Drivers/STM32F4xx_HAL_Driver/Inc/stm32f4xx_ll_exti.h **** /**
 180:Drivers/STM32F4xx_HAL_Driver/Inc/stm32f4xx_ll_exti.h ****   * @}
 181:Drivers/STM32F4xx_HAL_Driver/Inc/stm32f4xx_ll_exti.h ****   */
 182:Drivers/STM32F4xx_HAL_Driver/Inc/stm32f4xx_ll_exti.h **** 
 183:Drivers/STM32F4xx_HAL_Driver/Inc/stm32f4xx_ll_exti.h **** 
ARM GAS  C:\Users\zoosman\AppData\Local\Temp\cc7JyQVY.s 			page 10


 184:Drivers/STM32F4xx_HAL_Driver/Inc/stm32f4xx_ll_exti.h **** #endif /*USE_FULL_LL_DRIVER*/
 185:Drivers/STM32F4xx_HAL_Driver/Inc/stm32f4xx_ll_exti.h **** 
 186:Drivers/STM32F4xx_HAL_Driver/Inc/stm32f4xx_ll_exti.h **** 
 187:Drivers/STM32F4xx_HAL_Driver/Inc/stm32f4xx_ll_exti.h **** /**
 188:Drivers/STM32F4xx_HAL_Driver/Inc/stm32f4xx_ll_exti.h ****   * @}
 189:Drivers/STM32F4xx_HAL_Driver/Inc/stm32f4xx_ll_exti.h ****   */
 190:Drivers/STM32F4xx_HAL_Driver/Inc/stm32f4xx_ll_exti.h **** 
 191:Drivers/STM32F4xx_HAL_Driver/Inc/stm32f4xx_ll_exti.h **** /* Exported macro ------------------------------------------------------------*/
 192:Drivers/STM32F4xx_HAL_Driver/Inc/stm32f4xx_ll_exti.h **** /** @defgroup EXTI_LL_Exported_Macros EXTI Exported Macros
 193:Drivers/STM32F4xx_HAL_Driver/Inc/stm32f4xx_ll_exti.h ****   * @{
 194:Drivers/STM32F4xx_HAL_Driver/Inc/stm32f4xx_ll_exti.h ****   */
 195:Drivers/STM32F4xx_HAL_Driver/Inc/stm32f4xx_ll_exti.h **** 
 196:Drivers/STM32F4xx_HAL_Driver/Inc/stm32f4xx_ll_exti.h **** /** @defgroup EXTI_LL_EM_WRITE_READ Common Write and read registers Macros
 197:Drivers/STM32F4xx_HAL_Driver/Inc/stm32f4xx_ll_exti.h ****   * @{
 198:Drivers/STM32F4xx_HAL_Driver/Inc/stm32f4xx_ll_exti.h ****   */
 199:Drivers/STM32F4xx_HAL_Driver/Inc/stm32f4xx_ll_exti.h **** 
 200:Drivers/STM32F4xx_HAL_Driver/Inc/stm32f4xx_ll_exti.h **** /**
 201:Drivers/STM32F4xx_HAL_Driver/Inc/stm32f4xx_ll_exti.h ****   * @brief  Write a value in EXTI register
 202:Drivers/STM32F4xx_HAL_Driver/Inc/stm32f4xx_ll_exti.h ****   * @param  __REG__ Register to be written
 203:Drivers/STM32F4xx_HAL_Driver/Inc/stm32f4xx_ll_exti.h ****   * @param  __VALUE__ Value to be written in the register
 204:Drivers/STM32F4xx_HAL_Driver/Inc/stm32f4xx_ll_exti.h ****   * @retval None
 205:Drivers/STM32F4xx_HAL_Driver/Inc/stm32f4xx_ll_exti.h ****   */
 206:Drivers/STM32F4xx_HAL_Driver/Inc/stm32f4xx_ll_exti.h **** #define LL_EXTI_WriteReg(__REG__, __VALUE__) WRITE_REG(EXTI->__REG__, (__VALUE__))
 207:Drivers/STM32F4xx_HAL_Driver/Inc/stm32f4xx_ll_exti.h **** 
 208:Drivers/STM32F4xx_HAL_Driver/Inc/stm32f4xx_ll_exti.h **** /**
 209:Drivers/STM32F4xx_HAL_Driver/Inc/stm32f4xx_ll_exti.h ****   * @brief  Read a value in EXTI register
 210:Drivers/STM32F4xx_HAL_Driver/Inc/stm32f4xx_ll_exti.h ****   * @param  __REG__ Register to be read
 211:Drivers/STM32F4xx_HAL_Driver/Inc/stm32f4xx_ll_exti.h ****   * @retval Register value
 212:Drivers/STM32F4xx_HAL_Driver/Inc/stm32f4xx_ll_exti.h ****   */
 213:Drivers/STM32F4xx_HAL_Driver/Inc/stm32f4xx_ll_exti.h **** #define LL_EXTI_ReadReg(__REG__) READ_REG(EXTI->__REG__)
 214:Drivers/STM32F4xx_HAL_Driver/Inc/stm32f4xx_ll_exti.h **** /**
 215:Drivers/STM32F4xx_HAL_Driver/Inc/stm32f4xx_ll_exti.h ****   * @}
 216:Drivers/STM32F4xx_HAL_Driver/Inc/stm32f4xx_ll_exti.h ****   */
 217:Drivers/STM32F4xx_HAL_Driver/Inc/stm32f4xx_ll_exti.h **** 
 218:Drivers/STM32F4xx_HAL_Driver/Inc/stm32f4xx_ll_exti.h **** 
 219:Drivers/STM32F4xx_HAL_Driver/Inc/stm32f4xx_ll_exti.h **** /**
 220:Drivers/STM32F4xx_HAL_Driver/Inc/stm32f4xx_ll_exti.h ****   * @}
 221:Drivers/STM32F4xx_HAL_Driver/Inc/stm32f4xx_ll_exti.h ****   */
 222:Drivers/STM32F4xx_HAL_Driver/Inc/stm32f4xx_ll_exti.h **** 
 223:Drivers/STM32F4xx_HAL_Driver/Inc/stm32f4xx_ll_exti.h **** 
 224:Drivers/STM32F4xx_HAL_Driver/Inc/stm32f4xx_ll_exti.h **** 
 225:Drivers/STM32F4xx_HAL_Driver/Inc/stm32f4xx_ll_exti.h **** /* Exported functions --------------------------------------------------------*/
 226:Drivers/STM32F4xx_HAL_Driver/Inc/stm32f4xx_ll_exti.h **** /** @defgroup EXTI_LL_Exported_Functions EXTI Exported Functions
 227:Drivers/STM32F4xx_HAL_Driver/Inc/stm32f4xx_ll_exti.h ****  * @{
 228:Drivers/STM32F4xx_HAL_Driver/Inc/stm32f4xx_ll_exti.h ****  */
 229:Drivers/STM32F4xx_HAL_Driver/Inc/stm32f4xx_ll_exti.h **** /** @defgroup EXTI_LL_EF_IT_Management IT_Management
 230:Drivers/STM32F4xx_HAL_Driver/Inc/stm32f4xx_ll_exti.h ****   * @{
 231:Drivers/STM32F4xx_HAL_Driver/Inc/stm32f4xx_ll_exti.h ****   */
 232:Drivers/STM32F4xx_HAL_Driver/Inc/stm32f4xx_ll_exti.h **** 
 233:Drivers/STM32F4xx_HAL_Driver/Inc/stm32f4xx_ll_exti.h **** /**
 234:Drivers/STM32F4xx_HAL_Driver/Inc/stm32f4xx_ll_exti.h ****   * @brief  Enable ExtiLine Interrupt request for Lines in range 0 to 31
 235:Drivers/STM32F4xx_HAL_Driver/Inc/stm32f4xx_ll_exti.h ****   * @note The reset value for the direct or internal lines (see RM)
 236:Drivers/STM32F4xx_HAL_Driver/Inc/stm32f4xx_ll_exti.h ****   *       is set to 1 in order to enable the interrupt by default.
 237:Drivers/STM32F4xx_HAL_Driver/Inc/stm32f4xx_ll_exti.h ****   *       Bits are set automatically at Power on.
 238:Drivers/STM32F4xx_HAL_Driver/Inc/stm32f4xx_ll_exti.h ****   * @rmtoll IMR         IMx           LL_EXTI_EnableIT_0_31
 239:Drivers/STM32F4xx_HAL_Driver/Inc/stm32f4xx_ll_exti.h ****   * @param  ExtiLine This parameter can be one of the following values:
 240:Drivers/STM32F4xx_HAL_Driver/Inc/stm32f4xx_ll_exti.h ****   *         @arg @ref LL_EXTI_LINE_0
ARM GAS  C:\Users\zoosman\AppData\Local\Temp\cc7JyQVY.s 			page 11


 241:Drivers/STM32F4xx_HAL_Driver/Inc/stm32f4xx_ll_exti.h ****   *         @arg @ref LL_EXTI_LINE_1
 242:Drivers/STM32F4xx_HAL_Driver/Inc/stm32f4xx_ll_exti.h ****   *         @arg @ref LL_EXTI_LINE_2
 243:Drivers/STM32F4xx_HAL_Driver/Inc/stm32f4xx_ll_exti.h ****   *         @arg @ref LL_EXTI_LINE_3
 244:Drivers/STM32F4xx_HAL_Driver/Inc/stm32f4xx_ll_exti.h ****   *         @arg @ref LL_EXTI_LINE_4
 245:Drivers/STM32F4xx_HAL_Driver/Inc/stm32f4xx_ll_exti.h ****   *         @arg @ref LL_EXTI_LINE_5
 246:Drivers/STM32F4xx_HAL_Driver/Inc/stm32f4xx_ll_exti.h ****   *         @arg @ref LL_EXTI_LINE_6
 247:Drivers/STM32F4xx_HAL_Driver/Inc/stm32f4xx_ll_exti.h ****   *         @arg @ref LL_EXTI_LINE_7
 248:Drivers/STM32F4xx_HAL_Driver/Inc/stm32f4xx_ll_exti.h ****   *         @arg @ref LL_EXTI_LINE_8
 249:Drivers/STM32F4xx_HAL_Driver/Inc/stm32f4xx_ll_exti.h ****   *         @arg @ref LL_EXTI_LINE_9
 250:Drivers/STM32F4xx_HAL_Driver/Inc/stm32f4xx_ll_exti.h ****   *         @arg @ref LL_EXTI_LINE_10
 251:Drivers/STM32F4xx_HAL_Driver/Inc/stm32f4xx_ll_exti.h ****   *         @arg @ref LL_EXTI_LINE_11
 252:Drivers/STM32F4xx_HAL_Driver/Inc/stm32f4xx_ll_exti.h ****   *         @arg @ref LL_EXTI_LINE_12
 253:Drivers/STM32F4xx_HAL_Driver/Inc/stm32f4xx_ll_exti.h ****   *         @arg @ref LL_EXTI_LINE_13
 254:Drivers/STM32F4xx_HAL_Driver/Inc/stm32f4xx_ll_exti.h ****   *         @arg @ref LL_EXTI_LINE_14
 255:Drivers/STM32F4xx_HAL_Driver/Inc/stm32f4xx_ll_exti.h ****   *         @arg @ref LL_EXTI_LINE_15
 256:Drivers/STM32F4xx_HAL_Driver/Inc/stm32f4xx_ll_exti.h ****   *         @arg @ref LL_EXTI_LINE_16
 257:Drivers/STM32F4xx_HAL_Driver/Inc/stm32f4xx_ll_exti.h ****   *         @arg @ref LL_EXTI_LINE_17
 258:Drivers/STM32F4xx_HAL_Driver/Inc/stm32f4xx_ll_exti.h ****   *         @arg @ref LL_EXTI_LINE_18
 259:Drivers/STM32F4xx_HAL_Driver/Inc/stm32f4xx_ll_exti.h ****   *         @arg @ref LL_EXTI_LINE_19(*)
 260:Drivers/STM32F4xx_HAL_Driver/Inc/stm32f4xx_ll_exti.h ****   *         @arg @ref LL_EXTI_LINE_20(*)
 261:Drivers/STM32F4xx_HAL_Driver/Inc/stm32f4xx_ll_exti.h ****   *         @arg @ref LL_EXTI_LINE_21
 262:Drivers/STM32F4xx_HAL_Driver/Inc/stm32f4xx_ll_exti.h ****   *         @arg @ref LL_EXTI_LINE_22
 263:Drivers/STM32F4xx_HAL_Driver/Inc/stm32f4xx_ll_exti.h ****   *         @arg @ref LL_EXTI_LINE_23(*)
 264:Drivers/STM32F4xx_HAL_Driver/Inc/stm32f4xx_ll_exti.h ****   *         @arg @ref LL_EXTI_LINE_ALL_0_31
 265:Drivers/STM32F4xx_HAL_Driver/Inc/stm32f4xx_ll_exti.h ****   * @note   (*): Available in some devices
 266:Drivers/STM32F4xx_HAL_Driver/Inc/stm32f4xx_ll_exti.h ****   * @note   Please check each device line mapping for EXTI Line availability
 267:Drivers/STM32F4xx_HAL_Driver/Inc/stm32f4xx_ll_exti.h ****   * @retval None
 268:Drivers/STM32F4xx_HAL_Driver/Inc/stm32f4xx_ll_exti.h ****   */
 269:Drivers/STM32F4xx_HAL_Driver/Inc/stm32f4xx_ll_exti.h **** __STATIC_INLINE void LL_EXTI_EnableIT_0_31(uint32_t ExtiLine)
 270:Drivers/STM32F4xx_HAL_Driver/Inc/stm32f4xx_ll_exti.h **** {
 271:Drivers/STM32F4xx_HAL_Driver/Inc/stm32f4xx_ll_exti.h ****   SET_BIT(EXTI->IMR, ExtiLine);
 272:Drivers/STM32F4xx_HAL_Driver/Inc/stm32f4xx_ll_exti.h **** }
 273:Drivers/STM32F4xx_HAL_Driver/Inc/stm32f4xx_ll_exti.h **** 
 274:Drivers/STM32F4xx_HAL_Driver/Inc/stm32f4xx_ll_exti.h **** /**
 275:Drivers/STM32F4xx_HAL_Driver/Inc/stm32f4xx_ll_exti.h ****   * @brief  Disable ExtiLine Interrupt request for Lines in range 0 to 31
 276:Drivers/STM32F4xx_HAL_Driver/Inc/stm32f4xx_ll_exti.h ****   * @note The reset value for the direct or internal lines (see RM)
 277:Drivers/STM32F4xx_HAL_Driver/Inc/stm32f4xx_ll_exti.h ****   *       is set to 1 in order to enable the interrupt by default.
 278:Drivers/STM32F4xx_HAL_Driver/Inc/stm32f4xx_ll_exti.h ****   *       Bits are set automatically at Power on.
 279:Drivers/STM32F4xx_HAL_Driver/Inc/stm32f4xx_ll_exti.h ****   * @rmtoll IMR         IMx           LL_EXTI_DisableIT_0_31
 280:Drivers/STM32F4xx_HAL_Driver/Inc/stm32f4xx_ll_exti.h ****   * @param  ExtiLine This parameter can be one of the following values:
 281:Drivers/STM32F4xx_HAL_Driver/Inc/stm32f4xx_ll_exti.h ****   *         @arg @ref LL_EXTI_LINE_0
 282:Drivers/STM32F4xx_HAL_Driver/Inc/stm32f4xx_ll_exti.h ****   *         @arg @ref LL_EXTI_LINE_1
 283:Drivers/STM32F4xx_HAL_Driver/Inc/stm32f4xx_ll_exti.h ****   *         @arg @ref LL_EXTI_LINE_2
 284:Drivers/STM32F4xx_HAL_Driver/Inc/stm32f4xx_ll_exti.h ****   *         @arg @ref LL_EXTI_LINE_3
 285:Drivers/STM32F4xx_HAL_Driver/Inc/stm32f4xx_ll_exti.h ****   *         @arg @ref LL_EXTI_LINE_4
 286:Drivers/STM32F4xx_HAL_Driver/Inc/stm32f4xx_ll_exti.h ****   *         @arg @ref LL_EXTI_LINE_5
 287:Drivers/STM32F4xx_HAL_Driver/Inc/stm32f4xx_ll_exti.h ****   *         @arg @ref LL_EXTI_LINE_6
 288:Drivers/STM32F4xx_HAL_Driver/Inc/stm32f4xx_ll_exti.h ****   *         @arg @ref LL_EXTI_LINE_7
 289:Drivers/STM32F4xx_HAL_Driver/Inc/stm32f4xx_ll_exti.h ****   *         @arg @ref LL_EXTI_LINE_8
 290:Drivers/STM32F4xx_HAL_Driver/Inc/stm32f4xx_ll_exti.h ****   *         @arg @ref LL_EXTI_LINE_9
 291:Drivers/STM32F4xx_HAL_Driver/Inc/stm32f4xx_ll_exti.h ****   *         @arg @ref LL_EXTI_LINE_10
 292:Drivers/STM32F4xx_HAL_Driver/Inc/stm32f4xx_ll_exti.h ****   *         @arg @ref LL_EXTI_LINE_11
 293:Drivers/STM32F4xx_HAL_Driver/Inc/stm32f4xx_ll_exti.h ****   *         @arg @ref LL_EXTI_LINE_12
 294:Drivers/STM32F4xx_HAL_Driver/Inc/stm32f4xx_ll_exti.h ****   *         @arg @ref LL_EXTI_LINE_13
 295:Drivers/STM32F4xx_HAL_Driver/Inc/stm32f4xx_ll_exti.h ****   *         @arg @ref LL_EXTI_LINE_14
 296:Drivers/STM32F4xx_HAL_Driver/Inc/stm32f4xx_ll_exti.h ****   *         @arg @ref LL_EXTI_LINE_15
 297:Drivers/STM32F4xx_HAL_Driver/Inc/stm32f4xx_ll_exti.h ****   *         @arg @ref LL_EXTI_LINE_16
ARM GAS  C:\Users\zoosman\AppData\Local\Temp\cc7JyQVY.s 			page 12


 298:Drivers/STM32F4xx_HAL_Driver/Inc/stm32f4xx_ll_exti.h ****   *         @arg @ref LL_EXTI_LINE_17
 299:Drivers/STM32F4xx_HAL_Driver/Inc/stm32f4xx_ll_exti.h ****   *         @arg @ref LL_EXTI_LINE_18
 300:Drivers/STM32F4xx_HAL_Driver/Inc/stm32f4xx_ll_exti.h ****   *         @arg @ref LL_EXTI_LINE_19(*)
 301:Drivers/STM32F4xx_HAL_Driver/Inc/stm32f4xx_ll_exti.h ****   *         @arg @ref LL_EXTI_LINE_20(*)
 302:Drivers/STM32F4xx_HAL_Driver/Inc/stm32f4xx_ll_exti.h ****   *         @arg @ref LL_EXTI_LINE_21
 303:Drivers/STM32F4xx_HAL_Driver/Inc/stm32f4xx_ll_exti.h ****   *         @arg @ref LL_EXTI_LINE_22
 304:Drivers/STM32F4xx_HAL_Driver/Inc/stm32f4xx_ll_exti.h ****   *         @arg @ref LL_EXTI_LINE_23(*)
 305:Drivers/STM32F4xx_HAL_Driver/Inc/stm32f4xx_ll_exti.h ****   *         @arg @ref LL_EXTI_LINE_ALL_0_31
 306:Drivers/STM32F4xx_HAL_Driver/Inc/stm32f4xx_ll_exti.h ****   * @note   (*): Available in some devices
 307:Drivers/STM32F4xx_HAL_Driver/Inc/stm32f4xx_ll_exti.h ****   * @note   Please check each device line mapping for EXTI Line availability
 308:Drivers/STM32F4xx_HAL_Driver/Inc/stm32f4xx_ll_exti.h ****   * @retval None
 309:Drivers/STM32F4xx_HAL_Driver/Inc/stm32f4xx_ll_exti.h ****   */
 310:Drivers/STM32F4xx_HAL_Driver/Inc/stm32f4xx_ll_exti.h **** __STATIC_INLINE void LL_EXTI_DisableIT_0_31(uint32_t ExtiLine)
 147              		.loc 2 310 22 view .LVU35
 148              	.LBB31:
 311:Drivers/STM32F4xx_HAL_Driver/Inc/stm32f4xx_ll_exti.h **** {
 312:Drivers/STM32F4xx_HAL_Driver/Inc/stm32f4xx_ll_exti.h ****   CLEAR_BIT(EXTI->IMR, ExtiLine);
 149              		.loc 2 312 3 view .LVU36
 150 0032 214A     		ldr	r2, .L26
 151 0034 1C68     		ldr	r4, [r3]
 152 0036 1168     		ldr	r1, [r2]
 153 0038 21EA0401 		bic	r1, r1, r4
 154 003c 1160     		str	r1, [r2]
 155              	.LVL6:
 156              		.loc 2 312 3 is_stmt 0 view .LVU37
 157              	.LBE31:
 158              	.LBE30:
 176:Drivers/STM32F4xx_HAL_Driver/Src/stm32f4xx_ll_exti.c ****   }
 159              		.loc 1 176 5 is_stmt 1 view .LVU38
 160              	.LBB32:
 161              	.LBI32:
 313:Drivers/STM32F4xx_HAL_Driver/Inc/stm32f4xx_ll_exti.h **** }
 314:Drivers/STM32F4xx_HAL_Driver/Inc/stm32f4xx_ll_exti.h **** 
 315:Drivers/STM32F4xx_HAL_Driver/Inc/stm32f4xx_ll_exti.h **** 
 316:Drivers/STM32F4xx_HAL_Driver/Inc/stm32f4xx_ll_exti.h **** /**
 317:Drivers/STM32F4xx_HAL_Driver/Inc/stm32f4xx_ll_exti.h ****   * @brief  Indicate if ExtiLine Interrupt request is enabled for Lines in range 0 to 31
 318:Drivers/STM32F4xx_HAL_Driver/Inc/stm32f4xx_ll_exti.h ****   * @note The reset value for the direct or internal lines (see RM)
 319:Drivers/STM32F4xx_HAL_Driver/Inc/stm32f4xx_ll_exti.h ****   *       is set to 1 in order to enable the interrupt by default.
 320:Drivers/STM32F4xx_HAL_Driver/Inc/stm32f4xx_ll_exti.h ****   *       Bits are set automatically at Power on.
 321:Drivers/STM32F4xx_HAL_Driver/Inc/stm32f4xx_ll_exti.h ****   * @rmtoll IMR         IMx           LL_EXTI_IsEnabledIT_0_31
 322:Drivers/STM32F4xx_HAL_Driver/Inc/stm32f4xx_ll_exti.h ****   * @param  ExtiLine This parameter can be one of the following values:
 323:Drivers/STM32F4xx_HAL_Driver/Inc/stm32f4xx_ll_exti.h ****   *         @arg @ref LL_EXTI_LINE_0
 324:Drivers/STM32F4xx_HAL_Driver/Inc/stm32f4xx_ll_exti.h ****   *         @arg @ref LL_EXTI_LINE_1
 325:Drivers/STM32F4xx_HAL_Driver/Inc/stm32f4xx_ll_exti.h ****   *         @arg @ref LL_EXTI_LINE_2
 326:Drivers/STM32F4xx_HAL_Driver/Inc/stm32f4xx_ll_exti.h ****   *         @arg @ref LL_EXTI_LINE_3
 327:Drivers/STM32F4xx_HAL_Driver/Inc/stm32f4xx_ll_exti.h ****   *         @arg @ref LL_EXTI_LINE_4
 328:Drivers/STM32F4xx_HAL_Driver/Inc/stm32f4xx_ll_exti.h ****   *         @arg @ref LL_EXTI_LINE_5
 329:Drivers/STM32F4xx_HAL_Driver/Inc/stm32f4xx_ll_exti.h ****   *         @arg @ref LL_EXTI_LINE_6
 330:Drivers/STM32F4xx_HAL_Driver/Inc/stm32f4xx_ll_exti.h ****   *         @arg @ref LL_EXTI_LINE_7
 331:Drivers/STM32F4xx_HAL_Driver/Inc/stm32f4xx_ll_exti.h ****   *         @arg @ref LL_EXTI_LINE_8
 332:Drivers/STM32F4xx_HAL_Driver/Inc/stm32f4xx_ll_exti.h ****   *         @arg @ref LL_EXTI_LINE_9
 333:Drivers/STM32F4xx_HAL_Driver/Inc/stm32f4xx_ll_exti.h ****   *         @arg @ref LL_EXTI_LINE_10
 334:Drivers/STM32F4xx_HAL_Driver/Inc/stm32f4xx_ll_exti.h ****   *         @arg @ref LL_EXTI_LINE_11
 335:Drivers/STM32F4xx_HAL_Driver/Inc/stm32f4xx_ll_exti.h ****   *         @arg @ref LL_EXTI_LINE_12
 336:Drivers/STM32F4xx_HAL_Driver/Inc/stm32f4xx_ll_exti.h ****   *         @arg @ref LL_EXTI_LINE_13
 337:Drivers/STM32F4xx_HAL_Driver/Inc/stm32f4xx_ll_exti.h ****   *         @arg @ref LL_EXTI_LINE_14
 338:Drivers/STM32F4xx_HAL_Driver/Inc/stm32f4xx_ll_exti.h ****   *         @arg @ref LL_EXTI_LINE_15
ARM GAS  C:\Users\zoosman\AppData\Local\Temp\cc7JyQVY.s 			page 13


 339:Drivers/STM32F4xx_HAL_Driver/Inc/stm32f4xx_ll_exti.h ****   *         @arg @ref LL_EXTI_LINE_16
 340:Drivers/STM32F4xx_HAL_Driver/Inc/stm32f4xx_ll_exti.h ****   *         @arg @ref LL_EXTI_LINE_17
 341:Drivers/STM32F4xx_HAL_Driver/Inc/stm32f4xx_ll_exti.h ****   *         @arg @ref LL_EXTI_LINE_18
 342:Drivers/STM32F4xx_HAL_Driver/Inc/stm32f4xx_ll_exti.h ****   *         @arg @ref LL_EXTI_LINE_19(*)
 343:Drivers/STM32F4xx_HAL_Driver/Inc/stm32f4xx_ll_exti.h ****   *         @arg @ref LL_EXTI_LINE_20(*)
 344:Drivers/STM32F4xx_HAL_Driver/Inc/stm32f4xx_ll_exti.h ****   *         @arg @ref LL_EXTI_LINE_21
 345:Drivers/STM32F4xx_HAL_Driver/Inc/stm32f4xx_ll_exti.h ****   *         @arg @ref LL_EXTI_LINE_22
 346:Drivers/STM32F4xx_HAL_Driver/Inc/stm32f4xx_ll_exti.h ****   *         @arg @ref LL_EXTI_LINE_23(*)
 347:Drivers/STM32F4xx_HAL_Driver/Inc/stm32f4xx_ll_exti.h ****   *         @arg @ref LL_EXTI_LINE_ALL_0_31
 348:Drivers/STM32F4xx_HAL_Driver/Inc/stm32f4xx_ll_exti.h ****   * @note   (*): Available in some devices
 349:Drivers/STM32F4xx_HAL_Driver/Inc/stm32f4xx_ll_exti.h ****   * @note   Please check each device line mapping for EXTI Line availability
 350:Drivers/STM32F4xx_HAL_Driver/Inc/stm32f4xx_ll_exti.h ****   * @retval State of bit (1 or 0).
 351:Drivers/STM32F4xx_HAL_Driver/Inc/stm32f4xx_ll_exti.h ****   */
 352:Drivers/STM32F4xx_HAL_Driver/Inc/stm32f4xx_ll_exti.h **** __STATIC_INLINE uint32_t LL_EXTI_IsEnabledIT_0_31(uint32_t ExtiLine)
 353:Drivers/STM32F4xx_HAL_Driver/Inc/stm32f4xx_ll_exti.h **** {
 354:Drivers/STM32F4xx_HAL_Driver/Inc/stm32f4xx_ll_exti.h ****   return (READ_BIT(EXTI->IMR, ExtiLine) == (ExtiLine));
 355:Drivers/STM32F4xx_HAL_Driver/Inc/stm32f4xx_ll_exti.h **** }
 356:Drivers/STM32F4xx_HAL_Driver/Inc/stm32f4xx_ll_exti.h **** 
 357:Drivers/STM32F4xx_HAL_Driver/Inc/stm32f4xx_ll_exti.h **** 
 358:Drivers/STM32F4xx_HAL_Driver/Inc/stm32f4xx_ll_exti.h **** /**
 359:Drivers/STM32F4xx_HAL_Driver/Inc/stm32f4xx_ll_exti.h ****   * @}
 360:Drivers/STM32F4xx_HAL_Driver/Inc/stm32f4xx_ll_exti.h ****   */
 361:Drivers/STM32F4xx_HAL_Driver/Inc/stm32f4xx_ll_exti.h **** 
 362:Drivers/STM32F4xx_HAL_Driver/Inc/stm32f4xx_ll_exti.h **** /** @defgroup EXTI_LL_EF_Event_Management Event_Management
 363:Drivers/STM32F4xx_HAL_Driver/Inc/stm32f4xx_ll_exti.h ****   * @{
 364:Drivers/STM32F4xx_HAL_Driver/Inc/stm32f4xx_ll_exti.h ****   */
 365:Drivers/STM32F4xx_HAL_Driver/Inc/stm32f4xx_ll_exti.h **** 
 366:Drivers/STM32F4xx_HAL_Driver/Inc/stm32f4xx_ll_exti.h **** /**
 367:Drivers/STM32F4xx_HAL_Driver/Inc/stm32f4xx_ll_exti.h ****   * @brief  Enable ExtiLine Event request for Lines in range 0 to 31
 368:Drivers/STM32F4xx_HAL_Driver/Inc/stm32f4xx_ll_exti.h ****   * @rmtoll EMR         EMx           LL_EXTI_EnableEvent_0_31
 369:Drivers/STM32F4xx_HAL_Driver/Inc/stm32f4xx_ll_exti.h ****   * @param  ExtiLine This parameter can be one of the following values:
 370:Drivers/STM32F4xx_HAL_Driver/Inc/stm32f4xx_ll_exti.h ****   *         @arg @ref LL_EXTI_LINE_0
 371:Drivers/STM32F4xx_HAL_Driver/Inc/stm32f4xx_ll_exti.h ****   *         @arg @ref LL_EXTI_LINE_1
 372:Drivers/STM32F4xx_HAL_Driver/Inc/stm32f4xx_ll_exti.h ****   *         @arg @ref LL_EXTI_LINE_2
 373:Drivers/STM32F4xx_HAL_Driver/Inc/stm32f4xx_ll_exti.h ****   *         @arg @ref LL_EXTI_LINE_3
 374:Drivers/STM32F4xx_HAL_Driver/Inc/stm32f4xx_ll_exti.h ****   *         @arg @ref LL_EXTI_LINE_4
 375:Drivers/STM32F4xx_HAL_Driver/Inc/stm32f4xx_ll_exti.h ****   *         @arg @ref LL_EXTI_LINE_5
 376:Drivers/STM32F4xx_HAL_Driver/Inc/stm32f4xx_ll_exti.h ****   *         @arg @ref LL_EXTI_LINE_6
 377:Drivers/STM32F4xx_HAL_Driver/Inc/stm32f4xx_ll_exti.h ****   *         @arg @ref LL_EXTI_LINE_7
 378:Drivers/STM32F4xx_HAL_Driver/Inc/stm32f4xx_ll_exti.h ****   *         @arg @ref LL_EXTI_LINE_8
 379:Drivers/STM32F4xx_HAL_Driver/Inc/stm32f4xx_ll_exti.h ****   *         @arg @ref LL_EXTI_LINE_9
 380:Drivers/STM32F4xx_HAL_Driver/Inc/stm32f4xx_ll_exti.h ****   *         @arg @ref LL_EXTI_LINE_10
 381:Drivers/STM32F4xx_HAL_Driver/Inc/stm32f4xx_ll_exti.h ****   *         @arg @ref LL_EXTI_LINE_11
 382:Drivers/STM32F4xx_HAL_Driver/Inc/stm32f4xx_ll_exti.h ****   *         @arg @ref LL_EXTI_LINE_12
 383:Drivers/STM32F4xx_HAL_Driver/Inc/stm32f4xx_ll_exti.h ****   *         @arg @ref LL_EXTI_LINE_13
 384:Drivers/STM32F4xx_HAL_Driver/Inc/stm32f4xx_ll_exti.h ****   *         @arg @ref LL_EXTI_LINE_14
 385:Drivers/STM32F4xx_HAL_Driver/Inc/stm32f4xx_ll_exti.h ****   *         @arg @ref LL_EXTI_LINE_15
 386:Drivers/STM32F4xx_HAL_Driver/Inc/stm32f4xx_ll_exti.h ****   *         @arg @ref LL_EXTI_LINE_16
 387:Drivers/STM32F4xx_HAL_Driver/Inc/stm32f4xx_ll_exti.h ****   *         @arg @ref LL_EXTI_LINE_17
 388:Drivers/STM32F4xx_HAL_Driver/Inc/stm32f4xx_ll_exti.h ****   *         @arg @ref LL_EXTI_LINE_18
 389:Drivers/STM32F4xx_HAL_Driver/Inc/stm32f4xx_ll_exti.h ****   *         @arg @ref LL_EXTI_LINE_19(*)
 390:Drivers/STM32F4xx_HAL_Driver/Inc/stm32f4xx_ll_exti.h ****   *         @arg @ref LL_EXTI_LINE_20(*)
 391:Drivers/STM32F4xx_HAL_Driver/Inc/stm32f4xx_ll_exti.h ****   *         @arg @ref LL_EXTI_LINE_21
 392:Drivers/STM32F4xx_HAL_Driver/Inc/stm32f4xx_ll_exti.h ****   *         @arg @ref LL_EXTI_LINE_22
 393:Drivers/STM32F4xx_HAL_Driver/Inc/stm32f4xx_ll_exti.h ****   *         @arg @ref LL_EXTI_LINE_23(*)
 394:Drivers/STM32F4xx_HAL_Driver/Inc/stm32f4xx_ll_exti.h ****   *         @arg @ref LL_EXTI_LINE_ALL_0_31
 395:Drivers/STM32F4xx_HAL_Driver/Inc/stm32f4xx_ll_exti.h ****   * @note   (*): Available in some devices
ARM GAS  C:\Users\zoosman\AppData\Local\Temp\cc7JyQVY.s 			page 14


 396:Drivers/STM32F4xx_HAL_Driver/Inc/stm32f4xx_ll_exti.h ****   * @note   Please check each device line mapping for EXTI Line availability
 397:Drivers/STM32F4xx_HAL_Driver/Inc/stm32f4xx_ll_exti.h ****   * @retval None
 398:Drivers/STM32F4xx_HAL_Driver/Inc/stm32f4xx_ll_exti.h ****   */
 399:Drivers/STM32F4xx_HAL_Driver/Inc/stm32f4xx_ll_exti.h **** __STATIC_INLINE void LL_EXTI_EnableEvent_0_31(uint32_t ExtiLine)
 400:Drivers/STM32F4xx_HAL_Driver/Inc/stm32f4xx_ll_exti.h **** {
 401:Drivers/STM32F4xx_HAL_Driver/Inc/stm32f4xx_ll_exti.h ****   SET_BIT(EXTI->EMR, ExtiLine);
 402:Drivers/STM32F4xx_HAL_Driver/Inc/stm32f4xx_ll_exti.h **** 
 403:Drivers/STM32F4xx_HAL_Driver/Inc/stm32f4xx_ll_exti.h **** }
 404:Drivers/STM32F4xx_HAL_Driver/Inc/stm32f4xx_ll_exti.h **** 
 405:Drivers/STM32F4xx_HAL_Driver/Inc/stm32f4xx_ll_exti.h **** 
 406:Drivers/STM32F4xx_HAL_Driver/Inc/stm32f4xx_ll_exti.h **** /**
 407:Drivers/STM32F4xx_HAL_Driver/Inc/stm32f4xx_ll_exti.h ****   * @brief  Disable ExtiLine Event request for Lines in range 0 to 31
 408:Drivers/STM32F4xx_HAL_Driver/Inc/stm32f4xx_ll_exti.h ****   * @rmtoll EMR         EMx           LL_EXTI_DisableEvent_0_31
 409:Drivers/STM32F4xx_HAL_Driver/Inc/stm32f4xx_ll_exti.h ****   * @param  ExtiLine This parameter can be one of the following values:
 410:Drivers/STM32F4xx_HAL_Driver/Inc/stm32f4xx_ll_exti.h ****   *         @arg @ref LL_EXTI_LINE_0
 411:Drivers/STM32F4xx_HAL_Driver/Inc/stm32f4xx_ll_exti.h ****   *         @arg @ref LL_EXTI_LINE_1
 412:Drivers/STM32F4xx_HAL_Driver/Inc/stm32f4xx_ll_exti.h ****   *         @arg @ref LL_EXTI_LINE_2
 413:Drivers/STM32F4xx_HAL_Driver/Inc/stm32f4xx_ll_exti.h ****   *         @arg @ref LL_EXTI_LINE_3
 414:Drivers/STM32F4xx_HAL_Driver/Inc/stm32f4xx_ll_exti.h ****   *         @arg @ref LL_EXTI_LINE_4
 415:Drivers/STM32F4xx_HAL_Driver/Inc/stm32f4xx_ll_exti.h ****   *         @arg @ref LL_EXTI_LINE_5
 416:Drivers/STM32F4xx_HAL_Driver/Inc/stm32f4xx_ll_exti.h ****   *         @arg @ref LL_EXTI_LINE_6
 417:Drivers/STM32F4xx_HAL_Driver/Inc/stm32f4xx_ll_exti.h ****   *         @arg @ref LL_EXTI_LINE_7
 418:Drivers/STM32F4xx_HAL_Driver/Inc/stm32f4xx_ll_exti.h ****   *         @arg @ref LL_EXTI_LINE_8
 419:Drivers/STM32F4xx_HAL_Driver/Inc/stm32f4xx_ll_exti.h ****   *         @arg @ref LL_EXTI_LINE_9
 420:Drivers/STM32F4xx_HAL_Driver/Inc/stm32f4xx_ll_exti.h ****   *         @arg @ref LL_EXTI_LINE_10
 421:Drivers/STM32F4xx_HAL_Driver/Inc/stm32f4xx_ll_exti.h ****   *         @arg @ref LL_EXTI_LINE_11
 422:Drivers/STM32F4xx_HAL_Driver/Inc/stm32f4xx_ll_exti.h ****   *         @arg @ref LL_EXTI_LINE_12
 423:Drivers/STM32F4xx_HAL_Driver/Inc/stm32f4xx_ll_exti.h ****   *         @arg @ref LL_EXTI_LINE_13
 424:Drivers/STM32F4xx_HAL_Driver/Inc/stm32f4xx_ll_exti.h ****   *         @arg @ref LL_EXTI_LINE_14
 425:Drivers/STM32F4xx_HAL_Driver/Inc/stm32f4xx_ll_exti.h ****   *         @arg @ref LL_EXTI_LINE_15
 426:Drivers/STM32F4xx_HAL_Driver/Inc/stm32f4xx_ll_exti.h ****   *         @arg @ref LL_EXTI_LINE_16
 427:Drivers/STM32F4xx_HAL_Driver/Inc/stm32f4xx_ll_exti.h ****   *         @arg @ref LL_EXTI_LINE_17
 428:Drivers/STM32F4xx_HAL_Driver/Inc/stm32f4xx_ll_exti.h ****   *         @arg @ref LL_EXTI_LINE_18
 429:Drivers/STM32F4xx_HAL_Driver/Inc/stm32f4xx_ll_exti.h ****   *         @arg @ref LL_EXTI_LINE_19(*)
 430:Drivers/STM32F4xx_HAL_Driver/Inc/stm32f4xx_ll_exti.h ****   *         @arg @ref LL_EXTI_LINE_20(*)
 431:Drivers/STM32F4xx_HAL_Driver/Inc/stm32f4xx_ll_exti.h ****   *         @arg @ref LL_EXTI_LINE_21
 432:Drivers/STM32F4xx_HAL_Driver/Inc/stm32f4xx_ll_exti.h ****   *         @arg @ref LL_EXTI_LINE_22
 433:Drivers/STM32F4xx_HAL_Driver/Inc/stm32f4xx_ll_exti.h ****   *         @arg @ref LL_EXTI_LINE_23(*)
 434:Drivers/STM32F4xx_HAL_Driver/Inc/stm32f4xx_ll_exti.h ****   *         @arg @ref LL_EXTI_LINE_ALL_0_31
 435:Drivers/STM32F4xx_HAL_Driver/Inc/stm32f4xx_ll_exti.h ****   * @note   (*): Available in some devices
 436:Drivers/STM32F4xx_HAL_Driver/Inc/stm32f4xx_ll_exti.h ****   * @note   Please check each device line mapping for EXTI Line availability
 437:Drivers/STM32F4xx_HAL_Driver/Inc/stm32f4xx_ll_exti.h ****   * @retval None
 438:Drivers/STM32F4xx_HAL_Driver/Inc/stm32f4xx_ll_exti.h ****   */
 439:Drivers/STM32F4xx_HAL_Driver/Inc/stm32f4xx_ll_exti.h **** __STATIC_INLINE void LL_EXTI_DisableEvent_0_31(uint32_t ExtiLine)
 162              		.loc 2 439 22 view .LVU39
 163              	.LBB33:
 440:Drivers/STM32F4xx_HAL_Driver/Inc/stm32f4xx_ll_exti.h **** {
 441:Drivers/STM32F4xx_HAL_Driver/Inc/stm32f4xx_ll_exti.h ****   CLEAR_BIT(EXTI->EMR, ExtiLine);
 164              		.loc 2 441 3 view .LVU40
 165 003e 5368     		ldr	r3, [r2, #4]
 166              	.LVL7:
 167              		.loc 2 441 3 is_stmt 0 view .LVU41
 168 0040 23EA0403 		bic	r3, r3, r4
 169 0044 5360     		str	r3, [r2, #4]
 170              	.LBE33:
 171              	.LBE32:
 172              		.loc 1 179 1 view .LVU42
ARM GAS  C:\Users\zoosman\AppData\Local\Temp\cc7JyQVY.s 			page 15


 173 0046 5DF8044B 		ldr	r4, [sp], #4
 174              	.LCFI3:
 175              		.cfi_remember_state
 176              		.cfi_restore 4
 177              		.cfi_def_cfa_offset 0
 178 004a 7047     		bx	lr
 179              	.LVL8:
 180              	.L9:
 181              	.LCFI4:
 182              		.cfi_restore_state
 137:Drivers/STM32F4xx_HAL_Driver/Src/stm32f4xx_ll_exti.c ****           LL_EXTI_EnableEvent_0_31(EXTI_InitStruct->Line_0_31);
 183              		.loc 1 137 11 is_stmt 1 view .LVU43
 184              	.LBB34:
 185              	.LBI34:
 269:Drivers/STM32F4xx_HAL_Driver/Inc/stm32f4xx_ll_exti.h **** {
 186              		.loc 2 269 22 view .LVU44
 187              	.LBB35:
 271:Drivers/STM32F4xx_HAL_Driver/Inc/stm32f4xx_ll_exti.h **** }
 188              		.loc 2 271 3 view .LVU45
 189 004c 1A4A     		ldr	r2, .L26
 190 004e 1168     		ldr	r1, [r2]
 191 0050 0143     		orrs	r1, r1, r0
 192              	.LVL9:
 193              	.L20:
 271:Drivers/STM32F4xx_HAL_Driver/Inc/stm32f4xx_ll_exti.h **** }
 194              		.loc 2 271 3 is_stmt 0 view .LVU46
 195 0052 1160     		str	r1, [r2]
 196              	.LBE35:
 197              	.LBE34:
 138:Drivers/STM32F4xx_HAL_Driver/Src/stm32f4xx_ll_exti.c ****           break;
 198              		.loc 1 138 11 is_stmt 1 view .LVU47
 199              	.LVL10:
 200              	.LBB36:
 201              	.LBI36:
 399:Drivers/STM32F4xx_HAL_Driver/Inc/stm32f4xx_ll_exti.h **** {
 202              		.loc 2 399 22 view .LVU48
 203              	.LBB37:
 401:Drivers/STM32F4xx_HAL_Driver/Inc/stm32f4xx_ll_exti.h **** 
 204              		.loc 2 401 3 view .LVU49
 205 0054 5168     		ldr	r1, [r2, #4]
 206 0056 0143     		orrs	r1, r1, r0
 207 0058 5160     		str	r1, [r2, #4]
 208              	.LBE37:
 209              	.LBE36:
 144:Drivers/STM32F4xx_HAL_Driver/Src/stm32f4xx_ll_exti.c ****       {
 210              		.loc 1 144 26 is_stmt 0 view .LVU50
 211 005a 9B79     		ldrb	r3, [r3, #6]	@ zero_extendqisi2
 212              	.LVL11:
 107:Drivers/STM32F4xx_HAL_Driver/Src/stm32f4xx_ll_exti.c ****   /* Check the parameters */
 213              		.loc 1 107 15 view .LVU51
 214 005c 0022     		movs	r2, #0
 215              	.LVL12:
 144:Drivers/STM32F4xx_HAL_Driver/Src/stm32f4xx_ll_exti.c ****       {
 216              		.loc 1 144 7 is_stmt 1 view .LVU52
 144:Drivers/STM32F4xx_HAL_Driver/Src/stm32f4xx_ll_exti.c ****       {
 217              		.loc 1 144 10 is_stmt 0 view .LVU53
 218 005e 002B     		cmp	r3, #0
ARM GAS  C:\Users\zoosman\AppData\Local\Temp\cc7JyQVY.s 			page 16


 219 0060 DDD1     		bne	.L11
 220              	.L21:
 144:Drivers/STM32F4xx_HAL_Driver/Src/stm32f4xx_ll_exti.c ****       {
 221              		.loc 1 144 10 view .LVU54
 222 0062 1046     		mov	r0, r2
 223              	.L25:
 224              		.loc 1 179 1 view .LVU55
 225 0064 5DF8044B 		ldr	r4, [sp], #4
 226              	.LCFI5:
 227              		.cfi_remember_state
 228              		.cfi_restore 4
 229              		.cfi_def_cfa_offset 0
 230 0068 7047     		bx	lr
 231              	.LVL13:
 232              	.L23:
 233              	.LCFI6:
 234              		.cfi_restore_state
 125:Drivers/STM32F4xx_HAL_Driver/Src/stm32f4xx_ll_exti.c ****           /* Then Enable IT on provided Lines */
 235              		.loc 1 125 11 is_stmt 1 view .LVU56
 236              	.LBB38:
 237              	.LBI38:
 439:Drivers/STM32F4xx_HAL_Driver/Inc/stm32f4xx_ll_exti.h **** {
 238              		.loc 2 439 22 view .LVU57
 239              	.LBB39:
 240              		.loc 2 441 3 view .LVU58
 241 006a 1349     		ldr	r1, .L26
 242 006c 4C68     		ldr	r4, [r1, #4]
 243 006e 24EA0004 		bic	r4, r4, r0
 244 0072 4C60     		str	r4, [r1, #4]
 245              	.LVL14:
 246              		.loc 2 441 3 is_stmt 0 view .LVU59
 247              	.LBE39:
 248              	.LBE38:
 127:Drivers/STM32F4xx_HAL_Driver/Src/stm32f4xx_ll_exti.c ****           break;
 249              		.loc 1 127 11 is_stmt 1 view .LVU60
 250              	.LBB40:
 251              	.LBI40:
 269:Drivers/STM32F4xx_HAL_Driver/Inc/stm32f4xx_ll_exti.h **** {
 252              		.loc 2 269 22 view .LVU61
 253              	.LBB41:
 271:Drivers/STM32F4xx_HAL_Driver/Inc/stm32f4xx_ll_exti.h **** }
 254              		.loc 2 271 3 view .LVU62
 255 0074 0C68     		ldr	r4, [r1]
 256 0076 0443     		orrs	r4, r4, r0
 257 0078 0C60     		str	r4, [r1]
 272:Drivers/STM32F4xx_HAL_Driver/Inc/stm32f4xx_ll_exti.h **** 
 258              		.loc 2 272 1 is_stmt 0 view .LVU63
 259 007a CEE7     		b	.L10
 260              	.LVL15:
 261              	.L8:
 272:Drivers/STM32F4xx_HAL_Driver/Inc/stm32f4xx_ll_exti.h **** 
 262              		.loc 2 272 1 view .LVU64
 263              	.LBE41:
 264              	.LBE40:
 131:Drivers/STM32F4xx_HAL_Driver/Src/stm32f4xx_ll_exti.c ****           /* Then Enable Event on provided Lines */
 265              		.loc 1 131 11 is_stmt 1 view .LVU65
 266              	.LBB42:
ARM GAS  C:\Users\zoosman\AppData\Local\Temp\cc7JyQVY.s 			page 17


 267              	.LBI42:
 310:Drivers/STM32F4xx_HAL_Driver/Inc/stm32f4xx_ll_exti.h **** {
 268              		.loc 2 310 22 view .LVU66
 269              	.LBB43:
 312:Drivers/STM32F4xx_HAL_Driver/Inc/stm32f4xx_ll_exti.h **** }
 270              		.loc 2 312 3 view .LVU67
 271 007c 0E4A     		ldr	r2, .L26
 272 007e 1168     		ldr	r1, [r2]
 273 0080 21EA0001 		bic	r1, r1, r0
 274 0084 E5E7     		b	.L20
 275              	.LVL16:
 276              	.L12:
 312:Drivers/STM32F4xx_HAL_Driver/Inc/stm32f4xx_ll_exti.h **** }
 277              		.loc 2 312 3 is_stmt 0 view .LVU68
 278              	.LBE43:
 279              	.LBE42:
 156:Drivers/STM32F4xx_HAL_Driver/Src/stm32f4xx_ll_exti.c ****             /* Then Enable Falling Trigger on provided Lines */
 280              		.loc 1 156 13 is_stmt 1 view .LVU69
 281              	.LBB44:
 282              	.LBI44:
 442:Drivers/STM32F4xx_HAL_Driver/Inc/stm32f4xx_ll_exti.h **** }
 443:Drivers/STM32F4xx_HAL_Driver/Inc/stm32f4xx_ll_exti.h **** 
 444:Drivers/STM32F4xx_HAL_Driver/Inc/stm32f4xx_ll_exti.h **** 
 445:Drivers/STM32F4xx_HAL_Driver/Inc/stm32f4xx_ll_exti.h **** /**
 446:Drivers/STM32F4xx_HAL_Driver/Inc/stm32f4xx_ll_exti.h ****   * @brief  Indicate if ExtiLine Event request is enabled for Lines in range 0 to 31
 447:Drivers/STM32F4xx_HAL_Driver/Inc/stm32f4xx_ll_exti.h ****   * @rmtoll EMR         EMx           LL_EXTI_IsEnabledEvent_0_31
 448:Drivers/STM32F4xx_HAL_Driver/Inc/stm32f4xx_ll_exti.h ****   * @param  ExtiLine This parameter can be one of the following values:
 449:Drivers/STM32F4xx_HAL_Driver/Inc/stm32f4xx_ll_exti.h ****   *         @arg @ref LL_EXTI_LINE_0
 450:Drivers/STM32F4xx_HAL_Driver/Inc/stm32f4xx_ll_exti.h ****   *         @arg @ref LL_EXTI_LINE_1
 451:Drivers/STM32F4xx_HAL_Driver/Inc/stm32f4xx_ll_exti.h ****   *         @arg @ref LL_EXTI_LINE_2
 452:Drivers/STM32F4xx_HAL_Driver/Inc/stm32f4xx_ll_exti.h ****   *         @arg @ref LL_EXTI_LINE_3
 453:Drivers/STM32F4xx_HAL_Driver/Inc/stm32f4xx_ll_exti.h ****   *         @arg @ref LL_EXTI_LINE_4
 454:Drivers/STM32F4xx_HAL_Driver/Inc/stm32f4xx_ll_exti.h ****   *         @arg @ref LL_EXTI_LINE_5
 455:Drivers/STM32F4xx_HAL_Driver/Inc/stm32f4xx_ll_exti.h ****   *         @arg @ref LL_EXTI_LINE_6
 456:Drivers/STM32F4xx_HAL_Driver/Inc/stm32f4xx_ll_exti.h ****   *         @arg @ref LL_EXTI_LINE_7
 457:Drivers/STM32F4xx_HAL_Driver/Inc/stm32f4xx_ll_exti.h ****   *         @arg @ref LL_EXTI_LINE_8
 458:Drivers/STM32F4xx_HAL_Driver/Inc/stm32f4xx_ll_exti.h ****   *         @arg @ref LL_EXTI_LINE_9
 459:Drivers/STM32F4xx_HAL_Driver/Inc/stm32f4xx_ll_exti.h ****   *         @arg @ref LL_EXTI_LINE_10
 460:Drivers/STM32F4xx_HAL_Driver/Inc/stm32f4xx_ll_exti.h ****   *         @arg @ref LL_EXTI_LINE_11
 461:Drivers/STM32F4xx_HAL_Driver/Inc/stm32f4xx_ll_exti.h ****   *         @arg @ref LL_EXTI_LINE_12
 462:Drivers/STM32F4xx_HAL_Driver/Inc/stm32f4xx_ll_exti.h ****   *         @arg @ref LL_EXTI_LINE_13
 463:Drivers/STM32F4xx_HAL_Driver/Inc/stm32f4xx_ll_exti.h ****   *         @arg @ref LL_EXTI_LINE_14
 464:Drivers/STM32F4xx_HAL_Driver/Inc/stm32f4xx_ll_exti.h ****   *         @arg @ref LL_EXTI_LINE_15
 465:Drivers/STM32F4xx_HAL_Driver/Inc/stm32f4xx_ll_exti.h ****   *         @arg @ref LL_EXTI_LINE_16
 466:Drivers/STM32F4xx_HAL_Driver/Inc/stm32f4xx_ll_exti.h ****   *         @arg @ref LL_EXTI_LINE_17
 467:Drivers/STM32F4xx_HAL_Driver/Inc/stm32f4xx_ll_exti.h ****   *         @arg @ref LL_EXTI_LINE_18
 468:Drivers/STM32F4xx_HAL_Driver/Inc/stm32f4xx_ll_exti.h ****   *         @arg @ref LL_EXTI_LINE_19(*)
 469:Drivers/STM32F4xx_HAL_Driver/Inc/stm32f4xx_ll_exti.h ****   *         @arg @ref LL_EXTI_LINE_20(*)
 470:Drivers/STM32F4xx_HAL_Driver/Inc/stm32f4xx_ll_exti.h ****   *         @arg @ref LL_EXTI_LINE_21
 471:Drivers/STM32F4xx_HAL_Driver/Inc/stm32f4xx_ll_exti.h ****   *         @arg @ref LL_EXTI_LINE_22
 472:Drivers/STM32F4xx_HAL_Driver/Inc/stm32f4xx_ll_exti.h ****   *         @arg @ref LL_EXTI_LINE_23(*)
 473:Drivers/STM32F4xx_HAL_Driver/Inc/stm32f4xx_ll_exti.h ****   *         @arg @ref LL_EXTI_LINE_ALL_0_31
 474:Drivers/STM32F4xx_HAL_Driver/Inc/stm32f4xx_ll_exti.h ****   * @note   (*): Available in some devices
 475:Drivers/STM32F4xx_HAL_Driver/Inc/stm32f4xx_ll_exti.h ****   * @note   Please check each device line mapping for EXTI Line availability
 476:Drivers/STM32F4xx_HAL_Driver/Inc/stm32f4xx_ll_exti.h ****   * @retval State of bit (1 or 0).
 477:Drivers/STM32F4xx_HAL_Driver/Inc/stm32f4xx_ll_exti.h ****   */
 478:Drivers/STM32F4xx_HAL_Driver/Inc/stm32f4xx_ll_exti.h **** __STATIC_INLINE uint32_t LL_EXTI_IsEnabledEvent_0_31(uint32_t ExtiLine)
ARM GAS  C:\Users\zoosman\AppData\Local\Temp\cc7JyQVY.s 			page 18


 479:Drivers/STM32F4xx_HAL_Driver/Inc/stm32f4xx_ll_exti.h **** {
 480:Drivers/STM32F4xx_HAL_Driver/Inc/stm32f4xx_ll_exti.h ****   return (READ_BIT(EXTI->EMR, ExtiLine) == (ExtiLine));
 481:Drivers/STM32F4xx_HAL_Driver/Inc/stm32f4xx_ll_exti.h **** 
 482:Drivers/STM32F4xx_HAL_Driver/Inc/stm32f4xx_ll_exti.h **** }
 483:Drivers/STM32F4xx_HAL_Driver/Inc/stm32f4xx_ll_exti.h **** 
 484:Drivers/STM32F4xx_HAL_Driver/Inc/stm32f4xx_ll_exti.h **** 
 485:Drivers/STM32F4xx_HAL_Driver/Inc/stm32f4xx_ll_exti.h **** /**
 486:Drivers/STM32F4xx_HAL_Driver/Inc/stm32f4xx_ll_exti.h ****   * @}
 487:Drivers/STM32F4xx_HAL_Driver/Inc/stm32f4xx_ll_exti.h ****   */
 488:Drivers/STM32F4xx_HAL_Driver/Inc/stm32f4xx_ll_exti.h **** 
 489:Drivers/STM32F4xx_HAL_Driver/Inc/stm32f4xx_ll_exti.h **** /** @defgroup EXTI_LL_EF_Rising_Trigger_Management Rising_Trigger_Management
 490:Drivers/STM32F4xx_HAL_Driver/Inc/stm32f4xx_ll_exti.h ****   * @{
 491:Drivers/STM32F4xx_HAL_Driver/Inc/stm32f4xx_ll_exti.h ****   */
 492:Drivers/STM32F4xx_HAL_Driver/Inc/stm32f4xx_ll_exti.h **** 
 493:Drivers/STM32F4xx_HAL_Driver/Inc/stm32f4xx_ll_exti.h **** /**
 494:Drivers/STM32F4xx_HAL_Driver/Inc/stm32f4xx_ll_exti.h ****   * @brief  Enable ExtiLine Rising Edge Trigger for Lines in range 0 to 31
 495:Drivers/STM32F4xx_HAL_Driver/Inc/stm32f4xx_ll_exti.h ****   * @note The configurable wakeup lines are edge-triggered. No glitch must be
 496:Drivers/STM32F4xx_HAL_Driver/Inc/stm32f4xx_ll_exti.h ****   *       generated on these lines. If a rising edge on a configurable interrupt
 497:Drivers/STM32F4xx_HAL_Driver/Inc/stm32f4xx_ll_exti.h ****   *       line occurs during a write operation in the EXTI_RTSR register, the
 498:Drivers/STM32F4xx_HAL_Driver/Inc/stm32f4xx_ll_exti.h ****   *       pending bit is not set.
 499:Drivers/STM32F4xx_HAL_Driver/Inc/stm32f4xx_ll_exti.h ****   *       Rising and falling edge triggers can be set for
 500:Drivers/STM32F4xx_HAL_Driver/Inc/stm32f4xx_ll_exti.h ****   *       the same interrupt line. In this case, both generate a trigger
 501:Drivers/STM32F4xx_HAL_Driver/Inc/stm32f4xx_ll_exti.h ****   *       condition.
 502:Drivers/STM32F4xx_HAL_Driver/Inc/stm32f4xx_ll_exti.h ****   * @rmtoll RTSR        RTx           LL_EXTI_EnableRisingTrig_0_31
 503:Drivers/STM32F4xx_HAL_Driver/Inc/stm32f4xx_ll_exti.h ****   * @param  ExtiLine This parameter can be a combination of the following values:
 504:Drivers/STM32F4xx_HAL_Driver/Inc/stm32f4xx_ll_exti.h ****   *         @arg @ref LL_EXTI_LINE_0
 505:Drivers/STM32F4xx_HAL_Driver/Inc/stm32f4xx_ll_exti.h ****   *         @arg @ref LL_EXTI_LINE_1
 506:Drivers/STM32F4xx_HAL_Driver/Inc/stm32f4xx_ll_exti.h ****   *         @arg @ref LL_EXTI_LINE_2
 507:Drivers/STM32F4xx_HAL_Driver/Inc/stm32f4xx_ll_exti.h ****   *         @arg @ref LL_EXTI_LINE_3
 508:Drivers/STM32F4xx_HAL_Driver/Inc/stm32f4xx_ll_exti.h ****   *         @arg @ref LL_EXTI_LINE_4
 509:Drivers/STM32F4xx_HAL_Driver/Inc/stm32f4xx_ll_exti.h ****   *         @arg @ref LL_EXTI_LINE_5
 510:Drivers/STM32F4xx_HAL_Driver/Inc/stm32f4xx_ll_exti.h ****   *         @arg @ref LL_EXTI_LINE_6
 511:Drivers/STM32F4xx_HAL_Driver/Inc/stm32f4xx_ll_exti.h ****   *         @arg @ref LL_EXTI_LINE_7
 512:Drivers/STM32F4xx_HAL_Driver/Inc/stm32f4xx_ll_exti.h ****   *         @arg @ref LL_EXTI_LINE_8
 513:Drivers/STM32F4xx_HAL_Driver/Inc/stm32f4xx_ll_exti.h ****   *         @arg @ref LL_EXTI_LINE_9
 514:Drivers/STM32F4xx_HAL_Driver/Inc/stm32f4xx_ll_exti.h ****   *         @arg @ref LL_EXTI_LINE_10
 515:Drivers/STM32F4xx_HAL_Driver/Inc/stm32f4xx_ll_exti.h ****   *         @arg @ref LL_EXTI_LINE_11
 516:Drivers/STM32F4xx_HAL_Driver/Inc/stm32f4xx_ll_exti.h ****   *         @arg @ref LL_EXTI_LINE_12
 517:Drivers/STM32F4xx_HAL_Driver/Inc/stm32f4xx_ll_exti.h ****   *         @arg @ref LL_EXTI_LINE_13
 518:Drivers/STM32F4xx_HAL_Driver/Inc/stm32f4xx_ll_exti.h ****   *         @arg @ref LL_EXTI_LINE_14
 519:Drivers/STM32F4xx_HAL_Driver/Inc/stm32f4xx_ll_exti.h ****   *         @arg @ref LL_EXTI_LINE_15
 520:Drivers/STM32F4xx_HAL_Driver/Inc/stm32f4xx_ll_exti.h ****   *         @arg @ref LL_EXTI_LINE_16
 521:Drivers/STM32F4xx_HAL_Driver/Inc/stm32f4xx_ll_exti.h ****   *         @arg @ref LL_EXTI_LINE_18
 522:Drivers/STM32F4xx_HAL_Driver/Inc/stm32f4xx_ll_exti.h ****   *         @arg @ref LL_EXTI_LINE_19(*)
 523:Drivers/STM32F4xx_HAL_Driver/Inc/stm32f4xx_ll_exti.h ****   *         @arg @ref LL_EXTI_LINE_20(*)
 524:Drivers/STM32F4xx_HAL_Driver/Inc/stm32f4xx_ll_exti.h ****   *         @arg @ref LL_EXTI_LINE_21
 525:Drivers/STM32F4xx_HAL_Driver/Inc/stm32f4xx_ll_exti.h ****   *         @arg @ref LL_EXTI_LINE_22
 526:Drivers/STM32F4xx_HAL_Driver/Inc/stm32f4xx_ll_exti.h ****   * @note   (*): Available in some devices
 527:Drivers/STM32F4xx_HAL_Driver/Inc/stm32f4xx_ll_exti.h ****   * @note   Please check each device line mapping for EXTI Line availability
 528:Drivers/STM32F4xx_HAL_Driver/Inc/stm32f4xx_ll_exti.h ****   * @retval None
 529:Drivers/STM32F4xx_HAL_Driver/Inc/stm32f4xx_ll_exti.h ****   */
 530:Drivers/STM32F4xx_HAL_Driver/Inc/stm32f4xx_ll_exti.h **** __STATIC_INLINE void LL_EXTI_EnableRisingTrig_0_31(uint32_t ExtiLine)
 531:Drivers/STM32F4xx_HAL_Driver/Inc/stm32f4xx_ll_exti.h **** {
 532:Drivers/STM32F4xx_HAL_Driver/Inc/stm32f4xx_ll_exti.h ****   SET_BIT(EXTI->RTSR, ExtiLine);
 533:Drivers/STM32F4xx_HAL_Driver/Inc/stm32f4xx_ll_exti.h **** 
 534:Drivers/STM32F4xx_HAL_Driver/Inc/stm32f4xx_ll_exti.h **** }
 535:Drivers/STM32F4xx_HAL_Driver/Inc/stm32f4xx_ll_exti.h **** 
ARM GAS  C:\Users\zoosman\AppData\Local\Temp\cc7JyQVY.s 			page 19


 536:Drivers/STM32F4xx_HAL_Driver/Inc/stm32f4xx_ll_exti.h **** 
 537:Drivers/STM32F4xx_HAL_Driver/Inc/stm32f4xx_ll_exti.h **** /**
 538:Drivers/STM32F4xx_HAL_Driver/Inc/stm32f4xx_ll_exti.h ****   * @brief  Disable ExtiLine Rising Edge Trigger for Lines in range 0 to 31
 539:Drivers/STM32F4xx_HAL_Driver/Inc/stm32f4xx_ll_exti.h ****   * @note The configurable wakeup lines are edge-triggered. No glitch must be
 540:Drivers/STM32F4xx_HAL_Driver/Inc/stm32f4xx_ll_exti.h ****   *       generated on these lines. If a rising edge on a configurable interrupt
 541:Drivers/STM32F4xx_HAL_Driver/Inc/stm32f4xx_ll_exti.h ****   *       line occurs during a write operation in the EXTI_RTSR register, the
 542:Drivers/STM32F4xx_HAL_Driver/Inc/stm32f4xx_ll_exti.h ****   *       pending bit is not set.
 543:Drivers/STM32F4xx_HAL_Driver/Inc/stm32f4xx_ll_exti.h ****   *       Rising and falling edge triggers can be set for
 544:Drivers/STM32F4xx_HAL_Driver/Inc/stm32f4xx_ll_exti.h ****   *       the same interrupt line. In this case, both generate a trigger
 545:Drivers/STM32F4xx_HAL_Driver/Inc/stm32f4xx_ll_exti.h ****   *       condition.
 546:Drivers/STM32F4xx_HAL_Driver/Inc/stm32f4xx_ll_exti.h ****   * @rmtoll RTSR        RTx           LL_EXTI_DisableRisingTrig_0_31
 547:Drivers/STM32F4xx_HAL_Driver/Inc/stm32f4xx_ll_exti.h ****   * @param  ExtiLine This parameter can be a combination of the following values:
 548:Drivers/STM32F4xx_HAL_Driver/Inc/stm32f4xx_ll_exti.h ****   *         @arg @ref LL_EXTI_LINE_0
 549:Drivers/STM32F4xx_HAL_Driver/Inc/stm32f4xx_ll_exti.h ****   *         @arg @ref LL_EXTI_LINE_1
 550:Drivers/STM32F4xx_HAL_Driver/Inc/stm32f4xx_ll_exti.h ****   *         @arg @ref LL_EXTI_LINE_2
 551:Drivers/STM32F4xx_HAL_Driver/Inc/stm32f4xx_ll_exti.h ****   *         @arg @ref LL_EXTI_LINE_3
 552:Drivers/STM32F4xx_HAL_Driver/Inc/stm32f4xx_ll_exti.h ****   *         @arg @ref LL_EXTI_LINE_4
 553:Drivers/STM32F4xx_HAL_Driver/Inc/stm32f4xx_ll_exti.h ****   *         @arg @ref LL_EXTI_LINE_5
 554:Drivers/STM32F4xx_HAL_Driver/Inc/stm32f4xx_ll_exti.h ****   *         @arg @ref LL_EXTI_LINE_6
 555:Drivers/STM32F4xx_HAL_Driver/Inc/stm32f4xx_ll_exti.h ****   *         @arg @ref LL_EXTI_LINE_7
 556:Drivers/STM32F4xx_HAL_Driver/Inc/stm32f4xx_ll_exti.h ****   *         @arg @ref LL_EXTI_LINE_8
 557:Drivers/STM32F4xx_HAL_Driver/Inc/stm32f4xx_ll_exti.h ****   *         @arg @ref LL_EXTI_LINE_9
 558:Drivers/STM32F4xx_HAL_Driver/Inc/stm32f4xx_ll_exti.h ****   *         @arg @ref LL_EXTI_LINE_10
 559:Drivers/STM32F4xx_HAL_Driver/Inc/stm32f4xx_ll_exti.h ****   *         @arg @ref LL_EXTI_LINE_11
 560:Drivers/STM32F4xx_HAL_Driver/Inc/stm32f4xx_ll_exti.h ****   *         @arg @ref LL_EXTI_LINE_12
 561:Drivers/STM32F4xx_HAL_Driver/Inc/stm32f4xx_ll_exti.h ****   *         @arg @ref LL_EXTI_LINE_13
 562:Drivers/STM32F4xx_HAL_Driver/Inc/stm32f4xx_ll_exti.h ****   *         @arg @ref LL_EXTI_LINE_14
 563:Drivers/STM32F4xx_HAL_Driver/Inc/stm32f4xx_ll_exti.h ****   *         @arg @ref LL_EXTI_LINE_15
 564:Drivers/STM32F4xx_HAL_Driver/Inc/stm32f4xx_ll_exti.h ****   *         @arg @ref LL_EXTI_LINE_16
 565:Drivers/STM32F4xx_HAL_Driver/Inc/stm32f4xx_ll_exti.h ****   *         @arg @ref LL_EXTI_LINE_18
 566:Drivers/STM32F4xx_HAL_Driver/Inc/stm32f4xx_ll_exti.h ****   *         @arg @ref LL_EXTI_LINE_19(*)
 567:Drivers/STM32F4xx_HAL_Driver/Inc/stm32f4xx_ll_exti.h ****   *         @arg @ref LL_EXTI_LINE_20(*)
 568:Drivers/STM32F4xx_HAL_Driver/Inc/stm32f4xx_ll_exti.h ****   *         @arg @ref LL_EXTI_LINE_21
 569:Drivers/STM32F4xx_HAL_Driver/Inc/stm32f4xx_ll_exti.h ****   *         @arg @ref LL_EXTI_LINE_22
 570:Drivers/STM32F4xx_HAL_Driver/Inc/stm32f4xx_ll_exti.h ****   * @note   (*): Available in some devices
 571:Drivers/STM32F4xx_HAL_Driver/Inc/stm32f4xx_ll_exti.h ****   * @note   Please check each device line mapping for EXTI Line availability
 572:Drivers/STM32F4xx_HAL_Driver/Inc/stm32f4xx_ll_exti.h ****   * @retval None
 573:Drivers/STM32F4xx_HAL_Driver/Inc/stm32f4xx_ll_exti.h ****   */
 574:Drivers/STM32F4xx_HAL_Driver/Inc/stm32f4xx_ll_exti.h **** __STATIC_INLINE void LL_EXTI_DisableRisingTrig_0_31(uint32_t ExtiLine)
 283              		.loc 2 574 22 view .LVU70
 284              	.LBB45:
 575:Drivers/STM32F4xx_HAL_Driver/Inc/stm32f4xx_ll_exti.h **** {
 576:Drivers/STM32F4xx_HAL_Driver/Inc/stm32f4xx_ll_exti.h ****   CLEAR_BIT(EXTI->RTSR, ExtiLine);
 285              		.loc 2 576 3 view .LVU71
 286 0086 0C4B     		ldr	r3, .L26
 287 0088 9968     		ldr	r1, [r3, #8]
 288 008a 21EA0001 		bic	r1, r1, r0
 289              	.LVL17:
 290              	.L22:
 291              		.loc 2 576 3 is_stmt 0 view .LVU72
 292              	.LBE45:
 293              	.LBE44:
 294              	.LBB46:
 295              	.LBB47:
 532:Drivers/STM32F4xx_HAL_Driver/Inc/stm32f4xx_ll_exti.h **** 
 296              		.loc 2 532 3 view .LVU73
 297 008e 9960     		str	r1, [r3, #8]
ARM GAS  C:\Users\zoosman\AppData\Local\Temp\cc7JyQVY.s 			page 20


 298              	.LBE47:
 299              	.LBE46:
 162:Drivers/STM32F4xx_HAL_Driver/Src/stm32f4xx_ll_exti.c ****             break;
 300              		.loc 1 162 13 is_stmt 1 view .LVU74
 301              	.LVL18:
 302              	.LBB49:
 303              	.LBI49:
 577:Drivers/STM32F4xx_HAL_Driver/Inc/stm32f4xx_ll_exti.h **** 
 578:Drivers/STM32F4xx_HAL_Driver/Inc/stm32f4xx_ll_exti.h **** }
 579:Drivers/STM32F4xx_HAL_Driver/Inc/stm32f4xx_ll_exti.h **** 
 580:Drivers/STM32F4xx_HAL_Driver/Inc/stm32f4xx_ll_exti.h **** 
 581:Drivers/STM32F4xx_HAL_Driver/Inc/stm32f4xx_ll_exti.h **** /**
 582:Drivers/STM32F4xx_HAL_Driver/Inc/stm32f4xx_ll_exti.h ****   * @brief  Check if rising edge trigger is enabled for Lines in range 0 to 31
 583:Drivers/STM32F4xx_HAL_Driver/Inc/stm32f4xx_ll_exti.h ****   * @rmtoll RTSR        RTx           LL_EXTI_IsEnabledRisingTrig_0_31
 584:Drivers/STM32F4xx_HAL_Driver/Inc/stm32f4xx_ll_exti.h ****   * @param  ExtiLine This parameter can be a combination of the following values:
 585:Drivers/STM32F4xx_HAL_Driver/Inc/stm32f4xx_ll_exti.h ****   *         @arg @ref LL_EXTI_LINE_0
 586:Drivers/STM32F4xx_HAL_Driver/Inc/stm32f4xx_ll_exti.h ****   *         @arg @ref LL_EXTI_LINE_1
 587:Drivers/STM32F4xx_HAL_Driver/Inc/stm32f4xx_ll_exti.h ****   *         @arg @ref LL_EXTI_LINE_2
 588:Drivers/STM32F4xx_HAL_Driver/Inc/stm32f4xx_ll_exti.h ****   *         @arg @ref LL_EXTI_LINE_3
 589:Drivers/STM32F4xx_HAL_Driver/Inc/stm32f4xx_ll_exti.h ****   *         @arg @ref LL_EXTI_LINE_4
 590:Drivers/STM32F4xx_HAL_Driver/Inc/stm32f4xx_ll_exti.h ****   *         @arg @ref LL_EXTI_LINE_5
 591:Drivers/STM32F4xx_HAL_Driver/Inc/stm32f4xx_ll_exti.h ****   *         @arg @ref LL_EXTI_LINE_6
 592:Drivers/STM32F4xx_HAL_Driver/Inc/stm32f4xx_ll_exti.h ****   *         @arg @ref LL_EXTI_LINE_7
 593:Drivers/STM32F4xx_HAL_Driver/Inc/stm32f4xx_ll_exti.h ****   *         @arg @ref LL_EXTI_LINE_8
 594:Drivers/STM32F4xx_HAL_Driver/Inc/stm32f4xx_ll_exti.h ****   *         @arg @ref LL_EXTI_LINE_9
 595:Drivers/STM32F4xx_HAL_Driver/Inc/stm32f4xx_ll_exti.h ****   *         @arg @ref LL_EXTI_LINE_10
 596:Drivers/STM32F4xx_HAL_Driver/Inc/stm32f4xx_ll_exti.h ****   *         @arg @ref LL_EXTI_LINE_11
 597:Drivers/STM32F4xx_HAL_Driver/Inc/stm32f4xx_ll_exti.h ****   *         @arg @ref LL_EXTI_LINE_12
 598:Drivers/STM32F4xx_HAL_Driver/Inc/stm32f4xx_ll_exti.h ****   *         @arg @ref LL_EXTI_LINE_13
 599:Drivers/STM32F4xx_HAL_Driver/Inc/stm32f4xx_ll_exti.h ****   *         @arg @ref LL_EXTI_LINE_14
 600:Drivers/STM32F4xx_HAL_Driver/Inc/stm32f4xx_ll_exti.h ****   *         @arg @ref LL_EXTI_LINE_15
 601:Drivers/STM32F4xx_HAL_Driver/Inc/stm32f4xx_ll_exti.h ****   *         @arg @ref LL_EXTI_LINE_16
 602:Drivers/STM32F4xx_HAL_Driver/Inc/stm32f4xx_ll_exti.h ****   *         @arg @ref LL_EXTI_LINE_18
 603:Drivers/STM32F4xx_HAL_Driver/Inc/stm32f4xx_ll_exti.h ****   *         @arg @ref LL_EXTI_LINE_19(*)
 604:Drivers/STM32F4xx_HAL_Driver/Inc/stm32f4xx_ll_exti.h ****   *         @arg @ref LL_EXTI_LINE_20(*)
 605:Drivers/STM32F4xx_HAL_Driver/Inc/stm32f4xx_ll_exti.h ****   *         @arg @ref LL_EXTI_LINE_21
 606:Drivers/STM32F4xx_HAL_Driver/Inc/stm32f4xx_ll_exti.h ****   *         @arg @ref LL_EXTI_LINE_22
 607:Drivers/STM32F4xx_HAL_Driver/Inc/stm32f4xx_ll_exti.h ****   * @note   (*): Available in some devices
 608:Drivers/STM32F4xx_HAL_Driver/Inc/stm32f4xx_ll_exti.h ****   * @note   Please check each device line mapping for EXTI Line availability
 609:Drivers/STM32F4xx_HAL_Driver/Inc/stm32f4xx_ll_exti.h ****   * @retval State of bit (1 or 0).
 610:Drivers/STM32F4xx_HAL_Driver/Inc/stm32f4xx_ll_exti.h ****   */
 611:Drivers/STM32F4xx_HAL_Driver/Inc/stm32f4xx_ll_exti.h **** __STATIC_INLINE uint32_t LL_EXTI_IsEnabledRisingTrig_0_31(uint32_t ExtiLine)
 612:Drivers/STM32F4xx_HAL_Driver/Inc/stm32f4xx_ll_exti.h **** {
 613:Drivers/STM32F4xx_HAL_Driver/Inc/stm32f4xx_ll_exti.h ****   return (READ_BIT(EXTI->RTSR, ExtiLine) == (ExtiLine));
 614:Drivers/STM32F4xx_HAL_Driver/Inc/stm32f4xx_ll_exti.h **** }
 615:Drivers/STM32F4xx_HAL_Driver/Inc/stm32f4xx_ll_exti.h **** 
 616:Drivers/STM32F4xx_HAL_Driver/Inc/stm32f4xx_ll_exti.h **** 
 617:Drivers/STM32F4xx_HAL_Driver/Inc/stm32f4xx_ll_exti.h **** /**
 618:Drivers/STM32F4xx_HAL_Driver/Inc/stm32f4xx_ll_exti.h ****   * @}
 619:Drivers/STM32F4xx_HAL_Driver/Inc/stm32f4xx_ll_exti.h ****   */
 620:Drivers/STM32F4xx_HAL_Driver/Inc/stm32f4xx_ll_exti.h **** 
 621:Drivers/STM32F4xx_HAL_Driver/Inc/stm32f4xx_ll_exti.h **** /** @defgroup EXTI_LL_EF_Falling_Trigger_Management Falling_Trigger_Management
 622:Drivers/STM32F4xx_HAL_Driver/Inc/stm32f4xx_ll_exti.h ****   * @{
 623:Drivers/STM32F4xx_HAL_Driver/Inc/stm32f4xx_ll_exti.h ****   */
 624:Drivers/STM32F4xx_HAL_Driver/Inc/stm32f4xx_ll_exti.h **** 
 625:Drivers/STM32F4xx_HAL_Driver/Inc/stm32f4xx_ll_exti.h **** /**
 626:Drivers/STM32F4xx_HAL_Driver/Inc/stm32f4xx_ll_exti.h ****   * @brief  Enable ExtiLine Falling Edge Trigger for Lines in range 0 to 31
ARM GAS  C:\Users\zoosman\AppData\Local\Temp\cc7JyQVY.s 			page 21


 627:Drivers/STM32F4xx_HAL_Driver/Inc/stm32f4xx_ll_exti.h ****   * @note The configurable wakeup lines are edge-triggered. No glitch must be
 628:Drivers/STM32F4xx_HAL_Driver/Inc/stm32f4xx_ll_exti.h ****   *       generated on these lines. If a falling edge on a configurable interrupt
 629:Drivers/STM32F4xx_HAL_Driver/Inc/stm32f4xx_ll_exti.h ****   *       line occurs during a write operation in the EXTI_FTSR register, the
 630:Drivers/STM32F4xx_HAL_Driver/Inc/stm32f4xx_ll_exti.h ****   *       pending bit is not set.
 631:Drivers/STM32F4xx_HAL_Driver/Inc/stm32f4xx_ll_exti.h ****   *       Rising and falling edge triggers can be set for
 632:Drivers/STM32F4xx_HAL_Driver/Inc/stm32f4xx_ll_exti.h ****   *       the same interrupt line. In this case, both generate a trigger
 633:Drivers/STM32F4xx_HAL_Driver/Inc/stm32f4xx_ll_exti.h ****   *       condition.
 634:Drivers/STM32F4xx_HAL_Driver/Inc/stm32f4xx_ll_exti.h ****   * @rmtoll FTSR        FTx           LL_EXTI_EnableFallingTrig_0_31
 635:Drivers/STM32F4xx_HAL_Driver/Inc/stm32f4xx_ll_exti.h ****   * @param  ExtiLine This parameter can be a combination of the following values:
 636:Drivers/STM32F4xx_HAL_Driver/Inc/stm32f4xx_ll_exti.h ****   *         @arg @ref LL_EXTI_LINE_0
 637:Drivers/STM32F4xx_HAL_Driver/Inc/stm32f4xx_ll_exti.h ****   *         @arg @ref LL_EXTI_LINE_1
 638:Drivers/STM32F4xx_HAL_Driver/Inc/stm32f4xx_ll_exti.h ****   *         @arg @ref LL_EXTI_LINE_2
 639:Drivers/STM32F4xx_HAL_Driver/Inc/stm32f4xx_ll_exti.h ****   *         @arg @ref LL_EXTI_LINE_3
 640:Drivers/STM32F4xx_HAL_Driver/Inc/stm32f4xx_ll_exti.h ****   *         @arg @ref LL_EXTI_LINE_4
 641:Drivers/STM32F4xx_HAL_Driver/Inc/stm32f4xx_ll_exti.h ****   *         @arg @ref LL_EXTI_LINE_5
 642:Drivers/STM32F4xx_HAL_Driver/Inc/stm32f4xx_ll_exti.h ****   *         @arg @ref LL_EXTI_LINE_6
 643:Drivers/STM32F4xx_HAL_Driver/Inc/stm32f4xx_ll_exti.h ****   *         @arg @ref LL_EXTI_LINE_7
 644:Drivers/STM32F4xx_HAL_Driver/Inc/stm32f4xx_ll_exti.h ****   *         @arg @ref LL_EXTI_LINE_8
 645:Drivers/STM32F4xx_HAL_Driver/Inc/stm32f4xx_ll_exti.h ****   *         @arg @ref LL_EXTI_LINE_9
 646:Drivers/STM32F4xx_HAL_Driver/Inc/stm32f4xx_ll_exti.h ****   *         @arg @ref LL_EXTI_LINE_10
 647:Drivers/STM32F4xx_HAL_Driver/Inc/stm32f4xx_ll_exti.h ****   *         @arg @ref LL_EXTI_LINE_11
 648:Drivers/STM32F4xx_HAL_Driver/Inc/stm32f4xx_ll_exti.h ****   *         @arg @ref LL_EXTI_LINE_12
 649:Drivers/STM32F4xx_HAL_Driver/Inc/stm32f4xx_ll_exti.h ****   *         @arg @ref LL_EXTI_LINE_13
 650:Drivers/STM32F4xx_HAL_Driver/Inc/stm32f4xx_ll_exti.h ****   *         @arg @ref LL_EXTI_LINE_14
 651:Drivers/STM32F4xx_HAL_Driver/Inc/stm32f4xx_ll_exti.h ****   *         @arg @ref LL_EXTI_LINE_15
 652:Drivers/STM32F4xx_HAL_Driver/Inc/stm32f4xx_ll_exti.h ****   *         @arg @ref LL_EXTI_LINE_16
 653:Drivers/STM32F4xx_HAL_Driver/Inc/stm32f4xx_ll_exti.h ****   *         @arg @ref LL_EXTI_LINE_18
 654:Drivers/STM32F4xx_HAL_Driver/Inc/stm32f4xx_ll_exti.h ****   *         @arg @ref LL_EXTI_LINE_19(*)
 655:Drivers/STM32F4xx_HAL_Driver/Inc/stm32f4xx_ll_exti.h ****   *         @arg @ref LL_EXTI_LINE_20(*)
 656:Drivers/STM32F4xx_HAL_Driver/Inc/stm32f4xx_ll_exti.h ****   *         @arg @ref LL_EXTI_LINE_21
 657:Drivers/STM32F4xx_HAL_Driver/Inc/stm32f4xx_ll_exti.h ****   *         @arg @ref LL_EXTI_LINE_22
 658:Drivers/STM32F4xx_HAL_Driver/Inc/stm32f4xx_ll_exti.h ****   * @note   (*): Available in some devices
 659:Drivers/STM32F4xx_HAL_Driver/Inc/stm32f4xx_ll_exti.h ****   * @note   Please check each device line mapping for EXTI Line availability
 660:Drivers/STM32F4xx_HAL_Driver/Inc/stm32f4xx_ll_exti.h ****   * @retval None
 661:Drivers/STM32F4xx_HAL_Driver/Inc/stm32f4xx_ll_exti.h ****   */
 662:Drivers/STM32F4xx_HAL_Driver/Inc/stm32f4xx_ll_exti.h **** __STATIC_INLINE void LL_EXTI_EnableFallingTrig_0_31(uint32_t ExtiLine)
 304              		.loc 2 662 22 view .LVU75
 305              	.LBB50:
 663:Drivers/STM32F4xx_HAL_Driver/Inc/stm32f4xx_ll_exti.h **** {
 664:Drivers/STM32F4xx_HAL_Driver/Inc/stm32f4xx_ll_exti.h ****   SET_BIT(EXTI->FTSR, ExtiLine);
 306              		.loc 2 664 3 view .LVU76
 307 0090 D968     		ldr	r1, [r3, #12]
 308 0092 0843     		orrs	r0, r0, r1
 309              	.LVL19:
 310              		.loc 2 664 3 is_stmt 0 view .LVU77
 311 0094 D860     		str	r0, [r3, #12]
 312 0096 1046     		mov	r0, r2
 313 0098 E4E7     		b	.L25
 314              	.L24:
 315              		.loc 2 664 3 view .LVU78
 316              	.LBE50:
 317              	.LBE49:
 150:Drivers/STM32F4xx_HAL_Driver/Src/stm32f4xx_ll_exti.c ****             /* Then Enable Rising Trigger on provided Lines */
 318              		.loc 1 150 13 is_stmt 1 view .LVU79
 319              	.LVL20:
 320              	.LBB51:
 321              	.LBI51:
ARM GAS  C:\Users\zoosman\AppData\Local\Temp\cc7JyQVY.s 			page 22


 665:Drivers/STM32F4xx_HAL_Driver/Inc/stm32f4xx_ll_exti.h **** }
 666:Drivers/STM32F4xx_HAL_Driver/Inc/stm32f4xx_ll_exti.h **** 
 667:Drivers/STM32F4xx_HAL_Driver/Inc/stm32f4xx_ll_exti.h **** 
 668:Drivers/STM32F4xx_HAL_Driver/Inc/stm32f4xx_ll_exti.h **** /**
 669:Drivers/STM32F4xx_HAL_Driver/Inc/stm32f4xx_ll_exti.h ****   * @brief  Disable ExtiLine Falling Edge Trigger for Lines in range 0 to 31
 670:Drivers/STM32F4xx_HAL_Driver/Inc/stm32f4xx_ll_exti.h ****   * @note The configurable wakeup lines are edge-triggered. No glitch must be
 671:Drivers/STM32F4xx_HAL_Driver/Inc/stm32f4xx_ll_exti.h ****   *       generated on these lines. If a Falling edge on a configurable interrupt
 672:Drivers/STM32F4xx_HAL_Driver/Inc/stm32f4xx_ll_exti.h ****   *       line occurs during a write operation in the EXTI_FTSR register, the
 673:Drivers/STM32F4xx_HAL_Driver/Inc/stm32f4xx_ll_exti.h ****   *       pending bit is not set.
 674:Drivers/STM32F4xx_HAL_Driver/Inc/stm32f4xx_ll_exti.h ****   *       Rising and falling edge triggers can be set for the same interrupt line.
 675:Drivers/STM32F4xx_HAL_Driver/Inc/stm32f4xx_ll_exti.h ****   *       In this case, both generate a trigger condition.
 676:Drivers/STM32F4xx_HAL_Driver/Inc/stm32f4xx_ll_exti.h ****   * @rmtoll FTSR        FTx           LL_EXTI_DisableFallingTrig_0_31
 677:Drivers/STM32F4xx_HAL_Driver/Inc/stm32f4xx_ll_exti.h ****   * @param  ExtiLine This parameter can be a combination of the following values:
 678:Drivers/STM32F4xx_HAL_Driver/Inc/stm32f4xx_ll_exti.h ****   *         @arg @ref LL_EXTI_LINE_0
 679:Drivers/STM32F4xx_HAL_Driver/Inc/stm32f4xx_ll_exti.h ****   *         @arg @ref LL_EXTI_LINE_1
 680:Drivers/STM32F4xx_HAL_Driver/Inc/stm32f4xx_ll_exti.h ****   *         @arg @ref LL_EXTI_LINE_2
 681:Drivers/STM32F4xx_HAL_Driver/Inc/stm32f4xx_ll_exti.h ****   *         @arg @ref LL_EXTI_LINE_3
 682:Drivers/STM32F4xx_HAL_Driver/Inc/stm32f4xx_ll_exti.h ****   *         @arg @ref LL_EXTI_LINE_4
 683:Drivers/STM32F4xx_HAL_Driver/Inc/stm32f4xx_ll_exti.h ****   *         @arg @ref LL_EXTI_LINE_5
 684:Drivers/STM32F4xx_HAL_Driver/Inc/stm32f4xx_ll_exti.h ****   *         @arg @ref LL_EXTI_LINE_6
 685:Drivers/STM32F4xx_HAL_Driver/Inc/stm32f4xx_ll_exti.h ****   *         @arg @ref LL_EXTI_LINE_7
 686:Drivers/STM32F4xx_HAL_Driver/Inc/stm32f4xx_ll_exti.h ****   *         @arg @ref LL_EXTI_LINE_8
 687:Drivers/STM32F4xx_HAL_Driver/Inc/stm32f4xx_ll_exti.h ****   *         @arg @ref LL_EXTI_LINE_9
 688:Drivers/STM32F4xx_HAL_Driver/Inc/stm32f4xx_ll_exti.h ****   *         @arg @ref LL_EXTI_LINE_10
 689:Drivers/STM32F4xx_HAL_Driver/Inc/stm32f4xx_ll_exti.h ****   *         @arg @ref LL_EXTI_LINE_11
 690:Drivers/STM32F4xx_HAL_Driver/Inc/stm32f4xx_ll_exti.h ****   *         @arg @ref LL_EXTI_LINE_12
 691:Drivers/STM32F4xx_HAL_Driver/Inc/stm32f4xx_ll_exti.h ****   *         @arg @ref LL_EXTI_LINE_13
 692:Drivers/STM32F4xx_HAL_Driver/Inc/stm32f4xx_ll_exti.h ****   *         @arg @ref LL_EXTI_LINE_14
 693:Drivers/STM32F4xx_HAL_Driver/Inc/stm32f4xx_ll_exti.h ****   *         @arg @ref LL_EXTI_LINE_15
 694:Drivers/STM32F4xx_HAL_Driver/Inc/stm32f4xx_ll_exti.h ****   *         @arg @ref LL_EXTI_LINE_16
 695:Drivers/STM32F4xx_HAL_Driver/Inc/stm32f4xx_ll_exti.h ****   *         @arg @ref LL_EXTI_LINE_18
 696:Drivers/STM32F4xx_HAL_Driver/Inc/stm32f4xx_ll_exti.h ****   *         @arg @ref LL_EXTI_LINE_19(*)
 697:Drivers/STM32F4xx_HAL_Driver/Inc/stm32f4xx_ll_exti.h ****   *         @arg @ref LL_EXTI_LINE_20(*)
 698:Drivers/STM32F4xx_HAL_Driver/Inc/stm32f4xx_ll_exti.h ****   *         @arg @ref LL_EXTI_LINE_21
 699:Drivers/STM32F4xx_HAL_Driver/Inc/stm32f4xx_ll_exti.h ****   *         @arg @ref LL_EXTI_LINE_22
 700:Drivers/STM32F4xx_HAL_Driver/Inc/stm32f4xx_ll_exti.h ****   * @note   (*): Available in some devices
 701:Drivers/STM32F4xx_HAL_Driver/Inc/stm32f4xx_ll_exti.h ****   * @note   Please check each device line mapping for EXTI Line availability
 702:Drivers/STM32F4xx_HAL_Driver/Inc/stm32f4xx_ll_exti.h ****   * @retval None
 703:Drivers/STM32F4xx_HAL_Driver/Inc/stm32f4xx_ll_exti.h ****   */
 704:Drivers/STM32F4xx_HAL_Driver/Inc/stm32f4xx_ll_exti.h **** __STATIC_INLINE void LL_EXTI_DisableFallingTrig_0_31(uint32_t ExtiLine)
 322              		.loc 2 704 22 view .LVU80
 323              	.LBB52:
 705:Drivers/STM32F4xx_HAL_Driver/Inc/stm32f4xx_ll_exti.h **** {
 706:Drivers/STM32F4xx_HAL_Driver/Inc/stm32f4xx_ll_exti.h ****   CLEAR_BIT(EXTI->FTSR, ExtiLine);
 324              		.loc 2 706 3 view .LVU81
 325 009a 074B     		ldr	r3, .L26
 326 009c D968     		ldr	r1, [r3, #12]
 327 009e 21EA0001 		bic	r1, r1, r0
 328 00a2 D960     		str	r1, [r3, #12]
 329              	.LVL21:
 330              		.loc 2 706 3 is_stmt 0 view .LVU82
 331              	.LBE52:
 332              	.LBE51:
 152:Drivers/STM32F4xx_HAL_Driver/Src/stm32f4xx_ll_exti.c ****             break;
 333              		.loc 1 152 13 is_stmt 1 view .LVU83
 334              	.LBB53:
 335              	.LBI53:
ARM GAS  C:\Users\zoosman\AppData\Local\Temp\cc7JyQVY.s 			page 23


 530:Drivers/STM32F4xx_HAL_Driver/Inc/stm32f4xx_ll_exti.h **** {
 336              		.loc 2 530 22 view .LVU84
 337              	.LBB54:
 532:Drivers/STM32F4xx_HAL_Driver/Inc/stm32f4xx_ll_exti.h **** 
 338              		.loc 2 532 3 view .LVU85
 339 00a4 9968     		ldr	r1, [r3, #8]
 340 00a6 0843     		orrs	r0, r0, r1
 341              	.LVL22:
 532:Drivers/STM32F4xx_HAL_Driver/Inc/stm32f4xx_ll_exti.h **** 
 342              		.loc 2 532 3 is_stmt 0 view .LVU86
 343 00a8 9860     		str	r0, [r3, #8]
 344 00aa 1046     		mov	r0, r2
 534:Drivers/STM32F4xx_HAL_Driver/Inc/stm32f4xx_ll_exti.h **** 
 345              		.loc 2 534 1 view .LVU87
 346 00ac BEE7     		b	.L5
 347              	.L13:
 534:Drivers/STM32F4xx_HAL_Driver/Inc/stm32f4xx_ll_exti.h **** 
 348              		.loc 2 534 1 view .LVU88
 349              	.LBE54:
 350              	.LBE53:
 161:Drivers/STM32F4xx_HAL_Driver/Src/stm32f4xx_ll_exti.c ****             LL_EXTI_EnableFallingTrig_0_31(EXTI_InitStruct->Line_0_31);
 351              		.loc 1 161 13 is_stmt 1 view .LVU89
 352              	.LVL23:
 353              	.LBB55:
 354              	.LBI46:
 530:Drivers/STM32F4xx_HAL_Driver/Inc/stm32f4xx_ll_exti.h **** {
 355              		.loc 2 530 22 view .LVU90
 356              	.LBB48:
 532:Drivers/STM32F4xx_HAL_Driver/Inc/stm32f4xx_ll_exti.h **** 
 357              		.loc 2 532 3 view .LVU91
 358 00ae 024B     		ldr	r3, .L26
 359 00b0 9968     		ldr	r1, [r3, #8]
 360 00b2 0143     		orrs	r1, r1, r0
 361 00b4 EBE7     		b	.L22
 362              	.L27:
 363 00b6 00BF     		.align	2
 364              	.L26:
 365 00b8 003C0140 		.word	1073822720
 366              	.LBE48:
 367              	.LBE55:
 368              		.cfi_endproc
 369              	.LFE147:
 371              		.section	.text.LL_EXTI_StructInit,"ax",%progbits
 372              		.align	1
 373              		.p2align 2,,3
 374              		.global	LL_EXTI_StructInit
 375              		.syntax unified
 376              		.thumb
 377              		.thumb_func
 378              		.fpu fpv4-sp-d16
 380              	LL_EXTI_StructInit:
 381              	.LVL24:
 382              	.LFB148:
 180:Drivers/STM32F4xx_HAL_Driver/Src/stm32f4xx_ll_exti.c **** 
 181:Drivers/STM32F4xx_HAL_Driver/Src/stm32f4xx_ll_exti.c **** /**
 182:Drivers/STM32F4xx_HAL_Driver/Src/stm32f4xx_ll_exti.c ****   * @brief  Set each @ref LL_EXTI_InitTypeDef field to default value.
 183:Drivers/STM32F4xx_HAL_Driver/Src/stm32f4xx_ll_exti.c ****   * @param  EXTI_InitStruct Pointer to a @ref LL_EXTI_InitTypeDef structure.
ARM GAS  C:\Users\zoosman\AppData\Local\Temp\cc7JyQVY.s 			page 24


 184:Drivers/STM32F4xx_HAL_Driver/Src/stm32f4xx_ll_exti.c ****   * @retval None
 185:Drivers/STM32F4xx_HAL_Driver/Src/stm32f4xx_ll_exti.c ****   */
 186:Drivers/STM32F4xx_HAL_Driver/Src/stm32f4xx_ll_exti.c **** void LL_EXTI_StructInit(LL_EXTI_InitTypeDef *EXTI_InitStruct)
 187:Drivers/STM32F4xx_HAL_Driver/Src/stm32f4xx_ll_exti.c **** {
 383              		.loc 1 187 1 view -0
 384              		.cfi_startproc
 385              		@ args = 0, pretend = 0, frame = 0
 386              		@ frame_needed = 0, uses_anonymous_args = 0
 387              		@ link register save eliminated.
 188:Drivers/STM32F4xx_HAL_Driver/Src/stm32f4xx_ll_exti.c ****   EXTI_InitStruct->Line_0_31      = LL_EXTI_LINE_NONE;
 388              		.loc 1 188 3 view .LVU93
 189:Drivers/STM32F4xx_HAL_Driver/Src/stm32f4xx_ll_exti.c ****   EXTI_InitStruct->LineCommand    = DISABLE;
 389              		.loc 1 189 3 view .LVU94
 190:Drivers/STM32F4xx_HAL_Driver/Src/stm32f4xx_ll_exti.c ****   EXTI_InitStruct->Mode           = LL_EXTI_MODE_IT;
 390              		.loc 1 190 3 view .LVU95
 191:Drivers/STM32F4xx_HAL_Driver/Src/stm32f4xx_ll_exti.c ****   EXTI_InitStruct->Trigger        = LL_EXTI_TRIGGER_FALLING;
 391              		.loc 1 191 3 view .LVU96
 188:Drivers/STM32F4xx_HAL_Driver/Src/stm32f4xx_ll_exti.c ****   EXTI_InitStruct->LineCommand    = DISABLE;
 392              		.loc 1 188 35 is_stmt 0 view .LVU97
 393 0000 0023     		movs	r3, #0
 394              		.loc 1 191 35 view .LVU98
 395 0002 0222     		movs	r2, #2
 396 0004 8271     		strb	r2, [r0, #6]
 188:Drivers/STM32F4xx_HAL_Driver/Src/stm32f4xx_ll_exti.c ****   EXTI_InitStruct->LineCommand    = DISABLE;
 397              		.loc 1 188 35 view .LVU99
 398 0006 0360     		str	r3, [r0]
 189:Drivers/STM32F4xx_HAL_Driver/Src/stm32f4xx_ll_exti.c ****   EXTI_InitStruct->Mode           = LL_EXTI_MODE_IT;
 399              		.loc 1 189 35 view .LVU100
 400 0008 8380     		strh	r3, [r0, #4]	@ movhi
 192:Drivers/STM32F4xx_HAL_Driver/Src/stm32f4xx_ll_exti.c **** }
 401              		.loc 1 192 1 view .LVU101
 402 000a 7047     		bx	lr
 403              		.cfi_endproc
 404              	.LFE148:
 406              		.text
 407              	.Letext0:
 408              		.file 3 "c:\\vsarm\\arm-gcc\\arm-none-eabi\\include\\machine\\_default_types.h"
 409              		.file 4 "c:\\vsarm\\arm-gcc\\arm-none-eabi\\include\\sys\\_stdint.h"
 410              		.file 5 "Drivers/CMSIS/Include/core_cm4.h"
 411              		.file 6 "Drivers/CMSIS/Device/ST/STM32F4xx/Include/system_stm32f4xx.h"
 412              		.file 7 "Drivers/CMSIS/Device/ST/STM32F4xx/Include/stm32f429xx.h"
 413              		.file 8 "Drivers/CMSIS/Device/ST/STM32F4xx/Include/stm32f4xx.h"
 414              		.file 9 "Drivers/STM32F4xx_HAL_Driver/Inc/stm32f4xx_hal.h"
ARM GAS  C:\Users\zoosman\AppData\Local\Temp\cc7JyQVY.s 			page 25

