ARM GAS  C:\Users\zoosman\AppData\Local\Temp\ccgnoQ1j.s 			page 1


   1              		.cpu cortex-m4
   2              		.eabi_attribute 27, 1
   3              		.eabi_attribute 28, 1
   4              		.eabi_attribute 20, 1
   5              		.eabi_attribute 21, 1
   6              		.eabi_attribute 23, 3
   7              		.eabi_attribute 24, 1
   8              		.eabi_attribute 25, 1
   9              		.eabi_attribute 26, 1
  10              		.eabi_attribute 30, 2
  11              		.eabi_attribute 34, 1
  12              		.eabi_attribute 18, 4
  13              		.file	"stm32f4xx_it.c"
  14              		.text
  15              	.Ltext0:
  16              		.cfi_sections	.debug_frame
  17              		.section	.text.NMI_Handler,"ax",%progbits
  18              		.align	1
  19              		.p2align 2,,3
  20              		.global	NMI_Handler
  21              		.arch armv7e-m
  22              		.syntax unified
  23              		.thumb
  24              		.thumb_func
  25              		.fpu fpv4-sp-d16
  27              	NMI_Handler:
  28              	.LFB1338:
  29              		.file 1 "Core/Src/stm32f4xx_it.c"
   1:Core/Src/stm32f4xx_it.c **** /**
   2:Core/Src/stm32f4xx_it.c ****   ******************************************************************************
   3:Core/Src/stm32f4xx_it.c ****   * @file    stm32f4xx_it.c
   4:Core/Src/stm32f4xx_it.c ****   * @brief   Interrupt Service Routines.
   5:Core/Src/stm32f4xx_it.c ****   ******************************************************************************
   6:Core/Src/stm32f4xx_it.c ****   * @attention
   7:Core/Src/stm32f4xx_it.c ****   ******************************************************************************
   8:Core/Src/stm32f4xx_it.c ****   */
   9:Core/Src/stm32f4xx_it.c **** 
  10:Core/Src/stm32f4xx_it.c **** 
  11:Core/Src/stm32f4xx_it.c **** /* Includes ------------------------------------------------------------------*/
  12:Core/Src/stm32f4xx_it.c **** // #include "main.h"
  13:Core/Src/stm32f4xx_it.c **** #include "stm32f4xx_it.h"
  14:Core/Src/stm32f4xx_it.c **** 
  15:Core/Src/stm32f4xx_it.c **** 
  16:Core/Src/stm32f4xx_it.c **** 
  17:Core/Src/stm32f4xx_it.c **** /******************************************************************************/
  18:Core/Src/stm32f4xx_it.c **** /*           Cortex-M4 Processor Interruption and Exception Handlers          */ 
  19:Core/Src/stm32f4xx_it.c **** /******************************************************************************/
  20:Core/Src/stm32f4xx_it.c **** /**
  21:Core/Src/stm32f4xx_it.c ****   * @brief This function handles Non maskable interrupt.
  22:Core/Src/stm32f4xx_it.c ****   */
  23:Core/Src/stm32f4xx_it.c **** void NMI_Handler(void) {
  30              		.loc 1 23 24 view -0
  31              		.cfi_startproc
  32              		@ args = 0, pretend = 0, frame = 0
  33              		@ frame_needed = 0, uses_anonymous_args = 0
  34              		@ link register save eliminated.
  24:Core/Src/stm32f4xx_it.c ****   //
ARM GAS  C:\Users\zoosman\AppData\Local\Temp\ccgnoQ1j.s 			page 2


  25:Core/Src/stm32f4xx_it.c **** }
  35              		.loc 1 25 1 view .LVU1
  36 0000 7047     		bx	lr
  37              		.cfi_endproc
  38              	.LFE1338:
  40 0002 00BF     		.section	.text.HardFault_Handler,"ax",%progbits
  41              		.align	1
  42              		.p2align 2,,3
  43              		.global	HardFault_Handler
  44              		.syntax unified
  45              		.thumb
  46              		.thumb_func
  47              		.fpu fpv4-sp-d16
  49              	HardFault_Handler:
  50              	.LFB1339:
  26:Core/Src/stm32f4xx_it.c **** 
  27:Core/Src/stm32f4xx_it.c **** /**
  28:Core/Src/stm32f4xx_it.c ****   * @brief This function handles Hard fault interrupt.
  29:Core/Src/stm32f4xx_it.c ****   */
  30:Core/Src/stm32f4xx_it.c **** void HardFault_Handler(void) {
  51              		.loc 1 30 30 view -0
  52              		.cfi_startproc
  53              		@ Volatile: function does not return.
  54              		@ args = 0, pretend = 0, frame = 0
  55              		@ frame_needed = 0, uses_anonymous_args = 0
  56              		@ link register save eliminated.
  57              	.L4:
  31:Core/Src/stm32f4xx_it.c ****   while (1) {
  58              		.loc 1 31 3 discriminator 1 view .LVU3
  32:Core/Src/stm32f4xx_it.c ****     //
  33:Core/Src/stm32f4xx_it.c ****   }
  59              		.loc 1 33 3 discriminator 1 view .LVU4
  31:Core/Src/stm32f4xx_it.c ****   while (1) {
  60              		.loc 1 31 9 discriminator 1 view .LVU5
  61 0000 FEE7     		b	.L4
  62              		.cfi_endproc
  63              	.LFE1339:
  65 0002 00BF     		.section	.text.MemManage_Handler,"ax",%progbits
  66              		.align	1
  67              		.p2align 2,,3
  68              		.global	MemManage_Handler
  69              		.syntax unified
  70              		.thumb
  71              		.thumb_func
  72              		.fpu fpv4-sp-d16
  74              	MemManage_Handler:
  75              	.LFB1340:
  34:Core/Src/stm32f4xx_it.c **** }
  35:Core/Src/stm32f4xx_it.c **** 
  36:Core/Src/stm32f4xx_it.c **** /**
  37:Core/Src/stm32f4xx_it.c ****   * @brief This function handles Memory management fault.
  38:Core/Src/stm32f4xx_it.c ****   */
  39:Core/Src/stm32f4xx_it.c **** void MemManage_Handler(void) {
  76              		.loc 1 39 30 view -0
  77              		.cfi_startproc
  78              		@ Volatile: function does not return.
  79              		@ args = 0, pretend = 0, frame = 0
ARM GAS  C:\Users\zoosman\AppData\Local\Temp\ccgnoQ1j.s 			page 3


  80              		@ frame_needed = 0, uses_anonymous_args = 0
  81              		@ link register save eliminated.
  82              	.L6:
  40:Core/Src/stm32f4xx_it.c ****   while (1) {
  83              		.loc 1 40 3 discriminator 1 view .LVU7
  41:Core/Src/stm32f4xx_it.c ****     //
  42:Core/Src/stm32f4xx_it.c ****   }
  84              		.loc 1 42 3 discriminator 1 view .LVU8
  40:Core/Src/stm32f4xx_it.c ****   while (1) {
  85              		.loc 1 40 9 discriminator 1 view .LVU9
  86 0000 FEE7     		b	.L6
  87              		.cfi_endproc
  88              	.LFE1340:
  90 0002 00BF     		.section	.text.BusFault_Handler,"ax",%progbits
  91              		.align	1
  92              		.p2align 2,,3
  93              		.global	BusFault_Handler
  94              		.syntax unified
  95              		.thumb
  96              		.thumb_func
  97              		.fpu fpv4-sp-d16
  99              	BusFault_Handler:
 100              	.LFB1341:
  43:Core/Src/stm32f4xx_it.c **** }
  44:Core/Src/stm32f4xx_it.c **** 
  45:Core/Src/stm32f4xx_it.c **** /**
  46:Core/Src/stm32f4xx_it.c ****   * @brief This function handles Pre-fetch fault, memory access fault.
  47:Core/Src/stm32f4xx_it.c ****   */
  48:Core/Src/stm32f4xx_it.c **** void BusFault_Handler(void) {
 101              		.loc 1 48 29 view -0
 102              		.cfi_startproc
 103              		@ Volatile: function does not return.
 104              		@ args = 0, pretend = 0, frame = 0
 105              		@ frame_needed = 0, uses_anonymous_args = 0
 106              		@ link register save eliminated.
 107              	.L8:
  49:Core/Src/stm32f4xx_it.c ****   while (1) {
 108              		.loc 1 49 3 discriminator 1 view .LVU11
  50:Core/Src/stm32f4xx_it.c ****     //
  51:Core/Src/stm32f4xx_it.c ****   }
 109              		.loc 1 51 3 discriminator 1 view .LVU12
  49:Core/Src/stm32f4xx_it.c ****   while (1) {
 110              		.loc 1 49 9 discriminator 1 view .LVU13
 111 0000 FEE7     		b	.L8
 112              		.cfi_endproc
 113              	.LFE1341:
 115 0002 00BF     		.section	.text.UsageFault_Handler,"ax",%progbits
 116              		.align	1
 117              		.p2align 2,,3
 118              		.global	UsageFault_Handler
 119              		.syntax unified
 120              		.thumb
 121              		.thumb_func
 122              		.fpu fpv4-sp-d16
 124              	UsageFault_Handler:
 125              	.LFB1342:
  52:Core/Src/stm32f4xx_it.c **** }
ARM GAS  C:\Users\zoosman\AppData\Local\Temp\ccgnoQ1j.s 			page 4


  53:Core/Src/stm32f4xx_it.c **** 
  54:Core/Src/stm32f4xx_it.c **** /**
  55:Core/Src/stm32f4xx_it.c ****   * @brief This function handles Undefined instruction or illegal state.
  56:Core/Src/stm32f4xx_it.c ****   */
  57:Core/Src/stm32f4xx_it.c **** void UsageFault_Handler(void) {
 126              		.loc 1 57 31 view -0
 127              		.cfi_startproc
 128              		@ Volatile: function does not return.
 129              		@ args = 0, pretend = 0, frame = 0
 130              		@ frame_needed = 0, uses_anonymous_args = 0
 131              		@ link register save eliminated.
 132              	.L10:
  58:Core/Src/stm32f4xx_it.c ****   while (1) {
 133              		.loc 1 58 3 discriminator 1 view .LVU15
  59:Core/Src/stm32f4xx_it.c ****   }
 134              		.loc 1 59 3 discriminator 1 view .LVU16
  58:Core/Src/stm32f4xx_it.c ****   while (1) {
 135              		.loc 1 58 9 discriminator 1 view .LVU17
 136 0000 FEE7     		b	.L10
 137              		.cfi_endproc
 138              	.LFE1342:
 140 0002 00BF     		.section	.text.SVC_Handler,"ax",%progbits
 141              		.align	1
 142              		.p2align 2,,3
 143              		.global	SVC_Handler
 144              		.syntax unified
 145              		.thumb
 146              		.thumb_func
 147              		.fpu fpv4-sp-d16
 149              	SVC_Handler:
 150              	.LFB1353:
 151              		.cfi_startproc
 152              		@ args = 0, pretend = 0, frame = 0
 153              		@ frame_needed = 0, uses_anonymous_args = 0
 154              		@ link register save eliminated.
 155 0000 7047     		bx	lr
 156              		.cfi_endproc
 157              	.LFE1353:
 159 0002 00BF     		.section	.text.DebugMon_Handler,"ax",%progbits
 160              		.align	1
 161              		.p2align 2,,3
 162              		.global	DebugMon_Handler
 163              		.syntax unified
 164              		.thumb
 165              		.thumb_func
 166              		.fpu fpv4-sp-d16
 168              	DebugMon_Handler:
 169              	.LFB1355:
 170              		.cfi_startproc
 171              		@ args = 0, pretend = 0, frame = 0
 172              		@ frame_needed = 0, uses_anonymous_args = 0
 173              		@ link register save eliminated.
 174 0000 7047     		bx	lr
 175              		.cfi_endproc
 176              	.LFE1355:
 178 0002 00BF     		.section	.text.PendSV_Handler,"ax",%progbits
 179              		.align	1
ARM GAS  C:\Users\zoosman\AppData\Local\Temp\ccgnoQ1j.s 			page 5


 180              		.p2align 2,,3
 181              		.global	PendSV_Handler
 182              		.syntax unified
 183              		.thumb
 184              		.thumb_func
 185              		.fpu fpv4-sp-d16
 187              	PendSV_Handler:
 188              	.LFB1357:
 189              		.cfi_startproc
 190              		@ args = 0, pretend = 0, frame = 0
 191              		@ frame_needed = 0, uses_anonymous_args = 0
 192              		@ link register save eliminated.
 193 0000 7047     		bx	lr
 194              		.cfi_endproc
 195              	.LFE1357:
 197 0002 00BF     		.section	.text.SysTick_Handler,"ax",%progbits
 198              		.align	1
 199              		.p2align 2,,3
 200              		.global	SysTick_Handler
 201              		.syntax unified
 202              		.thumb
 203              		.thumb_func
 204              		.fpu fpv4-sp-d16
 206              	SysTick_Handler:
 207              	.LFB1359:
 208              		.cfi_startproc
 209              		@ args = 0, pretend = 0, frame = 0
 210              		@ frame_needed = 0, uses_anonymous_args = 0
 211              		@ link register save eliminated.
 212 0000 7047     		bx	lr
 213              		.cfi_endproc
 214              	.LFE1359:
 216 0002 00BF     		.section	.text.RCC_IRQHandler,"ax",%progbits
 217              		.align	1
 218              		.p2align 2,,3
 219              		.global	RCC_IRQHandler
 220              		.syntax unified
 221              		.thumb
 222              		.thumb_func
 223              		.fpu fpv4-sp-d16
 225              	RCC_IRQHandler:
 226              	.LFB1361:
 227              		.cfi_startproc
 228              		@ args = 0, pretend = 0, frame = 0
 229              		@ frame_needed = 0, uses_anonymous_args = 0
 230              		@ link register save eliminated.
 231 0000 7047     		bx	lr
 232              		.cfi_endproc
 233              	.LFE1361:
 235 0002 00BF     		.section	.text.EXTI0_IRQHandler,"ax",%progbits
 236              		.align	1
 237              		.p2align 2,,3
 238              		.global	EXTI0_IRQHandler
 239              		.syntax unified
 240              		.thumb
 241              		.thumb_func
 242              		.fpu fpv4-sp-d16
ARM GAS  C:\Users\zoosman\AppData\Local\Temp\ccgnoQ1j.s 			page 6


 244              	EXTI0_IRQHandler:
 245              	.LFB1348:
  60:Core/Src/stm32f4xx_it.c **** }
  61:Core/Src/stm32f4xx_it.c **** 
  62:Core/Src/stm32f4xx_it.c **** /**
  63:Core/Src/stm32f4xx_it.c ****   * @brief This function handles System service call via SWI instruction.
  64:Core/Src/stm32f4xx_it.c ****   */
  65:Core/Src/stm32f4xx_it.c **** void SVC_Handler(void) {
  66:Core/Src/stm32f4xx_it.c ****   //
  67:Core/Src/stm32f4xx_it.c **** }
  68:Core/Src/stm32f4xx_it.c **** 
  69:Core/Src/stm32f4xx_it.c **** /**
  70:Core/Src/stm32f4xx_it.c ****   * @brief This function handles Debug monitor.
  71:Core/Src/stm32f4xx_it.c ****   */
  72:Core/Src/stm32f4xx_it.c **** void DebugMon_Handler(void) {
  73:Core/Src/stm32f4xx_it.c ****   //
  74:Core/Src/stm32f4xx_it.c **** }
  75:Core/Src/stm32f4xx_it.c **** 
  76:Core/Src/stm32f4xx_it.c **** /**
  77:Core/Src/stm32f4xx_it.c ****   * @brief This function handles Pendable request for system service.
  78:Core/Src/stm32f4xx_it.c ****   */
  79:Core/Src/stm32f4xx_it.c **** void PendSV_Handler(void) {
  80:Core/Src/stm32f4xx_it.c ****   //
  81:Core/Src/stm32f4xx_it.c **** }
  82:Core/Src/stm32f4xx_it.c **** 
  83:Core/Src/stm32f4xx_it.c **** /**
  84:Core/Src/stm32f4xx_it.c ****   * @brief This function handles System tick timer.
  85:Core/Src/stm32f4xx_it.c ****   */
  86:Core/Src/stm32f4xx_it.c **** void SysTick_Handler(void) {
  87:Core/Src/stm32f4xx_it.c ****   // HAL_IncTick();
  88:Core/Src/stm32f4xx_it.c **** }
  89:Core/Src/stm32f4xx_it.c **** 
  90:Core/Src/stm32f4xx_it.c **** /******************************************************************************/
  91:Core/Src/stm32f4xx_it.c **** /* STM32F4xx Peripheral Interrupt Handlers                                    */
  92:Core/Src/stm32f4xx_it.c **** /* Add here the Interrupt Handlers for the used peripherals.                  */
  93:Core/Src/stm32f4xx_it.c **** /* For the available peripheral interrupt handler names,                      */
  94:Core/Src/stm32f4xx_it.c **** /* please refer to the startup file (startup_stm32f4xx.s).                    */
  95:Core/Src/stm32f4xx_it.c **** /******************************************************************************/
  96:Core/Src/stm32f4xx_it.c **** 
  97:Core/Src/stm32f4xx_it.c **** /**
  98:Core/Src/stm32f4xx_it.c ****   * @brief This function handles RCC global interrupt.
  99:Core/Src/stm32f4xx_it.c ****   */
 100:Core/Src/stm32f4xx_it.c **** void RCC_IRQHandler(void) {
 101:Core/Src/stm32f4xx_it.c ****   //
 102:Core/Src/stm32f4xx_it.c **** }
 103:Core/Src/stm32f4xx_it.c **** 
 104:Core/Src/stm32f4xx_it.c **** 
 105:Core/Src/stm32f4xx_it.c **** 
 106:Core/Src/stm32f4xx_it.c **** /**
 107:Core/Src/stm32f4xx_it.c ****   * @brief This function handles EXTI0 global interrupt.
 108:Core/Src/stm32f4xx_it.c ****   */
 109:Core/Src/stm32f4xx_it.c **** void EXTI0_IRQHandler(void) {
 246              		.loc 1 109 29 view -0
 247              		.cfi_startproc
 248              		@ args = 0, pretend = 0, frame = 0
 249              		@ frame_needed = 0, uses_anonymous_args = 0
 250              		@ link register save eliminated.
ARM GAS  C:\Users\zoosman\AppData\Local\Temp\ccgnoQ1j.s 			page 7


 110:Core/Src/stm32f4xx_it.c ****   LL_EXTI_ClearFlag_0_31(LL_EXTI_LINE_0);
 251              		.loc 1 110 3 view .LVU19
 252              	.LVL0:
 253              	.LBB18:
 254              	.LBI18:
 255              		.file 2 "Drivers/STM32F4xx_HAL_Driver/Inc/stm32f4xx_ll_exti.h"
   1:Drivers/STM32F4xx_HAL_Driver/Inc/stm32f4xx_ll_exti.h **** /**
   2:Drivers/STM32F4xx_HAL_Driver/Inc/stm32f4xx_ll_exti.h ****   ******************************************************************************
   3:Drivers/STM32F4xx_HAL_Driver/Inc/stm32f4xx_ll_exti.h ****   * @file    stm32f4xx_ll_exti.h
   4:Drivers/STM32F4xx_HAL_Driver/Inc/stm32f4xx_ll_exti.h ****   * @author  MCD Application Team
   5:Drivers/STM32F4xx_HAL_Driver/Inc/stm32f4xx_ll_exti.h ****   * @brief   Header file of EXTI LL module.
   6:Drivers/STM32F4xx_HAL_Driver/Inc/stm32f4xx_ll_exti.h ****   ******************************************************************************
   7:Drivers/STM32F4xx_HAL_Driver/Inc/stm32f4xx_ll_exti.h ****   * @attention
   8:Drivers/STM32F4xx_HAL_Driver/Inc/stm32f4xx_ll_exti.h ****   *
   9:Drivers/STM32F4xx_HAL_Driver/Inc/stm32f4xx_ll_exti.h ****   * <h2><center>&copy; Copyright (c) 2016 STMicroelectronics.
  10:Drivers/STM32F4xx_HAL_Driver/Inc/stm32f4xx_ll_exti.h ****   * All rights reserved.</center></h2>
  11:Drivers/STM32F4xx_HAL_Driver/Inc/stm32f4xx_ll_exti.h ****   *
  12:Drivers/STM32F4xx_HAL_Driver/Inc/stm32f4xx_ll_exti.h ****   * This software component is licensed by ST under BSD 3-Clause license,
  13:Drivers/STM32F4xx_HAL_Driver/Inc/stm32f4xx_ll_exti.h ****   * the "License"; You may not use this file except in compliance with the
  14:Drivers/STM32F4xx_HAL_Driver/Inc/stm32f4xx_ll_exti.h ****   * License. You may obtain a copy of the License at:
  15:Drivers/STM32F4xx_HAL_Driver/Inc/stm32f4xx_ll_exti.h ****   *                        opensource.org/licenses/BSD-3-Clause
  16:Drivers/STM32F4xx_HAL_Driver/Inc/stm32f4xx_ll_exti.h ****   *
  17:Drivers/STM32F4xx_HAL_Driver/Inc/stm32f4xx_ll_exti.h ****   ******************************************************************************
  18:Drivers/STM32F4xx_HAL_Driver/Inc/stm32f4xx_ll_exti.h ****   */
  19:Drivers/STM32F4xx_HAL_Driver/Inc/stm32f4xx_ll_exti.h **** 
  20:Drivers/STM32F4xx_HAL_Driver/Inc/stm32f4xx_ll_exti.h **** /* Define to prevent recursive inclusion -------------------------------------*/
  21:Drivers/STM32F4xx_HAL_Driver/Inc/stm32f4xx_ll_exti.h **** #ifndef __STM32F4xx_LL_EXTI_H
  22:Drivers/STM32F4xx_HAL_Driver/Inc/stm32f4xx_ll_exti.h **** #define __STM32F4xx_LL_EXTI_H
  23:Drivers/STM32F4xx_HAL_Driver/Inc/stm32f4xx_ll_exti.h **** 
  24:Drivers/STM32F4xx_HAL_Driver/Inc/stm32f4xx_ll_exti.h **** #ifdef __cplusplus
  25:Drivers/STM32F4xx_HAL_Driver/Inc/stm32f4xx_ll_exti.h **** extern "C" {
  26:Drivers/STM32F4xx_HAL_Driver/Inc/stm32f4xx_ll_exti.h **** #endif
  27:Drivers/STM32F4xx_HAL_Driver/Inc/stm32f4xx_ll_exti.h **** 
  28:Drivers/STM32F4xx_HAL_Driver/Inc/stm32f4xx_ll_exti.h **** /* Includes ------------------------------------------------------------------*/
  29:Drivers/STM32F4xx_HAL_Driver/Inc/stm32f4xx_ll_exti.h **** #include "stm32f4xx.h"
  30:Drivers/STM32F4xx_HAL_Driver/Inc/stm32f4xx_ll_exti.h **** 
  31:Drivers/STM32F4xx_HAL_Driver/Inc/stm32f4xx_ll_exti.h **** /** @addtogroup STM32F4xx_LL_Driver
  32:Drivers/STM32F4xx_HAL_Driver/Inc/stm32f4xx_ll_exti.h ****   * @{
  33:Drivers/STM32F4xx_HAL_Driver/Inc/stm32f4xx_ll_exti.h ****   */
  34:Drivers/STM32F4xx_HAL_Driver/Inc/stm32f4xx_ll_exti.h **** 
  35:Drivers/STM32F4xx_HAL_Driver/Inc/stm32f4xx_ll_exti.h **** #if defined (EXTI)
  36:Drivers/STM32F4xx_HAL_Driver/Inc/stm32f4xx_ll_exti.h **** 
  37:Drivers/STM32F4xx_HAL_Driver/Inc/stm32f4xx_ll_exti.h **** /** @defgroup EXTI_LL EXTI
  38:Drivers/STM32F4xx_HAL_Driver/Inc/stm32f4xx_ll_exti.h ****   * @{
  39:Drivers/STM32F4xx_HAL_Driver/Inc/stm32f4xx_ll_exti.h ****   */
  40:Drivers/STM32F4xx_HAL_Driver/Inc/stm32f4xx_ll_exti.h **** 
  41:Drivers/STM32F4xx_HAL_Driver/Inc/stm32f4xx_ll_exti.h **** /* Private types -------------------------------------------------------------*/
  42:Drivers/STM32F4xx_HAL_Driver/Inc/stm32f4xx_ll_exti.h **** /* Private variables ---------------------------------------------------------*/
  43:Drivers/STM32F4xx_HAL_Driver/Inc/stm32f4xx_ll_exti.h **** /* Private constants ---------------------------------------------------------*/
  44:Drivers/STM32F4xx_HAL_Driver/Inc/stm32f4xx_ll_exti.h **** /* Private Macros ------------------------------------------------------------*/
  45:Drivers/STM32F4xx_HAL_Driver/Inc/stm32f4xx_ll_exti.h **** #if defined(USE_FULL_LL_DRIVER)
  46:Drivers/STM32F4xx_HAL_Driver/Inc/stm32f4xx_ll_exti.h **** /** @defgroup EXTI_LL_Private_Macros EXTI Private Macros
  47:Drivers/STM32F4xx_HAL_Driver/Inc/stm32f4xx_ll_exti.h ****   * @{
  48:Drivers/STM32F4xx_HAL_Driver/Inc/stm32f4xx_ll_exti.h ****   */
  49:Drivers/STM32F4xx_HAL_Driver/Inc/stm32f4xx_ll_exti.h **** /**
  50:Drivers/STM32F4xx_HAL_Driver/Inc/stm32f4xx_ll_exti.h ****   * @}
  51:Drivers/STM32F4xx_HAL_Driver/Inc/stm32f4xx_ll_exti.h ****   */
ARM GAS  C:\Users\zoosman\AppData\Local\Temp\ccgnoQ1j.s 			page 8


  52:Drivers/STM32F4xx_HAL_Driver/Inc/stm32f4xx_ll_exti.h **** #endif /*USE_FULL_LL_DRIVER*/
  53:Drivers/STM32F4xx_HAL_Driver/Inc/stm32f4xx_ll_exti.h **** /* Exported types ------------------------------------------------------------*/
  54:Drivers/STM32F4xx_HAL_Driver/Inc/stm32f4xx_ll_exti.h **** #if defined(USE_FULL_LL_DRIVER)
  55:Drivers/STM32F4xx_HAL_Driver/Inc/stm32f4xx_ll_exti.h **** /** @defgroup EXTI_LL_ES_INIT EXTI Exported Init structure
  56:Drivers/STM32F4xx_HAL_Driver/Inc/stm32f4xx_ll_exti.h ****   * @{
  57:Drivers/STM32F4xx_HAL_Driver/Inc/stm32f4xx_ll_exti.h ****   */
  58:Drivers/STM32F4xx_HAL_Driver/Inc/stm32f4xx_ll_exti.h **** typedef struct
  59:Drivers/STM32F4xx_HAL_Driver/Inc/stm32f4xx_ll_exti.h **** {
  60:Drivers/STM32F4xx_HAL_Driver/Inc/stm32f4xx_ll_exti.h **** 
  61:Drivers/STM32F4xx_HAL_Driver/Inc/stm32f4xx_ll_exti.h ****   uint32_t Line_0_31;           /*!< Specifies the EXTI lines to be enabled or disabled for Lines i
  62:Drivers/STM32F4xx_HAL_Driver/Inc/stm32f4xx_ll_exti.h ****                                      This parameter can be any combination of @ref EXTI_LL_EC_LINE 
  63:Drivers/STM32F4xx_HAL_Driver/Inc/stm32f4xx_ll_exti.h **** 
  64:Drivers/STM32F4xx_HAL_Driver/Inc/stm32f4xx_ll_exti.h ****   FunctionalState LineCommand;  /*!< Specifies the new state of the selected EXTI lines.
  65:Drivers/STM32F4xx_HAL_Driver/Inc/stm32f4xx_ll_exti.h ****                                      This parameter can be set either to ENABLE or DISABLE */
  66:Drivers/STM32F4xx_HAL_Driver/Inc/stm32f4xx_ll_exti.h **** 
  67:Drivers/STM32F4xx_HAL_Driver/Inc/stm32f4xx_ll_exti.h ****   uint8_t Mode;                 /*!< Specifies the mode for the EXTI lines.
  68:Drivers/STM32F4xx_HAL_Driver/Inc/stm32f4xx_ll_exti.h ****                                      This parameter can be a value of @ref EXTI_LL_EC_MODE. */
  69:Drivers/STM32F4xx_HAL_Driver/Inc/stm32f4xx_ll_exti.h **** 
  70:Drivers/STM32F4xx_HAL_Driver/Inc/stm32f4xx_ll_exti.h ****   uint8_t Trigger;              /*!< Specifies the trigger signal active edge for the EXTI lines.
  71:Drivers/STM32F4xx_HAL_Driver/Inc/stm32f4xx_ll_exti.h ****                                      This parameter can be a value of @ref EXTI_LL_EC_TRIGGER. */
  72:Drivers/STM32F4xx_HAL_Driver/Inc/stm32f4xx_ll_exti.h **** } LL_EXTI_InitTypeDef;
  73:Drivers/STM32F4xx_HAL_Driver/Inc/stm32f4xx_ll_exti.h **** 
  74:Drivers/STM32F4xx_HAL_Driver/Inc/stm32f4xx_ll_exti.h **** /**
  75:Drivers/STM32F4xx_HAL_Driver/Inc/stm32f4xx_ll_exti.h ****   * @}
  76:Drivers/STM32F4xx_HAL_Driver/Inc/stm32f4xx_ll_exti.h ****   */
  77:Drivers/STM32F4xx_HAL_Driver/Inc/stm32f4xx_ll_exti.h **** #endif /*USE_FULL_LL_DRIVER*/
  78:Drivers/STM32F4xx_HAL_Driver/Inc/stm32f4xx_ll_exti.h **** 
  79:Drivers/STM32F4xx_HAL_Driver/Inc/stm32f4xx_ll_exti.h **** /* Exported constants --------------------------------------------------------*/
  80:Drivers/STM32F4xx_HAL_Driver/Inc/stm32f4xx_ll_exti.h **** /** @defgroup EXTI_LL_Exported_Constants EXTI Exported Constants
  81:Drivers/STM32F4xx_HAL_Driver/Inc/stm32f4xx_ll_exti.h ****   * @{
  82:Drivers/STM32F4xx_HAL_Driver/Inc/stm32f4xx_ll_exti.h ****   */
  83:Drivers/STM32F4xx_HAL_Driver/Inc/stm32f4xx_ll_exti.h **** 
  84:Drivers/STM32F4xx_HAL_Driver/Inc/stm32f4xx_ll_exti.h **** /** @defgroup EXTI_LL_EC_LINE LINE
  85:Drivers/STM32F4xx_HAL_Driver/Inc/stm32f4xx_ll_exti.h ****   * @{
  86:Drivers/STM32F4xx_HAL_Driver/Inc/stm32f4xx_ll_exti.h ****   */
  87:Drivers/STM32F4xx_HAL_Driver/Inc/stm32f4xx_ll_exti.h **** #define LL_EXTI_LINE_0                 EXTI_IMR_IM0           /*!< Extended line 0 */
  88:Drivers/STM32F4xx_HAL_Driver/Inc/stm32f4xx_ll_exti.h **** #define LL_EXTI_LINE_1                 EXTI_IMR_IM1           /*!< Extended line 1 */
  89:Drivers/STM32F4xx_HAL_Driver/Inc/stm32f4xx_ll_exti.h **** #define LL_EXTI_LINE_2                 EXTI_IMR_IM2           /*!< Extended line 2 */
  90:Drivers/STM32F4xx_HAL_Driver/Inc/stm32f4xx_ll_exti.h **** #define LL_EXTI_LINE_3                 EXTI_IMR_IM3           /*!< Extended line 3 */
  91:Drivers/STM32F4xx_HAL_Driver/Inc/stm32f4xx_ll_exti.h **** #define LL_EXTI_LINE_4                 EXTI_IMR_IM4           /*!< Extended line 4 */
  92:Drivers/STM32F4xx_HAL_Driver/Inc/stm32f4xx_ll_exti.h **** #define LL_EXTI_LINE_5                 EXTI_IMR_IM5           /*!< Extended line 5 */
  93:Drivers/STM32F4xx_HAL_Driver/Inc/stm32f4xx_ll_exti.h **** #define LL_EXTI_LINE_6                 EXTI_IMR_IM6           /*!< Extended line 6 */
  94:Drivers/STM32F4xx_HAL_Driver/Inc/stm32f4xx_ll_exti.h **** #define LL_EXTI_LINE_7                 EXTI_IMR_IM7           /*!< Extended line 7 */
  95:Drivers/STM32F4xx_HAL_Driver/Inc/stm32f4xx_ll_exti.h **** #define LL_EXTI_LINE_8                 EXTI_IMR_IM8           /*!< Extended line 8 */
  96:Drivers/STM32F4xx_HAL_Driver/Inc/stm32f4xx_ll_exti.h **** #define LL_EXTI_LINE_9                 EXTI_IMR_IM9           /*!< Extended line 9 */
  97:Drivers/STM32F4xx_HAL_Driver/Inc/stm32f4xx_ll_exti.h **** #define LL_EXTI_LINE_10                EXTI_IMR_IM10          /*!< Extended line 10 */
  98:Drivers/STM32F4xx_HAL_Driver/Inc/stm32f4xx_ll_exti.h **** #define LL_EXTI_LINE_11                EXTI_IMR_IM11          /*!< Extended line 11 */
  99:Drivers/STM32F4xx_HAL_Driver/Inc/stm32f4xx_ll_exti.h **** #define LL_EXTI_LINE_12                EXTI_IMR_IM12          /*!< Extended line 12 */
 100:Drivers/STM32F4xx_HAL_Driver/Inc/stm32f4xx_ll_exti.h **** #define LL_EXTI_LINE_13                EXTI_IMR_IM13          /*!< Extended line 13 */
 101:Drivers/STM32F4xx_HAL_Driver/Inc/stm32f4xx_ll_exti.h **** #define LL_EXTI_LINE_14                EXTI_IMR_IM14          /*!< Extended line 14 */
 102:Drivers/STM32F4xx_HAL_Driver/Inc/stm32f4xx_ll_exti.h **** #define LL_EXTI_LINE_15                EXTI_IMR_IM15          /*!< Extended line 15 */
 103:Drivers/STM32F4xx_HAL_Driver/Inc/stm32f4xx_ll_exti.h **** #if defined(EXTI_IMR_IM16)
 104:Drivers/STM32F4xx_HAL_Driver/Inc/stm32f4xx_ll_exti.h **** #define LL_EXTI_LINE_16                EXTI_IMR_IM16          /*!< Extended line 16 */
 105:Drivers/STM32F4xx_HAL_Driver/Inc/stm32f4xx_ll_exti.h **** #endif
 106:Drivers/STM32F4xx_HAL_Driver/Inc/stm32f4xx_ll_exti.h **** #define LL_EXTI_LINE_17                EXTI_IMR_IM17          /*!< Extended line 17 */
 107:Drivers/STM32F4xx_HAL_Driver/Inc/stm32f4xx_ll_exti.h **** #if defined(EXTI_IMR_IM18)
 108:Drivers/STM32F4xx_HAL_Driver/Inc/stm32f4xx_ll_exti.h **** #define LL_EXTI_LINE_18                EXTI_IMR_IM18          /*!< Extended line 18 */
ARM GAS  C:\Users\zoosman\AppData\Local\Temp\ccgnoQ1j.s 			page 9


 109:Drivers/STM32F4xx_HAL_Driver/Inc/stm32f4xx_ll_exti.h **** #endif
 110:Drivers/STM32F4xx_HAL_Driver/Inc/stm32f4xx_ll_exti.h **** #define LL_EXTI_LINE_19                EXTI_IMR_IM19          /*!< Extended line 19 */
 111:Drivers/STM32F4xx_HAL_Driver/Inc/stm32f4xx_ll_exti.h **** #if defined(EXTI_IMR_IM20)
 112:Drivers/STM32F4xx_HAL_Driver/Inc/stm32f4xx_ll_exti.h **** #define LL_EXTI_LINE_20                EXTI_IMR_IM20          /*!< Extended line 20 */
 113:Drivers/STM32F4xx_HAL_Driver/Inc/stm32f4xx_ll_exti.h **** #endif
 114:Drivers/STM32F4xx_HAL_Driver/Inc/stm32f4xx_ll_exti.h **** #if defined(EXTI_IMR_IM21)
 115:Drivers/STM32F4xx_HAL_Driver/Inc/stm32f4xx_ll_exti.h **** #define LL_EXTI_LINE_21                EXTI_IMR_IM21          /*!< Extended line 21 */
 116:Drivers/STM32F4xx_HAL_Driver/Inc/stm32f4xx_ll_exti.h **** #endif
 117:Drivers/STM32F4xx_HAL_Driver/Inc/stm32f4xx_ll_exti.h **** #if defined(EXTI_IMR_IM22)
 118:Drivers/STM32F4xx_HAL_Driver/Inc/stm32f4xx_ll_exti.h **** #define LL_EXTI_LINE_22                EXTI_IMR_IM22          /*!< Extended line 22 */
 119:Drivers/STM32F4xx_HAL_Driver/Inc/stm32f4xx_ll_exti.h **** #endif
 120:Drivers/STM32F4xx_HAL_Driver/Inc/stm32f4xx_ll_exti.h **** #if defined(EXTI_IMR_IM23)
 121:Drivers/STM32F4xx_HAL_Driver/Inc/stm32f4xx_ll_exti.h **** #define LL_EXTI_LINE_23                EXTI_IMR_IM23          /*!< Extended line 23 */
 122:Drivers/STM32F4xx_HAL_Driver/Inc/stm32f4xx_ll_exti.h **** #endif
 123:Drivers/STM32F4xx_HAL_Driver/Inc/stm32f4xx_ll_exti.h **** #if defined(EXTI_IMR_IM24)
 124:Drivers/STM32F4xx_HAL_Driver/Inc/stm32f4xx_ll_exti.h **** #define LL_EXTI_LINE_24                EXTI_IMR_IM24          /*!< Extended line 24 */
 125:Drivers/STM32F4xx_HAL_Driver/Inc/stm32f4xx_ll_exti.h **** #endif
 126:Drivers/STM32F4xx_HAL_Driver/Inc/stm32f4xx_ll_exti.h **** #if defined(EXTI_IMR_IM25)
 127:Drivers/STM32F4xx_HAL_Driver/Inc/stm32f4xx_ll_exti.h **** #define LL_EXTI_LINE_25                EXTI_IMR_IM25          /*!< Extended line 25 */
 128:Drivers/STM32F4xx_HAL_Driver/Inc/stm32f4xx_ll_exti.h **** #endif
 129:Drivers/STM32F4xx_HAL_Driver/Inc/stm32f4xx_ll_exti.h **** #if defined(EXTI_IMR_IM26)
 130:Drivers/STM32F4xx_HAL_Driver/Inc/stm32f4xx_ll_exti.h **** #define LL_EXTI_LINE_26                EXTI_IMR_IM26          /*!< Extended line 26 */
 131:Drivers/STM32F4xx_HAL_Driver/Inc/stm32f4xx_ll_exti.h **** #endif
 132:Drivers/STM32F4xx_HAL_Driver/Inc/stm32f4xx_ll_exti.h **** #if defined(EXTI_IMR_IM27)
 133:Drivers/STM32F4xx_HAL_Driver/Inc/stm32f4xx_ll_exti.h **** #define LL_EXTI_LINE_27                EXTI_IMR_IM27          /*!< Extended line 27 */
 134:Drivers/STM32F4xx_HAL_Driver/Inc/stm32f4xx_ll_exti.h **** #endif
 135:Drivers/STM32F4xx_HAL_Driver/Inc/stm32f4xx_ll_exti.h **** #if defined(EXTI_IMR_IM28)
 136:Drivers/STM32F4xx_HAL_Driver/Inc/stm32f4xx_ll_exti.h **** #define LL_EXTI_LINE_28                EXTI_IMR_IM28          /*!< Extended line 28 */
 137:Drivers/STM32F4xx_HAL_Driver/Inc/stm32f4xx_ll_exti.h **** #endif
 138:Drivers/STM32F4xx_HAL_Driver/Inc/stm32f4xx_ll_exti.h **** #if defined(EXTI_IMR_IM29)
 139:Drivers/STM32F4xx_HAL_Driver/Inc/stm32f4xx_ll_exti.h **** #define LL_EXTI_LINE_29                EXTI_IMR_IM29          /*!< Extended line 29 */
 140:Drivers/STM32F4xx_HAL_Driver/Inc/stm32f4xx_ll_exti.h **** #endif
 141:Drivers/STM32F4xx_HAL_Driver/Inc/stm32f4xx_ll_exti.h **** #if defined(EXTI_IMR_IM30)
 142:Drivers/STM32F4xx_HAL_Driver/Inc/stm32f4xx_ll_exti.h **** #define LL_EXTI_LINE_30                EXTI_IMR_IM30          /*!< Extended line 30 */
 143:Drivers/STM32F4xx_HAL_Driver/Inc/stm32f4xx_ll_exti.h **** #endif
 144:Drivers/STM32F4xx_HAL_Driver/Inc/stm32f4xx_ll_exti.h **** #if defined(EXTI_IMR_IM31)
 145:Drivers/STM32F4xx_HAL_Driver/Inc/stm32f4xx_ll_exti.h **** #define LL_EXTI_LINE_31                EXTI_IMR_IM31          /*!< Extended line 31 */
 146:Drivers/STM32F4xx_HAL_Driver/Inc/stm32f4xx_ll_exti.h **** #endif
 147:Drivers/STM32F4xx_HAL_Driver/Inc/stm32f4xx_ll_exti.h **** #define LL_EXTI_LINE_ALL_0_31          EXTI_IMR_IM            /*!< All Extended line not reserved*/
 148:Drivers/STM32F4xx_HAL_Driver/Inc/stm32f4xx_ll_exti.h **** 
 149:Drivers/STM32F4xx_HAL_Driver/Inc/stm32f4xx_ll_exti.h **** 
 150:Drivers/STM32F4xx_HAL_Driver/Inc/stm32f4xx_ll_exti.h **** #define LL_EXTI_LINE_ALL               ((uint32_t)0xFFFFFFFFU)  /*!< All Extended line */
 151:Drivers/STM32F4xx_HAL_Driver/Inc/stm32f4xx_ll_exti.h **** 
 152:Drivers/STM32F4xx_HAL_Driver/Inc/stm32f4xx_ll_exti.h **** #if defined(USE_FULL_LL_DRIVER)
 153:Drivers/STM32F4xx_HAL_Driver/Inc/stm32f4xx_ll_exti.h **** #define LL_EXTI_LINE_NONE              ((uint32_t)0x00000000U)  /*!< None Extended line */
 154:Drivers/STM32F4xx_HAL_Driver/Inc/stm32f4xx_ll_exti.h **** #endif /*USE_FULL_LL_DRIVER*/
 155:Drivers/STM32F4xx_HAL_Driver/Inc/stm32f4xx_ll_exti.h **** 
 156:Drivers/STM32F4xx_HAL_Driver/Inc/stm32f4xx_ll_exti.h **** /**
 157:Drivers/STM32F4xx_HAL_Driver/Inc/stm32f4xx_ll_exti.h ****   * @}
 158:Drivers/STM32F4xx_HAL_Driver/Inc/stm32f4xx_ll_exti.h ****   */
 159:Drivers/STM32F4xx_HAL_Driver/Inc/stm32f4xx_ll_exti.h **** #if defined(USE_FULL_LL_DRIVER)
 160:Drivers/STM32F4xx_HAL_Driver/Inc/stm32f4xx_ll_exti.h **** 
 161:Drivers/STM32F4xx_HAL_Driver/Inc/stm32f4xx_ll_exti.h **** /** @defgroup EXTI_LL_EC_MODE Mode
 162:Drivers/STM32F4xx_HAL_Driver/Inc/stm32f4xx_ll_exti.h ****   * @{
 163:Drivers/STM32F4xx_HAL_Driver/Inc/stm32f4xx_ll_exti.h ****   */
 164:Drivers/STM32F4xx_HAL_Driver/Inc/stm32f4xx_ll_exti.h **** #define LL_EXTI_MODE_IT                 ((uint8_t)0x00U) /*!< Interrupt Mode */
 165:Drivers/STM32F4xx_HAL_Driver/Inc/stm32f4xx_ll_exti.h **** #define LL_EXTI_MODE_EVENT              ((uint8_t)0x01U) /*!< Event Mode */
ARM GAS  C:\Users\zoosman\AppData\Local\Temp\ccgnoQ1j.s 			page 10


 166:Drivers/STM32F4xx_HAL_Driver/Inc/stm32f4xx_ll_exti.h **** #define LL_EXTI_MODE_IT_EVENT           ((uint8_t)0x02U) /*!< Interrupt & Event Mode */
 167:Drivers/STM32F4xx_HAL_Driver/Inc/stm32f4xx_ll_exti.h **** /**
 168:Drivers/STM32F4xx_HAL_Driver/Inc/stm32f4xx_ll_exti.h ****   * @}
 169:Drivers/STM32F4xx_HAL_Driver/Inc/stm32f4xx_ll_exti.h ****   */
 170:Drivers/STM32F4xx_HAL_Driver/Inc/stm32f4xx_ll_exti.h **** 
 171:Drivers/STM32F4xx_HAL_Driver/Inc/stm32f4xx_ll_exti.h **** /** @defgroup EXTI_LL_EC_TRIGGER Edge Trigger
 172:Drivers/STM32F4xx_HAL_Driver/Inc/stm32f4xx_ll_exti.h ****   * @{
 173:Drivers/STM32F4xx_HAL_Driver/Inc/stm32f4xx_ll_exti.h ****   */
 174:Drivers/STM32F4xx_HAL_Driver/Inc/stm32f4xx_ll_exti.h **** #define LL_EXTI_TRIGGER_NONE            ((uint8_t)0x00U) /*!< No Trigger Mode */
 175:Drivers/STM32F4xx_HAL_Driver/Inc/stm32f4xx_ll_exti.h **** #define LL_EXTI_TRIGGER_RISING          ((uint8_t)0x01U) /*!< Trigger Rising Mode */
 176:Drivers/STM32F4xx_HAL_Driver/Inc/stm32f4xx_ll_exti.h **** #define LL_EXTI_TRIGGER_FALLING         ((uint8_t)0x02U) /*!< Trigger Falling Mode */
 177:Drivers/STM32F4xx_HAL_Driver/Inc/stm32f4xx_ll_exti.h **** #define LL_EXTI_TRIGGER_RISING_FALLING  ((uint8_t)0x03U) /*!< Trigger Rising & Falling Mode */
 178:Drivers/STM32F4xx_HAL_Driver/Inc/stm32f4xx_ll_exti.h **** 
 179:Drivers/STM32F4xx_HAL_Driver/Inc/stm32f4xx_ll_exti.h **** /**
 180:Drivers/STM32F4xx_HAL_Driver/Inc/stm32f4xx_ll_exti.h ****   * @}
 181:Drivers/STM32F4xx_HAL_Driver/Inc/stm32f4xx_ll_exti.h ****   */
 182:Drivers/STM32F4xx_HAL_Driver/Inc/stm32f4xx_ll_exti.h **** 
 183:Drivers/STM32F4xx_HAL_Driver/Inc/stm32f4xx_ll_exti.h **** 
 184:Drivers/STM32F4xx_HAL_Driver/Inc/stm32f4xx_ll_exti.h **** #endif /*USE_FULL_LL_DRIVER*/
 185:Drivers/STM32F4xx_HAL_Driver/Inc/stm32f4xx_ll_exti.h **** 
 186:Drivers/STM32F4xx_HAL_Driver/Inc/stm32f4xx_ll_exti.h **** 
 187:Drivers/STM32F4xx_HAL_Driver/Inc/stm32f4xx_ll_exti.h **** /**
 188:Drivers/STM32F4xx_HAL_Driver/Inc/stm32f4xx_ll_exti.h ****   * @}
 189:Drivers/STM32F4xx_HAL_Driver/Inc/stm32f4xx_ll_exti.h ****   */
 190:Drivers/STM32F4xx_HAL_Driver/Inc/stm32f4xx_ll_exti.h **** 
 191:Drivers/STM32F4xx_HAL_Driver/Inc/stm32f4xx_ll_exti.h **** /* Exported macro ------------------------------------------------------------*/
 192:Drivers/STM32F4xx_HAL_Driver/Inc/stm32f4xx_ll_exti.h **** /** @defgroup EXTI_LL_Exported_Macros EXTI Exported Macros
 193:Drivers/STM32F4xx_HAL_Driver/Inc/stm32f4xx_ll_exti.h ****   * @{
 194:Drivers/STM32F4xx_HAL_Driver/Inc/stm32f4xx_ll_exti.h ****   */
 195:Drivers/STM32F4xx_HAL_Driver/Inc/stm32f4xx_ll_exti.h **** 
 196:Drivers/STM32F4xx_HAL_Driver/Inc/stm32f4xx_ll_exti.h **** /** @defgroup EXTI_LL_EM_WRITE_READ Common Write and read registers Macros
 197:Drivers/STM32F4xx_HAL_Driver/Inc/stm32f4xx_ll_exti.h ****   * @{
 198:Drivers/STM32F4xx_HAL_Driver/Inc/stm32f4xx_ll_exti.h ****   */
 199:Drivers/STM32F4xx_HAL_Driver/Inc/stm32f4xx_ll_exti.h **** 
 200:Drivers/STM32F4xx_HAL_Driver/Inc/stm32f4xx_ll_exti.h **** /**
 201:Drivers/STM32F4xx_HAL_Driver/Inc/stm32f4xx_ll_exti.h ****   * @brief  Write a value in EXTI register
 202:Drivers/STM32F4xx_HAL_Driver/Inc/stm32f4xx_ll_exti.h ****   * @param  __REG__ Register to be written
 203:Drivers/STM32F4xx_HAL_Driver/Inc/stm32f4xx_ll_exti.h ****   * @param  __VALUE__ Value to be written in the register
 204:Drivers/STM32F4xx_HAL_Driver/Inc/stm32f4xx_ll_exti.h ****   * @retval None
 205:Drivers/STM32F4xx_HAL_Driver/Inc/stm32f4xx_ll_exti.h ****   */
 206:Drivers/STM32F4xx_HAL_Driver/Inc/stm32f4xx_ll_exti.h **** #define LL_EXTI_WriteReg(__REG__, __VALUE__) WRITE_REG(EXTI->__REG__, (__VALUE__))
 207:Drivers/STM32F4xx_HAL_Driver/Inc/stm32f4xx_ll_exti.h **** 
 208:Drivers/STM32F4xx_HAL_Driver/Inc/stm32f4xx_ll_exti.h **** /**
 209:Drivers/STM32F4xx_HAL_Driver/Inc/stm32f4xx_ll_exti.h ****   * @brief  Read a value in EXTI register
 210:Drivers/STM32F4xx_HAL_Driver/Inc/stm32f4xx_ll_exti.h ****   * @param  __REG__ Register to be read
 211:Drivers/STM32F4xx_HAL_Driver/Inc/stm32f4xx_ll_exti.h ****   * @retval Register value
 212:Drivers/STM32F4xx_HAL_Driver/Inc/stm32f4xx_ll_exti.h ****   */
 213:Drivers/STM32F4xx_HAL_Driver/Inc/stm32f4xx_ll_exti.h **** #define LL_EXTI_ReadReg(__REG__) READ_REG(EXTI->__REG__)
 214:Drivers/STM32F4xx_HAL_Driver/Inc/stm32f4xx_ll_exti.h **** /**
 215:Drivers/STM32F4xx_HAL_Driver/Inc/stm32f4xx_ll_exti.h ****   * @}
 216:Drivers/STM32F4xx_HAL_Driver/Inc/stm32f4xx_ll_exti.h ****   */
 217:Drivers/STM32F4xx_HAL_Driver/Inc/stm32f4xx_ll_exti.h **** 
 218:Drivers/STM32F4xx_HAL_Driver/Inc/stm32f4xx_ll_exti.h **** 
 219:Drivers/STM32F4xx_HAL_Driver/Inc/stm32f4xx_ll_exti.h **** /**
 220:Drivers/STM32F4xx_HAL_Driver/Inc/stm32f4xx_ll_exti.h ****   * @}
 221:Drivers/STM32F4xx_HAL_Driver/Inc/stm32f4xx_ll_exti.h ****   */
 222:Drivers/STM32F4xx_HAL_Driver/Inc/stm32f4xx_ll_exti.h **** 
ARM GAS  C:\Users\zoosman\AppData\Local\Temp\ccgnoQ1j.s 			page 11


 223:Drivers/STM32F4xx_HAL_Driver/Inc/stm32f4xx_ll_exti.h **** 
 224:Drivers/STM32F4xx_HAL_Driver/Inc/stm32f4xx_ll_exti.h **** 
 225:Drivers/STM32F4xx_HAL_Driver/Inc/stm32f4xx_ll_exti.h **** /* Exported functions --------------------------------------------------------*/
 226:Drivers/STM32F4xx_HAL_Driver/Inc/stm32f4xx_ll_exti.h **** /** @defgroup EXTI_LL_Exported_Functions EXTI Exported Functions
 227:Drivers/STM32F4xx_HAL_Driver/Inc/stm32f4xx_ll_exti.h ****  * @{
 228:Drivers/STM32F4xx_HAL_Driver/Inc/stm32f4xx_ll_exti.h ****  */
 229:Drivers/STM32F4xx_HAL_Driver/Inc/stm32f4xx_ll_exti.h **** /** @defgroup EXTI_LL_EF_IT_Management IT_Management
 230:Drivers/STM32F4xx_HAL_Driver/Inc/stm32f4xx_ll_exti.h ****   * @{
 231:Drivers/STM32F4xx_HAL_Driver/Inc/stm32f4xx_ll_exti.h ****   */
 232:Drivers/STM32F4xx_HAL_Driver/Inc/stm32f4xx_ll_exti.h **** 
 233:Drivers/STM32F4xx_HAL_Driver/Inc/stm32f4xx_ll_exti.h **** /**
 234:Drivers/STM32F4xx_HAL_Driver/Inc/stm32f4xx_ll_exti.h ****   * @brief  Enable ExtiLine Interrupt request for Lines in range 0 to 31
 235:Drivers/STM32F4xx_HAL_Driver/Inc/stm32f4xx_ll_exti.h ****   * @note The reset value for the direct or internal lines (see RM)
 236:Drivers/STM32F4xx_HAL_Driver/Inc/stm32f4xx_ll_exti.h ****   *       is set to 1 in order to enable the interrupt by default.
 237:Drivers/STM32F4xx_HAL_Driver/Inc/stm32f4xx_ll_exti.h ****   *       Bits are set automatically at Power on.
 238:Drivers/STM32F4xx_HAL_Driver/Inc/stm32f4xx_ll_exti.h ****   * @rmtoll IMR         IMx           LL_EXTI_EnableIT_0_31
 239:Drivers/STM32F4xx_HAL_Driver/Inc/stm32f4xx_ll_exti.h ****   * @param  ExtiLine This parameter can be one of the following values:
 240:Drivers/STM32F4xx_HAL_Driver/Inc/stm32f4xx_ll_exti.h ****   *         @arg @ref LL_EXTI_LINE_0
 241:Drivers/STM32F4xx_HAL_Driver/Inc/stm32f4xx_ll_exti.h ****   *         @arg @ref LL_EXTI_LINE_1
 242:Drivers/STM32F4xx_HAL_Driver/Inc/stm32f4xx_ll_exti.h ****   *         @arg @ref LL_EXTI_LINE_2
 243:Drivers/STM32F4xx_HAL_Driver/Inc/stm32f4xx_ll_exti.h ****   *         @arg @ref LL_EXTI_LINE_3
 244:Drivers/STM32F4xx_HAL_Driver/Inc/stm32f4xx_ll_exti.h ****   *         @arg @ref LL_EXTI_LINE_4
 245:Drivers/STM32F4xx_HAL_Driver/Inc/stm32f4xx_ll_exti.h ****   *         @arg @ref LL_EXTI_LINE_5
 246:Drivers/STM32F4xx_HAL_Driver/Inc/stm32f4xx_ll_exti.h ****   *         @arg @ref LL_EXTI_LINE_6
 247:Drivers/STM32F4xx_HAL_Driver/Inc/stm32f4xx_ll_exti.h ****   *         @arg @ref LL_EXTI_LINE_7
 248:Drivers/STM32F4xx_HAL_Driver/Inc/stm32f4xx_ll_exti.h ****   *         @arg @ref LL_EXTI_LINE_8
 249:Drivers/STM32F4xx_HAL_Driver/Inc/stm32f4xx_ll_exti.h ****   *         @arg @ref LL_EXTI_LINE_9
 250:Drivers/STM32F4xx_HAL_Driver/Inc/stm32f4xx_ll_exti.h ****   *         @arg @ref LL_EXTI_LINE_10
 251:Drivers/STM32F4xx_HAL_Driver/Inc/stm32f4xx_ll_exti.h ****   *         @arg @ref LL_EXTI_LINE_11
 252:Drivers/STM32F4xx_HAL_Driver/Inc/stm32f4xx_ll_exti.h ****   *         @arg @ref LL_EXTI_LINE_12
 253:Drivers/STM32F4xx_HAL_Driver/Inc/stm32f4xx_ll_exti.h ****   *         @arg @ref LL_EXTI_LINE_13
 254:Drivers/STM32F4xx_HAL_Driver/Inc/stm32f4xx_ll_exti.h ****   *         @arg @ref LL_EXTI_LINE_14
 255:Drivers/STM32F4xx_HAL_Driver/Inc/stm32f4xx_ll_exti.h ****   *         @arg @ref LL_EXTI_LINE_15
 256:Drivers/STM32F4xx_HAL_Driver/Inc/stm32f4xx_ll_exti.h ****   *         @arg @ref LL_EXTI_LINE_16
 257:Drivers/STM32F4xx_HAL_Driver/Inc/stm32f4xx_ll_exti.h ****   *         @arg @ref LL_EXTI_LINE_17
 258:Drivers/STM32F4xx_HAL_Driver/Inc/stm32f4xx_ll_exti.h ****   *         @arg @ref LL_EXTI_LINE_18
 259:Drivers/STM32F4xx_HAL_Driver/Inc/stm32f4xx_ll_exti.h ****   *         @arg @ref LL_EXTI_LINE_19(*)
 260:Drivers/STM32F4xx_HAL_Driver/Inc/stm32f4xx_ll_exti.h ****   *         @arg @ref LL_EXTI_LINE_20(*)
 261:Drivers/STM32F4xx_HAL_Driver/Inc/stm32f4xx_ll_exti.h ****   *         @arg @ref LL_EXTI_LINE_21
 262:Drivers/STM32F4xx_HAL_Driver/Inc/stm32f4xx_ll_exti.h ****   *         @arg @ref LL_EXTI_LINE_22
 263:Drivers/STM32F4xx_HAL_Driver/Inc/stm32f4xx_ll_exti.h ****   *         @arg @ref LL_EXTI_LINE_23(*)
 264:Drivers/STM32F4xx_HAL_Driver/Inc/stm32f4xx_ll_exti.h ****   *         @arg @ref LL_EXTI_LINE_ALL_0_31
 265:Drivers/STM32F4xx_HAL_Driver/Inc/stm32f4xx_ll_exti.h ****   * @note   (*): Available in some devices
 266:Drivers/STM32F4xx_HAL_Driver/Inc/stm32f4xx_ll_exti.h ****   * @note   Please check each device line mapping for EXTI Line availability
 267:Drivers/STM32F4xx_HAL_Driver/Inc/stm32f4xx_ll_exti.h ****   * @retval None
 268:Drivers/STM32F4xx_HAL_Driver/Inc/stm32f4xx_ll_exti.h ****   */
 269:Drivers/STM32F4xx_HAL_Driver/Inc/stm32f4xx_ll_exti.h **** __STATIC_INLINE void LL_EXTI_EnableIT_0_31(uint32_t ExtiLine)
 270:Drivers/STM32F4xx_HAL_Driver/Inc/stm32f4xx_ll_exti.h **** {
 271:Drivers/STM32F4xx_HAL_Driver/Inc/stm32f4xx_ll_exti.h ****   SET_BIT(EXTI->IMR, ExtiLine);
 272:Drivers/STM32F4xx_HAL_Driver/Inc/stm32f4xx_ll_exti.h **** }
 273:Drivers/STM32F4xx_HAL_Driver/Inc/stm32f4xx_ll_exti.h **** 
 274:Drivers/STM32F4xx_HAL_Driver/Inc/stm32f4xx_ll_exti.h **** /**
 275:Drivers/STM32F4xx_HAL_Driver/Inc/stm32f4xx_ll_exti.h ****   * @brief  Disable ExtiLine Interrupt request for Lines in range 0 to 31
 276:Drivers/STM32F4xx_HAL_Driver/Inc/stm32f4xx_ll_exti.h ****   * @note The reset value for the direct or internal lines (see RM)
 277:Drivers/STM32F4xx_HAL_Driver/Inc/stm32f4xx_ll_exti.h ****   *       is set to 1 in order to enable the interrupt by default.
 278:Drivers/STM32F4xx_HAL_Driver/Inc/stm32f4xx_ll_exti.h ****   *       Bits are set automatically at Power on.
 279:Drivers/STM32F4xx_HAL_Driver/Inc/stm32f4xx_ll_exti.h ****   * @rmtoll IMR         IMx           LL_EXTI_DisableIT_0_31
ARM GAS  C:\Users\zoosman\AppData\Local\Temp\ccgnoQ1j.s 			page 12


 280:Drivers/STM32F4xx_HAL_Driver/Inc/stm32f4xx_ll_exti.h ****   * @param  ExtiLine This parameter can be one of the following values:
 281:Drivers/STM32F4xx_HAL_Driver/Inc/stm32f4xx_ll_exti.h ****   *         @arg @ref LL_EXTI_LINE_0
 282:Drivers/STM32F4xx_HAL_Driver/Inc/stm32f4xx_ll_exti.h ****   *         @arg @ref LL_EXTI_LINE_1
 283:Drivers/STM32F4xx_HAL_Driver/Inc/stm32f4xx_ll_exti.h ****   *         @arg @ref LL_EXTI_LINE_2
 284:Drivers/STM32F4xx_HAL_Driver/Inc/stm32f4xx_ll_exti.h ****   *         @arg @ref LL_EXTI_LINE_3
 285:Drivers/STM32F4xx_HAL_Driver/Inc/stm32f4xx_ll_exti.h ****   *         @arg @ref LL_EXTI_LINE_4
 286:Drivers/STM32F4xx_HAL_Driver/Inc/stm32f4xx_ll_exti.h ****   *         @arg @ref LL_EXTI_LINE_5
 287:Drivers/STM32F4xx_HAL_Driver/Inc/stm32f4xx_ll_exti.h ****   *         @arg @ref LL_EXTI_LINE_6
 288:Drivers/STM32F4xx_HAL_Driver/Inc/stm32f4xx_ll_exti.h ****   *         @arg @ref LL_EXTI_LINE_7
 289:Drivers/STM32F4xx_HAL_Driver/Inc/stm32f4xx_ll_exti.h ****   *         @arg @ref LL_EXTI_LINE_8
 290:Drivers/STM32F4xx_HAL_Driver/Inc/stm32f4xx_ll_exti.h ****   *         @arg @ref LL_EXTI_LINE_9
 291:Drivers/STM32F4xx_HAL_Driver/Inc/stm32f4xx_ll_exti.h ****   *         @arg @ref LL_EXTI_LINE_10
 292:Drivers/STM32F4xx_HAL_Driver/Inc/stm32f4xx_ll_exti.h ****   *         @arg @ref LL_EXTI_LINE_11
 293:Drivers/STM32F4xx_HAL_Driver/Inc/stm32f4xx_ll_exti.h ****   *         @arg @ref LL_EXTI_LINE_12
 294:Drivers/STM32F4xx_HAL_Driver/Inc/stm32f4xx_ll_exti.h ****   *         @arg @ref LL_EXTI_LINE_13
 295:Drivers/STM32F4xx_HAL_Driver/Inc/stm32f4xx_ll_exti.h ****   *         @arg @ref LL_EXTI_LINE_14
 296:Drivers/STM32F4xx_HAL_Driver/Inc/stm32f4xx_ll_exti.h ****   *         @arg @ref LL_EXTI_LINE_15
 297:Drivers/STM32F4xx_HAL_Driver/Inc/stm32f4xx_ll_exti.h ****   *         @arg @ref LL_EXTI_LINE_16
 298:Drivers/STM32F4xx_HAL_Driver/Inc/stm32f4xx_ll_exti.h ****   *         @arg @ref LL_EXTI_LINE_17
 299:Drivers/STM32F4xx_HAL_Driver/Inc/stm32f4xx_ll_exti.h ****   *         @arg @ref LL_EXTI_LINE_18
 300:Drivers/STM32F4xx_HAL_Driver/Inc/stm32f4xx_ll_exti.h ****   *         @arg @ref LL_EXTI_LINE_19(*)
 301:Drivers/STM32F4xx_HAL_Driver/Inc/stm32f4xx_ll_exti.h ****   *         @arg @ref LL_EXTI_LINE_20(*)
 302:Drivers/STM32F4xx_HAL_Driver/Inc/stm32f4xx_ll_exti.h ****   *         @arg @ref LL_EXTI_LINE_21
 303:Drivers/STM32F4xx_HAL_Driver/Inc/stm32f4xx_ll_exti.h ****   *         @arg @ref LL_EXTI_LINE_22
 304:Drivers/STM32F4xx_HAL_Driver/Inc/stm32f4xx_ll_exti.h ****   *         @arg @ref LL_EXTI_LINE_23(*)
 305:Drivers/STM32F4xx_HAL_Driver/Inc/stm32f4xx_ll_exti.h ****   *         @arg @ref LL_EXTI_LINE_ALL_0_31
 306:Drivers/STM32F4xx_HAL_Driver/Inc/stm32f4xx_ll_exti.h ****   * @note   (*): Available in some devices
 307:Drivers/STM32F4xx_HAL_Driver/Inc/stm32f4xx_ll_exti.h ****   * @note   Please check each device line mapping for EXTI Line availability
 308:Drivers/STM32F4xx_HAL_Driver/Inc/stm32f4xx_ll_exti.h ****   * @retval None
 309:Drivers/STM32F4xx_HAL_Driver/Inc/stm32f4xx_ll_exti.h ****   */
 310:Drivers/STM32F4xx_HAL_Driver/Inc/stm32f4xx_ll_exti.h **** __STATIC_INLINE void LL_EXTI_DisableIT_0_31(uint32_t ExtiLine)
 311:Drivers/STM32F4xx_HAL_Driver/Inc/stm32f4xx_ll_exti.h **** {
 312:Drivers/STM32F4xx_HAL_Driver/Inc/stm32f4xx_ll_exti.h ****   CLEAR_BIT(EXTI->IMR, ExtiLine);
 313:Drivers/STM32F4xx_HAL_Driver/Inc/stm32f4xx_ll_exti.h **** }
 314:Drivers/STM32F4xx_HAL_Driver/Inc/stm32f4xx_ll_exti.h **** 
 315:Drivers/STM32F4xx_HAL_Driver/Inc/stm32f4xx_ll_exti.h **** 
 316:Drivers/STM32F4xx_HAL_Driver/Inc/stm32f4xx_ll_exti.h **** /**
 317:Drivers/STM32F4xx_HAL_Driver/Inc/stm32f4xx_ll_exti.h ****   * @brief  Indicate if ExtiLine Interrupt request is enabled for Lines in range 0 to 31
 318:Drivers/STM32F4xx_HAL_Driver/Inc/stm32f4xx_ll_exti.h ****   * @note The reset value for the direct or internal lines (see RM)
 319:Drivers/STM32F4xx_HAL_Driver/Inc/stm32f4xx_ll_exti.h ****   *       is set to 1 in order to enable the interrupt by default.
 320:Drivers/STM32F4xx_HAL_Driver/Inc/stm32f4xx_ll_exti.h ****   *       Bits are set automatically at Power on.
 321:Drivers/STM32F4xx_HAL_Driver/Inc/stm32f4xx_ll_exti.h ****   * @rmtoll IMR         IMx           LL_EXTI_IsEnabledIT_0_31
 322:Drivers/STM32F4xx_HAL_Driver/Inc/stm32f4xx_ll_exti.h ****   * @param  ExtiLine This parameter can be one of the following values:
 323:Drivers/STM32F4xx_HAL_Driver/Inc/stm32f4xx_ll_exti.h ****   *         @arg @ref LL_EXTI_LINE_0
 324:Drivers/STM32F4xx_HAL_Driver/Inc/stm32f4xx_ll_exti.h ****   *         @arg @ref LL_EXTI_LINE_1
 325:Drivers/STM32F4xx_HAL_Driver/Inc/stm32f4xx_ll_exti.h ****   *         @arg @ref LL_EXTI_LINE_2
 326:Drivers/STM32F4xx_HAL_Driver/Inc/stm32f4xx_ll_exti.h ****   *         @arg @ref LL_EXTI_LINE_3
 327:Drivers/STM32F4xx_HAL_Driver/Inc/stm32f4xx_ll_exti.h ****   *         @arg @ref LL_EXTI_LINE_4
 328:Drivers/STM32F4xx_HAL_Driver/Inc/stm32f4xx_ll_exti.h ****   *         @arg @ref LL_EXTI_LINE_5
 329:Drivers/STM32F4xx_HAL_Driver/Inc/stm32f4xx_ll_exti.h ****   *         @arg @ref LL_EXTI_LINE_6
 330:Drivers/STM32F4xx_HAL_Driver/Inc/stm32f4xx_ll_exti.h ****   *         @arg @ref LL_EXTI_LINE_7
 331:Drivers/STM32F4xx_HAL_Driver/Inc/stm32f4xx_ll_exti.h ****   *         @arg @ref LL_EXTI_LINE_8
 332:Drivers/STM32F4xx_HAL_Driver/Inc/stm32f4xx_ll_exti.h ****   *         @arg @ref LL_EXTI_LINE_9
 333:Drivers/STM32F4xx_HAL_Driver/Inc/stm32f4xx_ll_exti.h ****   *         @arg @ref LL_EXTI_LINE_10
 334:Drivers/STM32F4xx_HAL_Driver/Inc/stm32f4xx_ll_exti.h ****   *         @arg @ref LL_EXTI_LINE_11
 335:Drivers/STM32F4xx_HAL_Driver/Inc/stm32f4xx_ll_exti.h ****   *         @arg @ref LL_EXTI_LINE_12
 336:Drivers/STM32F4xx_HAL_Driver/Inc/stm32f4xx_ll_exti.h ****   *         @arg @ref LL_EXTI_LINE_13
ARM GAS  C:\Users\zoosman\AppData\Local\Temp\ccgnoQ1j.s 			page 13


 337:Drivers/STM32F4xx_HAL_Driver/Inc/stm32f4xx_ll_exti.h ****   *         @arg @ref LL_EXTI_LINE_14
 338:Drivers/STM32F4xx_HAL_Driver/Inc/stm32f4xx_ll_exti.h ****   *         @arg @ref LL_EXTI_LINE_15
 339:Drivers/STM32F4xx_HAL_Driver/Inc/stm32f4xx_ll_exti.h ****   *         @arg @ref LL_EXTI_LINE_16
 340:Drivers/STM32F4xx_HAL_Driver/Inc/stm32f4xx_ll_exti.h ****   *         @arg @ref LL_EXTI_LINE_17
 341:Drivers/STM32F4xx_HAL_Driver/Inc/stm32f4xx_ll_exti.h ****   *         @arg @ref LL_EXTI_LINE_18
 342:Drivers/STM32F4xx_HAL_Driver/Inc/stm32f4xx_ll_exti.h ****   *         @arg @ref LL_EXTI_LINE_19(*)
 343:Drivers/STM32F4xx_HAL_Driver/Inc/stm32f4xx_ll_exti.h ****   *         @arg @ref LL_EXTI_LINE_20(*)
 344:Drivers/STM32F4xx_HAL_Driver/Inc/stm32f4xx_ll_exti.h ****   *         @arg @ref LL_EXTI_LINE_21
 345:Drivers/STM32F4xx_HAL_Driver/Inc/stm32f4xx_ll_exti.h ****   *         @arg @ref LL_EXTI_LINE_22
 346:Drivers/STM32F4xx_HAL_Driver/Inc/stm32f4xx_ll_exti.h ****   *         @arg @ref LL_EXTI_LINE_23(*)
 347:Drivers/STM32F4xx_HAL_Driver/Inc/stm32f4xx_ll_exti.h ****   *         @arg @ref LL_EXTI_LINE_ALL_0_31
 348:Drivers/STM32F4xx_HAL_Driver/Inc/stm32f4xx_ll_exti.h ****   * @note   (*): Available in some devices
 349:Drivers/STM32F4xx_HAL_Driver/Inc/stm32f4xx_ll_exti.h ****   * @note   Please check each device line mapping for EXTI Line availability
 350:Drivers/STM32F4xx_HAL_Driver/Inc/stm32f4xx_ll_exti.h ****   * @retval State of bit (1 or 0).
 351:Drivers/STM32F4xx_HAL_Driver/Inc/stm32f4xx_ll_exti.h ****   */
 352:Drivers/STM32F4xx_HAL_Driver/Inc/stm32f4xx_ll_exti.h **** __STATIC_INLINE uint32_t LL_EXTI_IsEnabledIT_0_31(uint32_t ExtiLine)
 353:Drivers/STM32F4xx_HAL_Driver/Inc/stm32f4xx_ll_exti.h **** {
 354:Drivers/STM32F4xx_HAL_Driver/Inc/stm32f4xx_ll_exti.h ****   return (READ_BIT(EXTI->IMR, ExtiLine) == (ExtiLine));
 355:Drivers/STM32F4xx_HAL_Driver/Inc/stm32f4xx_ll_exti.h **** }
 356:Drivers/STM32F4xx_HAL_Driver/Inc/stm32f4xx_ll_exti.h **** 
 357:Drivers/STM32F4xx_HAL_Driver/Inc/stm32f4xx_ll_exti.h **** 
 358:Drivers/STM32F4xx_HAL_Driver/Inc/stm32f4xx_ll_exti.h **** /**
 359:Drivers/STM32F4xx_HAL_Driver/Inc/stm32f4xx_ll_exti.h ****   * @}
 360:Drivers/STM32F4xx_HAL_Driver/Inc/stm32f4xx_ll_exti.h ****   */
 361:Drivers/STM32F4xx_HAL_Driver/Inc/stm32f4xx_ll_exti.h **** 
 362:Drivers/STM32F4xx_HAL_Driver/Inc/stm32f4xx_ll_exti.h **** /** @defgroup EXTI_LL_EF_Event_Management Event_Management
 363:Drivers/STM32F4xx_HAL_Driver/Inc/stm32f4xx_ll_exti.h ****   * @{
 364:Drivers/STM32F4xx_HAL_Driver/Inc/stm32f4xx_ll_exti.h ****   */
 365:Drivers/STM32F4xx_HAL_Driver/Inc/stm32f4xx_ll_exti.h **** 
 366:Drivers/STM32F4xx_HAL_Driver/Inc/stm32f4xx_ll_exti.h **** /**
 367:Drivers/STM32F4xx_HAL_Driver/Inc/stm32f4xx_ll_exti.h ****   * @brief  Enable ExtiLine Event request for Lines in range 0 to 31
 368:Drivers/STM32F4xx_HAL_Driver/Inc/stm32f4xx_ll_exti.h ****   * @rmtoll EMR         EMx           LL_EXTI_EnableEvent_0_31
 369:Drivers/STM32F4xx_HAL_Driver/Inc/stm32f4xx_ll_exti.h ****   * @param  ExtiLine This parameter can be one of the following values:
 370:Drivers/STM32F4xx_HAL_Driver/Inc/stm32f4xx_ll_exti.h ****   *         @arg @ref LL_EXTI_LINE_0
 371:Drivers/STM32F4xx_HAL_Driver/Inc/stm32f4xx_ll_exti.h ****   *         @arg @ref LL_EXTI_LINE_1
 372:Drivers/STM32F4xx_HAL_Driver/Inc/stm32f4xx_ll_exti.h ****   *         @arg @ref LL_EXTI_LINE_2
 373:Drivers/STM32F4xx_HAL_Driver/Inc/stm32f4xx_ll_exti.h ****   *         @arg @ref LL_EXTI_LINE_3
 374:Drivers/STM32F4xx_HAL_Driver/Inc/stm32f4xx_ll_exti.h ****   *         @arg @ref LL_EXTI_LINE_4
 375:Drivers/STM32F4xx_HAL_Driver/Inc/stm32f4xx_ll_exti.h ****   *         @arg @ref LL_EXTI_LINE_5
 376:Drivers/STM32F4xx_HAL_Driver/Inc/stm32f4xx_ll_exti.h ****   *         @arg @ref LL_EXTI_LINE_6
 377:Drivers/STM32F4xx_HAL_Driver/Inc/stm32f4xx_ll_exti.h ****   *         @arg @ref LL_EXTI_LINE_7
 378:Drivers/STM32F4xx_HAL_Driver/Inc/stm32f4xx_ll_exti.h ****   *         @arg @ref LL_EXTI_LINE_8
 379:Drivers/STM32F4xx_HAL_Driver/Inc/stm32f4xx_ll_exti.h ****   *         @arg @ref LL_EXTI_LINE_9
 380:Drivers/STM32F4xx_HAL_Driver/Inc/stm32f4xx_ll_exti.h ****   *         @arg @ref LL_EXTI_LINE_10
 381:Drivers/STM32F4xx_HAL_Driver/Inc/stm32f4xx_ll_exti.h ****   *         @arg @ref LL_EXTI_LINE_11
 382:Drivers/STM32F4xx_HAL_Driver/Inc/stm32f4xx_ll_exti.h ****   *         @arg @ref LL_EXTI_LINE_12
 383:Drivers/STM32F4xx_HAL_Driver/Inc/stm32f4xx_ll_exti.h ****   *         @arg @ref LL_EXTI_LINE_13
 384:Drivers/STM32F4xx_HAL_Driver/Inc/stm32f4xx_ll_exti.h ****   *         @arg @ref LL_EXTI_LINE_14
 385:Drivers/STM32F4xx_HAL_Driver/Inc/stm32f4xx_ll_exti.h ****   *         @arg @ref LL_EXTI_LINE_15
 386:Drivers/STM32F4xx_HAL_Driver/Inc/stm32f4xx_ll_exti.h ****   *         @arg @ref LL_EXTI_LINE_16
 387:Drivers/STM32F4xx_HAL_Driver/Inc/stm32f4xx_ll_exti.h ****   *         @arg @ref LL_EXTI_LINE_17
 388:Drivers/STM32F4xx_HAL_Driver/Inc/stm32f4xx_ll_exti.h ****   *         @arg @ref LL_EXTI_LINE_18
 389:Drivers/STM32F4xx_HAL_Driver/Inc/stm32f4xx_ll_exti.h ****   *         @arg @ref LL_EXTI_LINE_19(*)
 390:Drivers/STM32F4xx_HAL_Driver/Inc/stm32f4xx_ll_exti.h ****   *         @arg @ref LL_EXTI_LINE_20(*)
 391:Drivers/STM32F4xx_HAL_Driver/Inc/stm32f4xx_ll_exti.h ****   *         @arg @ref LL_EXTI_LINE_21
 392:Drivers/STM32F4xx_HAL_Driver/Inc/stm32f4xx_ll_exti.h ****   *         @arg @ref LL_EXTI_LINE_22
 393:Drivers/STM32F4xx_HAL_Driver/Inc/stm32f4xx_ll_exti.h ****   *         @arg @ref LL_EXTI_LINE_23(*)
ARM GAS  C:\Users\zoosman\AppData\Local\Temp\ccgnoQ1j.s 			page 14


 394:Drivers/STM32F4xx_HAL_Driver/Inc/stm32f4xx_ll_exti.h ****   *         @arg @ref LL_EXTI_LINE_ALL_0_31
 395:Drivers/STM32F4xx_HAL_Driver/Inc/stm32f4xx_ll_exti.h ****   * @note   (*): Available in some devices
 396:Drivers/STM32F4xx_HAL_Driver/Inc/stm32f4xx_ll_exti.h ****   * @note   Please check each device line mapping for EXTI Line availability
 397:Drivers/STM32F4xx_HAL_Driver/Inc/stm32f4xx_ll_exti.h ****   * @retval None
 398:Drivers/STM32F4xx_HAL_Driver/Inc/stm32f4xx_ll_exti.h ****   */
 399:Drivers/STM32F4xx_HAL_Driver/Inc/stm32f4xx_ll_exti.h **** __STATIC_INLINE void LL_EXTI_EnableEvent_0_31(uint32_t ExtiLine)
 400:Drivers/STM32F4xx_HAL_Driver/Inc/stm32f4xx_ll_exti.h **** {
 401:Drivers/STM32F4xx_HAL_Driver/Inc/stm32f4xx_ll_exti.h ****   SET_BIT(EXTI->EMR, ExtiLine);
 402:Drivers/STM32F4xx_HAL_Driver/Inc/stm32f4xx_ll_exti.h **** 
 403:Drivers/STM32F4xx_HAL_Driver/Inc/stm32f4xx_ll_exti.h **** }
 404:Drivers/STM32F4xx_HAL_Driver/Inc/stm32f4xx_ll_exti.h **** 
 405:Drivers/STM32F4xx_HAL_Driver/Inc/stm32f4xx_ll_exti.h **** 
 406:Drivers/STM32F4xx_HAL_Driver/Inc/stm32f4xx_ll_exti.h **** /**
 407:Drivers/STM32F4xx_HAL_Driver/Inc/stm32f4xx_ll_exti.h ****   * @brief  Disable ExtiLine Event request for Lines in range 0 to 31
 408:Drivers/STM32F4xx_HAL_Driver/Inc/stm32f4xx_ll_exti.h ****   * @rmtoll EMR         EMx           LL_EXTI_DisableEvent_0_31
 409:Drivers/STM32F4xx_HAL_Driver/Inc/stm32f4xx_ll_exti.h ****   * @param  ExtiLine This parameter can be one of the following values:
 410:Drivers/STM32F4xx_HAL_Driver/Inc/stm32f4xx_ll_exti.h ****   *         @arg @ref LL_EXTI_LINE_0
 411:Drivers/STM32F4xx_HAL_Driver/Inc/stm32f4xx_ll_exti.h ****   *         @arg @ref LL_EXTI_LINE_1
 412:Drivers/STM32F4xx_HAL_Driver/Inc/stm32f4xx_ll_exti.h ****   *         @arg @ref LL_EXTI_LINE_2
 413:Drivers/STM32F4xx_HAL_Driver/Inc/stm32f4xx_ll_exti.h ****   *         @arg @ref LL_EXTI_LINE_3
 414:Drivers/STM32F4xx_HAL_Driver/Inc/stm32f4xx_ll_exti.h ****   *         @arg @ref LL_EXTI_LINE_4
 415:Drivers/STM32F4xx_HAL_Driver/Inc/stm32f4xx_ll_exti.h ****   *         @arg @ref LL_EXTI_LINE_5
 416:Drivers/STM32F4xx_HAL_Driver/Inc/stm32f4xx_ll_exti.h ****   *         @arg @ref LL_EXTI_LINE_6
 417:Drivers/STM32F4xx_HAL_Driver/Inc/stm32f4xx_ll_exti.h ****   *         @arg @ref LL_EXTI_LINE_7
 418:Drivers/STM32F4xx_HAL_Driver/Inc/stm32f4xx_ll_exti.h ****   *         @arg @ref LL_EXTI_LINE_8
 419:Drivers/STM32F4xx_HAL_Driver/Inc/stm32f4xx_ll_exti.h ****   *         @arg @ref LL_EXTI_LINE_9
 420:Drivers/STM32F4xx_HAL_Driver/Inc/stm32f4xx_ll_exti.h ****   *         @arg @ref LL_EXTI_LINE_10
 421:Drivers/STM32F4xx_HAL_Driver/Inc/stm32f4xx_ll_exti.h ****   *         @arg @ref LL_EXTI_LINE_11
 422:Drivers/STM32F4xx_HAL_Driver/Inc/stm32f4xx_ll_exti.h ****   *         @arg @ref LL_EXTI_LINE_12
 423:Drivers/STM32F4xx_HAL_Driver/Inc/stm32f4xx_ll_exti.h ****   *         @arg @ref LL_EXTI_LINE_13
 424:Drivers/STM32F4xx_HAL_Driver/Inc/stm32f4xx_ll_exti.h ****   *         @arg @ref LL_EXTI_LINE_14
 425:Drivers/STM32F4xx_HAL_Driver/Inc/stm32f4xx_ll_exti.h ****   *         @arg @ref LL_EXTI_LINE_15
 426:Drivers/STM32F4xx_HAL_Driver/Inc/stm32f4xx_ll_exti.h ****   *         @arg @ref LL_EXTI_LINE_16
 427:Drivers/STM32F4xx_HAL_Driver/Inc/stm32f4xx_ll_exti.h ****   *         @arg @ref LL_EXTI_LINE_17
 428:Drivers/STM32F4xx_HAL_Driver/Inc/stm32f4xx_ll_exti.h ****   *         @arg @ref LL_EXTI_LINE_18
 429:Drivers/STM32F4xx_HAL_Driver/Inc/stm32f4xx_ll_exti.h ****   *         @arg @ref LL_EXTI_LINE_19(*)
 430:Drivers/STM32F4xx_HAL_Driver/Inc/stm32f4xx_ll_exti.h ****   *         @arg @ref LL_EXTI_LINE_20(*)
 431:Drivers/STM32F4xx_HAL_Driver/Inc/stm32f4xx_ll_exti.h ****   *         @arg @ref LL_EXTI_LINE_21
 432:Drivers/STM32F4xx_HAL_Driver/Inc/stm32f4xx_ll_exti.h ****   *         @arg @ref LL_EXTI_LINE_22
 433:Drivers/STM32F4xx_HAL_Driver/Inc/stm32f4xx_ll_exti.h ****   *         @arg @ref LL_EXTI_LINE_23(*)
 434:Drivers/STM32F4xx_HAL_Driver/Inc/stm32f4xx_ll_exti.h ****   *         @arg @ref LL_EXTI_LINE_ALL_0_31
 435:Drivers/STM32F4xx_HAL_Driver/Inc/stm32f4xx_ll_exti.h ****   * @note   (*): Available in some devices
 436:Drivers/STM32F4xx_HAL_Driver/Inc/stm32f4xx_ll_exti.h ****   * @note   Please check each device line mapping for EXTI Line availability
 437:Drivers/STM32F4xx_HAL_Driver/Inc/stm32f4xx_ll_exti.h ****   * @retval None
 438:Drivers/STM32F4xx_HAL_Driver/Inc/stm32f4xx_ll_exti.h ****   */
 439:Drivers/STM32F4xx_HAL_Driver/Inc/stm32f4xx_ll_exti.h **** __STATIC_INLINE void LL_EXTI_DisableEvent_0_31(uint32_t ExtiLine)
 440:Drivers/STM32F4xx_HAL_Driver/Inc/stm32f4xx_ll_exti.h **** {
 441:Drivers/STM32F4xx_HAL_Driver/Inc/stm32f4xx_ll_exti.h ****   CLEAR_BIT(EXTI->EMR, ExtiLine);
 442:Drivers/STM32F4xx_HAL_Driver/Inc/stm32f4xx_ll_exti.h **** }
 443:Drivers/STM32F4xx_HAL_Driver/Inc/stm32f4xx_ll_exti.h **** 
 444:Drivers/STM32F4xx_HAL_Driver/Inc/stm32f4xx_ll_exti.h **** 
 445:Drivers/STM32F4xx_HAL_Driver/Inc/stm32f4xx_ll_exti.h **** /**
 446:Drivers/STM32F4xx_HAL_Driver/Inc/stm32f4xx_ll_exti.h ****   * @brief  Indicate if ExtiLine Event request is enabled for Lines in range 0 to 31
 447:Drivers/STM32F4xx_HAL_Driver/Inc/stm32f4xx_ll_exti.h ****   * @rmtoll EMR         EMx           LL_EXTI_IsEnabledEvent_0_31
 448:Drivers/STM32F4xx_HAL_Driver/Inc/stm32f4xx_ll_exti.h ****   * @param  ExtiLine This parameter can be one of the following values:
 449:Drivers/STM32F4xx_HAL_Driver/Inc/stm32f4xx_ll_exti.h ****   *         @arg @ref LL_EXTI_LINE_0
 450:Drivers/STM32F4xx_HAL_Driver/Inc/stm32f4xx_ll_exti.h ****   *         @arg @ref LL_EXTI_LINE_1
ARM GAS  C:\Users\zoosman\AppData\Local\Temp\ccgnoQ1j.s 			page 15


 451:Drivers/STM32F4xx_HAL_Driver/Inc/stm32f4xx_ll_exti.h ****   *         @arg @ref LL_EXTI_LINE_2
 452:Drivers/STM32F4xx_HAL_Driver/Inc/stm32f4xx_ll_exti.h ****   *         @arg @ref LL_EXTI_LINE_3
 453:Drivers/STM32F4xx_HAL_Driver/Inc/stm32f4xx_ll_exti.h ****   *         @arg @ref LL_EXTI_LINE_4
 454:Drivers/STM32F4xx_HAL_Driver/Inc/stm32f4xx_ll_exti.h ****   *         @arg @ref LL_EXTI_LINE_5
 455:Drivers/STM32F4xx_HAL_Driver/Inc/stm32f4xx_ll_exti.h ****   *         @arg @ref LL_EXTI_LINE_6
 456:Drivers/STM32F4xx_HAL_Driver/Inc/stm32f4xx_ll_exti.h ****   *         @arg @ref LL_EXTI_LINE_7
 457:Drivers/STM32F4xx_HAL_Driver/Inc/stm32f4xx_ll_exti.h ****   *         @arg @ref LL_EXTI_LINE_8
 458:Drivers/STM32F4xx_HAL_Driver/Inc/stm32f4xx_ll_exti.h ****   *         @arg @ref LL_EXTI_LINE_9
 459:Drivers/STM32F4xx_HAL_Driver/Inc/stm32f4xx_ll_exti.h ****   *         @arg @ref LL_EXTI_LINE_10
 460:Drivers/STM32F4xx_HAL_Driver/Inc/stm32f4xx_ll_exti.h ****   *         @arg @ref LL_EXTI_LINE_11
 461:Drivers/STM32F4xx_HAL_Driver/Inc/stm32f4xx_ll_exti.h ****   *         @arg @ref LL_EXTI_LINE_12
 462:Drivers/STM32F4xx_HAL_Driver/Inc/stm32f4xx_ll_exti.h ****   *         @arg @ref LL_EXTI_LINE_13
 463:Drivers/STM32F4xx_HAL_Driver/Inc/stm32f4xx_ll_exti.h ****   *         @arg @ref LL_EXTI_LINE_14
 464:Drivers/STM32F4xx_HAL_Driver/Inc/stm32f4xx_ll_exti.h ****   *         @arg @ref LL_EXTI_LINE_15
 465:Drivers/STM32F4xx_HAL_Driver/Inc/stm32f4xx_ll_exti.h ****   *         @arg @ref LL_EXTI_LINE_16
 466:Drivers/STM32F4xx_HAL_Driver/Inc/stm32f4xx_ll_exti.h ****   *         @arg @ref LL_EXTI_LINE_17
 467:Drivers/STM32F4xx_HAL_Driver/Inc/stm32f4xx_ll_exti.h ****   *         @arg @ref LL_EXTI_LINE_18
 468:Drivers/STM32F4xx_HAL_Driver/Inc/stm32f4xx_ll_exti.h ****   *         @arg @ref LL_EXTI_LINE_19(*)
 469:Drivers/STM32F4xx_HAL_Driver/Inc/stm32f4xx_ll_exti.h ****   *         @arg @ref LL_EXTI_LINE_20(*)
 470:Drivers/STM32F4xx_HAL_Driver/Inc/stm32f4xx_ll_exti.h ****   *         @arg @ref LL_EXTI_LINE_21
 471:Drivers/STM32F4xx_HAL_Driver/Inc/stm32f4xx_ll_exti.h ****   *         @arg @ref LL_EXTI_LINE_22
 472:Drivers/STM32F4xx_HAL_Driver/Inc/stm32f4xx_ll_exti.h ****   *         @arg @ref LL_EXTI_LINE_23(*)
 473:Drivers/STM32F4xx_HAL_Driver/Inc/stm32f4xx_ll_exti.h ****   *         @arg @ref LL_EXTI_LINE_ALL_0_31
 474:Drivers/STM32F4xx_HAL_Driver/Inc/stm32f4xx_ll_exti.h ****   * @note   (*): Available in some devices
 475:Drivers/STM32F4xx_HAL_Driver/Inc/stm32f4xx_ll_exti.h ****   * @note   Please check each device line mapping for EXTI Line availability
 476:Drivers/STM32F4xx_HAL_Driver/Inc/stm32f4xx_ll_exti.h ****   * @retval State of bit (1 or 0).
 477:Drivers/STM32F4xx_HAL_Driver/Inc/stm32f4xx_ll_exti.h ****   */
 478:Drivers/STM32F4xx_HAL_Driver/Inc/stm32f4xx_ll_exti.h **** __STATIC_INLINE uint32_t LL_EXTI_IsEnabledEvent_0_31(uint32_t ExtiLine)
 479:Drivers/STM32F4xx_HAL_Driver/Inc/stm32f4xx_ll_exti.h **** {
 480:Drivers/STM32F4xx_HAL_Driver/Inc/stm32f4xx_ll_exti.h ****   return (READ_BIT(EXTI->EMR, ExtiLine) == (ExtiLine));
 481:Drivers/STM32F4xx_HAL_Driver/Inc/stm32f4xx_ll_exti.h **** 
 482:Drivers/STM32F4xx_HAL_Driver/Inc/stm32f4xx_ll_exti.h **** }
 483:Drivers/STM32F4xx_HAL_Driver/Inc/stm32f4xx_ll_exti.h **** 
 484:Drivers/STM32F4xx_HAL_Driver/Inc/stm32f4xx_ll_exti.h **** 
 485:Drivers/STM32F4xx_HAL_Driver/Inc/stm32f4xx_ll_exti.h **** /**
 486:Drivers/STM32F4xx_HAL_Driver/Inc/stm32f4xx_ll_exti.h ****   * @}
 487:Drivers/STM32F4xx_HAL_Driver/Inc/stm32f4xx_ll_exti.h ****   */
 488:Drivers/STM32F4xx_HAL_Driver/Inc/stm32f4xx_ll_exti.h **** 
 489:Drivers/STM32F4xx_HAL_Driver/Inc/stm32f4xx_ll_exti.h **** /** @defgroup EXTI_LL_EF_Rising_Trigger_Management Rising_Trigger_Management
 490:Drivers/STM32F4xx_HAL_Driver/Inc/stm32f4xx_ll_exti.h ****   * @{
 491:Drivers/STM32F4xx_HAL_Driver/Inc/stm32f4xx_ll_exti.h ****   */
 492:Drivers/STM32F4xx_HAL_Driver/Inc/stm32f4xx_ll_exti.h **** 
 493:Drivers/STM32F4xx_HAL_Driver/Inc/stm32f4xx_ll_exti.h **** /**
 494:Drivers/STM32F4xx_HAL_Driver/Inc/stm32f4xx_ll_exti.h ****   * @brief  Enable ExtiLine Rising Edge Trigger for Lines in range 0 to 31
 495:Drivers/STM32F4xx_HAL_Driver/Inc/stm32f4xx_ll_exti.h ****   * @note The configurable wakeup lines are edge-triggered. No glitch must be
 496:Drivers/STM32F4xx_HAL_Driver/Inc/stm32f4xx_ll_exti.h ****   *       generated on these lines. If a rising edge on a configurable interrupt
 497:Drivers/STM32F4xx_HAL_Driver/Inc/stm32f4xx_ll_exti.h ****   *       line occurs during a write operation in the EXTI_RTSR register, the
 498:Drivers/STM32F4xx_HAL_Driver/Inc/stm32f4xx_ll_exti.h ****   *       pending bit is not set.
 499:Drivers/STM32F4xx_HAL_Driver/Inc/stm32f4xx_ll_exti.h ****   *       Rising and falling edge triggers can be set for
 500:Drivers/STM32F4xx_HAL_Driver/Inc/stm32f4xx_ll_exti.h ****   *       the same interrupt line. In this case, both generate a trigger
 501:Drivers/STM32F4xx_HAL_Driver/Inc/stm32f4xx_ll_exti.h ****   *       condition.
 502:Drivers/STM32F4xx_HAL_Driver/Inc/stm32f4xx_ll_exti.h ****   * @rmtoll RTSR        RTx           LL_EXTI_EnableRisingTrig_0_31
 503:Drivers/STM32F4xx_HAL_Driver/Inc/stm32f4xx_ll_exti.h ****   * @param  ExtiLine This parameter can be a combination of the following values:
 504:Drivers/STM32F4xx_HAL_Driver/Inc/stm32f4xx_ll_exti.h ****   *         @arg @ref LL_EXTI_LINE_0
 505:Drivers/STM32F4xx_HAL_Driver/Inc/stm32f4xx_ll_exti.h ****   *         @arg @ref LL_EXTI_LINE_1
 506:Drivers/STM32F4xx_HAL_Driver/Inc/stm32f4xx_ll_exti.h ****   *         @arg @ref LL_EXTI_LINE_2
 507:Drivers/STM32F4xx_HAL_Driver/Inc/stm32f4xx_ll_exti.h ****   *         @arg @ref LL_EXTI_LINE_3
ARM GAS  C:\Users\zoosman\AppData\Local\Temp\ccgnoQ1j.s 			page 16


 508:Drivers/STM32F4xx_HAL_Driver/Inc/stm32f4xx_ll_exti.h ****   *         @arg @ref LL_EXTI_LINE_4
 509:Drivers/STM32F4xx_HAL_Driver/Inc/stm32f4xx_ll_exti.h ****   *         @arg @ref LL_EXTI_LINE_5
 510:Drivers/STM32F4xx_HAL_Driver/Inc/stm32f4xx_ll_exti.h ****   *         @arg @ref LL_EXTI_LINE_6
 511:Drivers/STM32F4xx_HAL_Driver/Inc/stm32f4xx_ll_exti.h ****   *         @arg @ref LL_EXTI_LINE_7
 512:Drivers/STM32F4xx_HAL_Driver/Inc/stm32f4xx_ll_exti.h ****   *         @arg @ref LL_EXTI_LINE_8
 513:Drivers/STM32F4xx_HAL_Driver/Inc/stm32f4xx_ll_exti.h ****   *         @arg @ref LL_EXTI_LINE_9
 514:Drivers/STM32F4xx_HAL_Driver/Inc/stm32f4xx_ll_exti.h ****   *         @arg @ref LL_EXTI_LINE_10
 515:Drivers/STM32F4xx_HAL_Driver/Inc/stm32f4xx_ll_exti.h ****   *         @arg @ref LL_EXTI_LINE_11
 516:Drivers/STM32F4xx_HAL_Driver/Inc/stm32f4xx_ll_exti.h ****   *         @arg @ref LL_EXTI_LINE_12
 517:Drivers/STM32F4xx_HAL_Driver/Inc/stm32f4xx_ll_exti.h ****   *         @arg @ref LL_EXTI_LINE_13
 518:Drivers/STM32F4xx_HAL_Driver/Inc/stm32f4xx_ll_exti.h ****   *         @arg @ref LL_EXTI_LINE_14
 519:Drivers/STM32F4xx_HAL_Driver/Inc/stm32f4xx_ll_exti.h ****   *         @arg @ref LL_EXTI_LINE_15
 520:Drivers/STM32F4xx_HAL_Driver/Inc/stm32f4xx_ll_exti.h ****   *         @arg @ref LL_EXTI_LINE_16
 521:Drivers/STM32F4xx_HAL_Driver/Inc/stm32f4xx_ll_exti.h ****   *         @arg @ref LL_EXTI_LINE_18
 522:Drivers/STM32F4xx_HAL_Driver/Inc/stm32f4xx_ll_exti.h ****   *         @arg @ref LL_EXTI_LINE_19(*)
 523:Drivers/STM32F4xx_HAL_Driver/Inc/stm32f4xx_ll_exti.h ****   *         @arg @ref LL_EXTI_LINE_20(*)
 524:Drivers/STM32F4xx_HAL_Driver/Inc/stm32f4xx_ll_exti.h ****   *         @arg @ref LL_EXTI_LINE_21
 525:Drivers/STM32F4xx_HAL_Driver/Inc/stm32f4xx_ll_exti.h ****   *         @arg @ref LL_EXTI_LINE_22
 526:Drivers/STM32F4xx_HAL_Driver/Inc/stm32f4xx_ll_exti.h ****   * @note   (*): Available in some devices
 527:Drivers/STM32F4xx_HAL_Driver/Inc/stm32f4xx_ll_exti.h ****   * @note   Please check each device line mapping for EXTI Line availability
 528:Drivers/STM32F4xx_HAL_Driver/Inc/stm32f4xx_ll_exti.h ****   * @retval None
 529:Drivers/STM32F4xx_HAL_Driver/Inc/stm32f4xx_ll_exti.h ****   */
 530:Drivers/STM32F4xx_HAL_Driver/Inc/stm32f4xx_ll_exti.h **** __STATIC_INLINE void LL_EXTI_EnableRisingTrig_0_31(uint32_t ExtiLine)
 531:Drivers/STM32F4xx_HAL_Driver/Inc/stm32f4xx_ll_exti.h **** {
 532:Drivers/STM32F4xx_HAL_Driver/Inc/stm32f4xx_ll_exti.h ****   SET_BIT(EXTI->RTSR, ExtiLine);
 533:Drivers/STM32F4xx_HAL_Driver/Inc/stm32f4xx_ll_exti.h **** 
 534:Drivers/STM32F4xx_HAL_Driver/Inc/stm32f4xx_ll_exti.h **** }
 535:Drivers/STM32F4xx_HAL_Driver/Inc/stm32f4xx_ll_exti.h **** 
 536:Drivers/STM32F4xx_HAL_Driver/Inc/stm32f4xx_ll_exti.h **** 
 537:Drivers/STM32F4xx_HAL_Driver/Inc/stm32f4xx_ll_exti.h **** /**
 538:Drivers/STM32F4xx_HAL_Driver/Inc/stm32f4xx_ll_exti.h ****   * @brief  Disable ExtiLine Rising Edge Trigger for Lines in range 0 to 31
 539:Drivers/STM32F4xx_HAL_Driver/Inc/stm32f4xx_ll_exti.h ****   * @note The configurable wakeup lines are edge-triggered. No glitch must be
 540:Drivers/STM32F4xx_HAL_Driver/Inc/stm32f4xx_ll_exti.h ****   *       generated on these lines. If a rising edge on a configurable interrupt
 541:Drivers/STM32F4xx_HAL_Driver/Inc/stm32f4xx_ll_exti.h ****   *       line occurs during a write operation in the EXTI_RTSR register, the
 542:Drivers/STM32F4xx_HAL_Driver/Inc/stm32f4xx_ll_exti.h ****   *       pending bit is not set.
 543:Drivers/STM32F4xx_HAL_Driver/Inc/stm32f4xx_ll_exti.h ****   *       Rising and falling edge triggers can be set for
 544:Drivers/STM32F4xx_HAL_Driver/Inc/stm32f4xx_ll_exti.h ****   *       the same interrupt line. In this case, both generate a trigger
 545:Drivers/STM32F4xx_HAL_Driver/Inc/stm32f4xx_ll_exti.h ****   *       condition.
 546:Drivers/STM32F4xx_HAL_Driver/Inc/stm32f4xx_ll_exti.h ****   * @rmtoll RTSR        RTx           LL_EXTI_DisableRisingTrig_0_31
 547:Drivers/STM32F4xx_HAL_Driver/Inc/stm32f4xx_ll_exti.h ****   * @param  ExtiLine This parameter can be a combination of the following values:
 548:Drivers/STM32F4xx_HAL_Driver/Inc/stm32f4xx_ll_exti.h ****   *         @arg @ref LL_EXTI_LINE_0
 549:Drivers/STM32F4xx_HAL_Driver/Inc/stm32f4xx_ll_exti.h ****   *         @arg @ref LL_EXTI_LINE_1
 550:Drivers/STM32F4xx_HAL_Driver/Inc/stm32f4xx_ll_exti.h ****   *         @arg @ref LL_EXTI_LINE_2
 551:Drivers/STM32F4xx_HAL_Driver/Inc/stm32f4xx_ll_exti.h ****   *         @arg @ref LL_EXTI_LINE_3
 552:Drivers/STM32F4xx_HAL_Driver/Inc/stm32f4xx_ll_exti.h ****   *         @arg @ref LL_EXTI_LINE_4
 553:Drivers/STM32F4xx_HAL_Driver/Inc/stm32f4xx_ll_exti.h ****   *         @arg @ref LL_EXTI_LINE_5
 554:Drivers/STM32F4xx_HAL_Driver/Inc/stm32f4xx_ll_exti.h ****   *         @arg @ref LL_EXTI_LINE_6
 555:Drivers/STM32F4xx_HAL_Driver/Inc/stm32f4xx_ll_exti.h ****   *         @arg @ref LL_EXTI_LINE_7
 556:Drivers/STM32F4xx_HAL_Driver/Inc/stm32f4xx_ll_exti.h ****   *         @arg @ref LL_EXTI_LINE_8
 557:Drivers/STM32F4xx_HAL_Driver/Inc/stm32f4xx_ll_exti.h ****   *         @arg @ref LL_EXTI_LINE_9
 558:Drivers/STM32F4xx_HAL_Driver/Inc/stm32f4xx_ll_exti.h ****   *         @arg @ref LL_EXTI_LINE_10
 559:Drivers/STM32F4xx_HAL_Driver/Inc/stm32f4xx_ll_exti.h ****   *         @arg @ref LL_EXTI_LINE_11
 560:Drivers/STM32F4xx_HAL_Driver/Inc/stm32f4xx_ll_exti.h ****   *         @arg @ref LL_EXTI_LINE_12
 561:Drivers/STM32F4xx_HAL_Driver/Inc/stm32f4xx_ll_exti.h ****   *         @arg @ref LL_EXTI_LINE_13
 562:Drivers/STM32F4xx_HAL_Driver/Inc/stm32f4xx_ll_exti.h ****   *         @arg @ref LL_EXTI_LINE_14
 563:Drivers/STM32F4xx_HAL_Driver/Inc/stm32f4xx_ll_exti.h ****   *         @arg @ref LL_EXTI_LINE_15
 564:Drivers/STM32F4xx_HAL_Driver/Inc/stm32f4xx_ll_exti.h ****   *         @arg @ref LL_EXTI_LINE_16
ARM GAS  C:\Users\zoosman\AppData\Local\Temp\ccgnoQ1j.s 			page 17


 565:Drivers/STM32F4xx_HAL_Driver/Inc/stm32f4xx_ll_exti.h ****   *         @arg @ref LL_EXTI_LINE_18
 566:Drivers/STM32F4xx_HAL_Driver/Inc/stm32f4xx_ll_exti.h ****   *         @arg @ref LL_EXTI_LINE_19(*)
 567:Drivers/STM32F4xx_HAL_Driver/Inc/stm32f4xx_ll_exti.h ****   *         @arg @ref LL_EXTI_LINE_20(*)
 568:Drivers/STM32F4xx_HAL_Driver/Inc/stm32f4xx_ll_exti.h ****   *         @arg @ref LL_EXTI_LINE_21
 569:Drivers/STM32F4xx_HAL_Driver/Inc/stm32f4xx_ll_exti.h ****   *         @arg @ref LL_EXTI_LINE_22
 570:Drivers/STM32F4xx_HAL_Driver/Inc/stm32f4xx_ll_exti.h ****   * @note   (*): Available in some devices
 571:Drivers/STM32F4xx_HAL_Driver/Inc/stm32f4xx_ll_exti.h ****   * @note   Please check each device line mapping for EXTI Line availability
 572:Drivers/STM32F4xx_HAL_Driver/Inc/stm32f4xx_ll_exti.h ****   * @retval None
 573:Drivers/STM32F4xx_HAL_Driver/Inc/stm32f4xx_ll_exti.h ****   */
 574:Drivers/STM32F4xx_HAL_Driver/Inc/stm32f4xx_ll_exti.h **** __STATIC_INLINE void LL_EXTI_DisableRisingTrig_0_31(uint32_t ExtiLine)
 575:Drivers/STM32F4xx_HAL_Driver/Inc/stm32f4xx_ll_exti.h **** {
 576:Drivers/STM32F4xx_HAL_Driver/Inc/stm32f4xx_ll_exti.h ****   CLEAR_BIT(EXTI->RTSR, ExtiLine);
 577:Drivers/STM32F4xx_HAL_Driver/Inc/stm32f4xx_ll_exti.h **** 
 578:Drivers/STM32F4xx_HAL_Driver/Inc/stm32f4xx_ll_exti.h **** }
 579:Drivers/STM32F4xx_HAL_Driver/Inc/stm32f4xx_ll_exti.h **** 
 580:Drivers/STM32F4xx_HAL_Driver/Inc/stm32f4xx_ll_exti.h **** 
 581:Drivers/STM32F4xx_HAL_Driver/Inc/stm32f4xx_ll_exti.h **** /**
 582:Drivers/STM32F4xx_HAL_Driver/Inc/stm32f4xx_ll_exti.h ****   * @brief  Check if rising edge trigger is enabled for Lines in range 0 to 31
 583:Drivers/STM32F4xx_HAL_Driver/Inc/stm32f4xx_ll_exti.h ****   * @rmtoll RTSR        RTx           LL_EXTI_IsEnabledRisingTrig_0_31
 584:Drivers/STM32F4xx_HAL_Driver/Inc/stm32f4xx_ll_exti.h ****   * @param  ExtiLine This parameter can be a combination of the following values:
 585:Drivers/STM32F4xx_HAL_Driver/Inc/stm32f4xx_ll_exti.h ****   *         @arg @ref LL_EXTI_LINE_0
 586:Drivers/STM32F4xx_HAL_Driver/Inc/stm32f4xx_ll_exti.h ****   *         @arg @ref LL_EXTI_LINE_1
 587:Drivers/STM32F4xx_HAL_Driver/Inc/stm32f4xx_ll_exti.h ****   *         @arg @ref LL_EXTI_LINE_2
 588:Drivers/STM32F4xx_HAL_Driver/Inc/stm32f4xx_ll_exti.h ****   *         @arg @ref LL_EXTI_LINE_3
 589:Drivers/STM32F4xx_HAL_Driver/Inc/stm32f4xx_ll_exti.h ****   *         @arg @ref LL_EXTI_LINE_4
 590:Drivers/STM32F4xx_HAL_Driver/Inc/stm32f4xx_ll_exti.h ****   *         @arg @ref LL_EXTI_LINE_5
 591:Drivers/STM32F4xx_HAL_Driver/Inc/stm32f4xx_ll_exti.h ****   *         @arg @ref LL_EXTI_LINE_6
 592:Drivers/STM32F4xx_HAL_Driver/Inc/stm32f4xx_ll_exti.h ****   *         @arg @ref LL_EXTI_LINE_7
 593:Drivers/STM32F4xx_HAL_Driver/Inc/stm32f4xx_ll_exti.h ****   *         @arg @ref LL_EXTI_LINE_8
 594:Drivers/STM32F4xx_HAL_Driver/Inc/stm32f4xx_ll_exti.h ****   *         @arg @ref LL_EXTI_LINE_9
 595:Drivers/STM32F4xx_HAL_Driver/Inc/stm32f4xx_ll_exti.h ****   *         @arg @ref LL_EXTI_LINE_10
 596:Drivers/STM32F4xx_HAL_Driver/Inc/stm32f4xx_ll_exti.h ****   *         @arg @ref LL_EXTI_LINE_11
 597:Drivers/STM32F4xx_HAL_Driver/Inc/stm32f4xx_ll_exti.h ****   *         @arg @ref LL_EXTI_LINE_12
 598:Drivers/STM32F4xx_HAL_Driver/Inc/stm32f4xx_ll_exti.h ****   *         @arg @ref LL_EXTI_LINE_13
 599:Drivers/STM32F4xx_HAL_Driver/Inc/stm32f4xx_ll_exti.h ****   *         @arg @ref LL_EXTI_LINE_14
 600:Drivers/STM32F4xx_HAL_Driver/Inc/stm32f4xx_ll_exti.h ****   *         @arg @ref LL_EXTI_LINE_15
 601:Drivers/STM32F4xx_HAL_Driver/Inc/stm32f4xx_ll_exti.h ****   *         @arg @ref LL_EXTI_LINE_16
 602:Drivers/STM32F4xx_HAL_Driver/Inc/stm32f4xx_ll_exti.h ****   *         @arg @ref LL_EXTI_LINE_18
 603:Drivers/STM32F4xx_HAL_Driver/Inc/stm32f4xx_ll_exti.h ****   *         @arg @ref LL_EXTI_LINE_19(*)
 604:Drivers/STM32F4xx_HAL_Driver/Inc/stm32f4xx_ll_exti.h ****   *         @arg @ref LL_EXTI_LINE_20(*)
 605:Drivers/STM32F4xx_HAL_Driver/Inc/stm32f4xx_ll_exti.h ****   *         @arg @ref LL_EXTI_LINE_21
 606:Drivers/STM32F4xx_HAL_Driver/Inc/stm32f4xx_ll_exti.h ****   *         @arg @ref LL_EXTI_LINE_22
 607:Drivers/STM32F4xx_HAL_Driver/Inc/stm32f4xx_ll_exti.h ****   * @note   (*): Available in some devices
 608:Drivers/STM32F4xx_HAL_Driver/Inc/stm32f4xx_ll_exti.h ****   * @note   Please check each device line mapping for EXTI Line availability
 609:Drivers/STM32F4xx_HAL_Driver/Inc/stm32f4xx_ll_exti.h ****   * @retval State of bit (1 or 0).
 610:Drivers/STM32F4xx_HAL_Driver/Inc/stm32f4xx_ll_exti.h ****   */
 611:Drivers/STM32F4xx_HAL_Driver/Inc/stm32f4xx_ll_exti.h **** __STATIC_INLINE uint32_t LL_EXTI_IsEnabledRisingTrig_0_31(uint32_t ExtiLine)
 612:Drivers/STM32F4xx_HAL_Driver/Inc/stm32f4xx_ll_exti.h **** {
 613:Drivers/STM32F4xx_HAL_Driver/Inc/stm32f4xx_ll_exti.h ****   return (READ_BIT(EXTI->RTSR, ExtiLine) == (ExtiLine));
 614:Drivers/STM32F4xx_HAL_Driver/Inc/stm32f4xx_ll_exti.h **** }
 615:Drivers/STM32F4xx_HAL_Driver/Inc/stm32f4xx_ll_exti.h **** 
 616:Drivers/STM32F4xx_HAL_Driver/Inc/stm32f4xx_ll_exti.h **** 
 617:Drivers/STM32F4xx_HAL_Driver/Inc/stm32f4xx_ll_exti.h **** /**
 618:Drivers/STM32F4xx_HAL_Driver/Inc/stm32f4xx_ll_exti.h ****   * @}
 619:Drivers/STM32F4xx_HAL_Driver/Inc/stm32f4xx_ll_exti.h ****   */
 620:Drivers/STM32F4xx_HAL_Driver/Inc/stm32f4xx_ll_exti.h **** 
 621:Drivers/STM32F4xx_HAL_Driver/Inc/stm32f4xx_ll_exti.h **** /** @defgroup EXTI_LL_EF_Falling_Trigger_Management Falling_Trigger_Management
ARM GAS  C:\Users\zoosman\AppData\Local\Temp\ccgnoQ1j.s 			page 18


 622:Drivers/STM32F4xx_HAL_Driver/Inc/stm32f4xx_ll_exti.h ****   * @{
 623:Drivers/STM32F4xx_HAL_Driver/Inc/stm32f4xx_ll_exti.h ****   */
 624:Drivers/STM32F4xx_HAL_Driver/Inc/stm32f4xx_ll_exti.h **** 
 625:Drivers/STM32F4xx_HAL_Driver/Inc/stm32f4xx_ll_exti.h **** /**
 626:Drivers/STM32F4xx_HAL_Driver/Inc/stm32f4xx_ll_exti.h ****   * @brief  Enable ExtiLine Falling Edge Trigger for Lines in range 0 to 31
 627:Drivers/STM32F4xx_HAL_Driver/Inc/stm32f4xx_ll_exti.h ****   * @note The configurable wakeup lines are edge-triggered. No glitch must be
 628:Drivers/STM32F4xx_HAL_Driver/Inc/stm32f4xx_ll_exti.h ****   *       generated on these lines. If a falling edge on a configurable interrupt
 629:Drivers/STM32F4xx_HAL_Driver/Inc/stm32f4xx_ll_exti.h ****   *       line occurs during a write operation in the EXTI_FTSR register, the
 630:Drivers/STM32F4xx_HAL_Driver/Inc/stm32f4xx_ll_exti.h ****   *       pending bit is not set.
 631:Drivers/STM32F4xx_HAL_Driver/Inc/stm32f4xx_ll_exti.h ****   *       Rising and falling edge triggers can be set for
 632:Drivers/STM32F4xx_HAL_Driver/Inc/stm32f4xx_ll_exti.h ****   *       the same interrupt line. In this case, both generate a trigger
 633:Drivers/STM32F4xx_HAL_Driver/Inc/stm32f4xx_ll_exti.h ****   *       condition.
 634:Drivers/STM32F4xx_HAL_Driver/Inc/stm32f4xx_ll_exti.h ****   * @rmtoll FTSR        FTx           LL_EXTI_EnableFallingTrig_0_31
 635:Drivers/STM32F4xx_HAL_Driver/Inc/stm32f4xx_ll_exti.h ****   * @param  ExtiLine This parameter can be a combination of the following values:
 636:Drivers/STM32F4xx_HAL_Driver/Inc/stm32f4xx_ll_exti.h ****   *         @arg @ref LL_EXTI_LINE_0
 637:Drivers/STM32F4xx_HAL_Driver/Inc/stm32f4xx_ll_exti.h ****   *         @arg @ref LL_EXTI_LINE_1
 638:Drivers/STM32F4xx_HAL_Driver/Inc/stm32f4xx_ll_exti.h ****   *         @arg @ref LL_EXTI_LINE_2
 639:Drivers/STM32F4xx_HAL_Driver/Inc/stm32f4xx_ll_exti.h ****   *         @arg @ref LL_EXTI_LINE_3
 640:Drivers/STM32F4xx_HAL_Driver/Inc/stm32f4xx_ll_exti.h ****   *         @arg @ref LL_EXTI_LINE_4
 641:Drivers/STM32F4xx_HAL_Driver/Inc/stm32f4xx_ll_exti.h ****   *         @arg @ref LL_EXTI_LINE_5
 642:Drivers/STM32F4xx_HAL_Driver/Inc/stm32f4xx_ll_exti.h ****   *         @arg @ref LL_EXTI_LINE_6
 643:Drivers/STM32F4xx_HAL_Driver/Inc/stm32f4xx_ll_exti.h ****   *         @arg @ref LL_EXTI_LINE_7
 644:Drivers/STM32F4xx_HAL_Driver/Inc/stm32f4xx_ll_exti.h ****   *         @arg @ref LL_EXTI_LINE_8
 645:Drivers/STM32F4xx_HAL_Driver/Inc/stm32f4xx_ll_exti.h ****   *         @arg @ref LL_EXTI_LINE_9
 646:Drivers/STM32F4xx_HAL_Driver/Inc/stm32f4xx_ll_exti.h ****   *         @arg @ref LL_EXTI_LINE_10
 647:Drivers/STM32F4xx_HAL_Driver/Inc/stm32f4xx_ll_exti.h ****   *         @arg @ref LL_EXTI_LINE_11
 648:Drivers/STM32F4xx_HAL_Driver/Inc/stm32f4xx_ll_exti.h ****   *         @arg @ref LL_EXTI_LINE_12
 649:Drivers/STM32F4xx_HAL_Driver/Inc/stm32f4xx_ll_exti.h ****   *         @arg @ref LL_EXTI_LINE_13
 650:Drivers/STM32F4xx_HAL_Driver/Inc/stm32f4xx_ll_exti.h ****   *         @arg @ref LL_EXTI_LINE_14
 651:Drivers/STM32F4xx_HAL_Driver/Inc/stm32f4xx_ll_exti.h ****   *         @arg @ref LL_EXTI_LINE_15
 652:Drivers/STM32F4xx_HAL_Driver/Inc/stm32f4xx_ll_exti.h ****   *         @arg @ref LL_EXTI_LINE_16
 653:Drivers/STM32F4xx_HAL_Driver/Inc/stm32f4xx_ll_exti.h ****   *         @arg @ref LL_EXTI_LINE_18
 654:Drivers/STM32F4xx_HAL_Driver/Inc/stm32f4xx_ll_exti.h ****   *         @arg @ref LL_EXTI_LINE_19(*)
 655:Drivers/STM32F4xx_HAL_Driver/Inc/stm32f4xx_ll_exti.h ****   *         @arg @ref LL_EXTI_LINE_20(*)
 656:Drivers/STM32F4xx_HAL_Driver/Inc/stm32f4xx_ll_exti.h ****   *         @arg @ref LL_EXTI_LINE_21
 657:Drivers/STM32F4xx_HAL_Driver/Inc/stm32f4xx_ll_exti.h ****   *         @arg @ref LL_EXTI_LINE_22
 658:Drivers/STM32F4xx_HAL_Driver/Inc/stm32f4xx_ll_exti.h ****   * @note   (*): Available in some devices
 659:Drivers/STM32F4xx_HAL_Driver/Inc/stm32f4xx_ll_exti.h ****   * @note   Please check each device line mapping for EXTI Line availability
 660:Drivers/STM32F4xx_HAL_Driver/Inc/stm32f4xx_ll_exti.h ****   * @retval None
 661:Drivers/STM32F4xx_HAL_Driver/Inc/stm32f4xx_ll_exti.h ****   */
 662:Drivers/STM32F4xx_HAL_Driver/Inc/stm32f4xx_ll_exti.h **** __STATIC_INLINE void LL_EXTI_EnableFallingTrig_0_31(uint32_t ExtiLine)
 663:Drivers/STM32F4xx_HAL_Driver/Inc/stm32f4xx_ll_exti.h **** {
 664:Drivers/STM32F4xx_HAL_Driver/Inc/stm32f4xx_ll_exti.h ****   SET_BIT(EXTI->FTSR, ExtiLine);
 665:Drivers/STM32F4xx_HAL_Driver/Inc/stm32f4xx_ll_exti.h **** }
 666:Drivers/STM32F4xx_HAL_Driver/Inc/stm32f4xx_ll_exti.h **** 
 667:Drivers/STM32F4xx_HAL_Driver/Inc/stm32f4xx_ll_exti.h **** 
 668:Drivers/STM32F4xx_HAL_Driver/Inc/stm32f4xx_ll_exti.h **** /**
 669:Drivers/STM32F4xx_HAL_Driver/Inc/stm32f4xx_ll_exti.h ****   * @brief  Disable ExtiLine Falling Edge Trigger for Lines in range 0 to 31
 670:Drivers/STM32F4xx_HAL_Driver/Inc/stm32f4xx_ll_exti.h ****   * @note The configurable wakeup lines are edge-triggered. No glitch must be
 671:Drivers/STM32F4xx_HAL_Driver/Inc/stm32f4xx_ll_exti.h ****   *       generated on these lines. If a Falling edge on a configurable interrupt
 672:Drivers/STM32F4xx_HAL_Driver/Inc/stm32f4xx_ll_exti.h ****   *       line occurs during a write operation in the EXTI_FTSR register, the
 673:Drivers/STM32F4xx_HAL_Driver/Inc/stm32f4xx_ll_exti.h ****   *       pending bit is not set.
 674:Drivers/STM32F4xx_HAL_Driver/Inc/stm32f4xx_ll_exti.h ****   *       Rising and falling edge triggers can be set for the same interrupt line.
 675:Drivers/STM32F4xx_HAL_Driver/Inc/stm32f4xx_ll_exti.h ****   *       In this case, both generate a trigger condition.
 676:Drivers/STM32F4xx_HAL_Driver/Inc/stm32f4xx_ll_exti.h ****   * @rmtoll FTSR        FTx           LL_EXTI_DisableFallingTrig_0_31
 677:Drivers/STM32F4xx_HAL_Driver/Inc/stm32f4xx_ll_exti.h ****   * @param  ExtiLine This parameter can be a combination of the following values:
 678:Drivers/STM32F4xx_HAL_Driver/Inc/stm32f4xx_ll_exti.h ****   *         @arg @ref LL_EXTI_LINE_0
ARM GAS  C:\Users\zoosman\AppData\Local\Temp\ccgnoQ1j.s 			page 19


 679:Drivers/STM32F4xx_HAL_Driver/Inc/stm32f4xx_ll_exti.h ****   *         @arg @ref LL_EXTI_LINE_1
 680:Drivers/STM32F4xx_HAL_Driver/Inc/stm32f4xx_ll_exti.h ****   *         @arg @ref LL_EXTI_LINE_2
 681:Drivers/STM32F4xx_HAL_Driver/Inc/stm32f4xx_ll_exti.h ****   *         @arg @ref LL_EXTI_LINE_3
 682:Drivers/STM32F4xx_HAL_Driver/Inc/stm32f4xx_ll_exti.h ****   *         @arg @ref LL_EXTI_LINE_4
 683:Drivers/STM32F4xx_HAL_Driver/Inc/stm32f4xx_ll_exti.h ****   *         @arg @ref LL_EXTI_LINE_5
 684:Drivers/STM32F4xx_HAL_Driver/Inc/stm32f4xx_ll_exti.h ****   *         @arg @ref LL_EXTI_LINE_6
 685:Drivers/STM32F4xx_HAL_Driver/Inc/stm32f4xx_ll_exti.h ****   *         @arg @ref LL_EXTI_LINE_7
 686:Drivers/STM32F4xx_HAL_Driver/Inc/stm32f4xx_ll_exti.h ****   *         @arg @ref LL_EXTI_LINE_8
 687:Drivers/STM32F4xx_HAL_Driver/Inc/stm32f4xx_ll_exti.h ****   *         @arg @ref LL_EXTI_LINE_9
 688:Drivers/STM32F4xx_HAL_Driver/Inc/stm32f4xx_ll_exti.h ****   *         @arg @ref LL_EXTI_LINE_10
 689:Drivers/STM32F4xx_HAL_Driver/Inc/stm32f4xx_ll_exti.h ****   *         @arg @ref LL_EXTI_LINE_11
 690:Drivers/STM32F4xx_HAL_Driver/Inc/stm32f4xx_ll_exti.h ****   *         @arg @ref LL_EXTI_LINE_12
 691:Drivers/STM32F4xx_HAL_Driver/Inc/stm32f4xx_ll_exti.h ****   *         @arg @ref LL_EXTI_LINE_13
 692:Drivers/STM32F4xx_HAL_Driver/Inc/stm32f4xx_ll_exti.h ****   *         @arg @ref LL_EXTI_LINE_14
 693:Drivers/STM32F4xx_HAL_Driver/Inc/stm32f4xx_ll_exti.h ****   *         @arg @ref LL_EXTI_LINE_15
 694:Drivers/STM32F4xx_HAL_Driver/Inc/stm32f4xx_ll_exti.h ****   *         @arg @ref LL_EXTI_LINE_16
 695:Drivers/STM32F4xx_HAL_Driver/Inc/stm32f4xx_ll_exti.h ****   *         @arg @ref LL_EXTI_LINE_18
 696:Drivers/STM32F4xx_HAL_Driver/Inc/stm32f4xx_ll_exti.h ****   *         @arg @ref LL_EXTI_LINE_19(*)
 697:Drivers/STM32F4xx_HAL_Driver/Inc/stm32f4xx_ll_exti.h ****   *         @arg @ref LL_EXTI_LINE_20(*)
 698:Drivers/STM32F4xx_HAL_Driver/Inc/stm32f4xx_ll_exti.h ****   *         @arg @ref LL_EXTI_LINE_21
 699:Drivers/STM32F4xx_HAL_Driver/Inc/stm32f4xx_ll_exti.h ****   *         @arg @ref LL_EXTI_LINE_22
 700:Drivers/STM32F4xx_HAL_Driver/Inc/stm32f4xx_ll_exti.h ****   * @note   (*): Available in some devices
 701:Drivers/STM32F4xx_HAL_Driver/Inc/stm32f4xx_ll_exti.h ****   * @note   Please check each device line mapping for EXTI Line availability
 702:Drivers/STM32F4xx_HAL_Driver/Inc/stm32f4xx_ll_exti.h ****   * @retval None
 703:Drivers/STM32F4xx_HAL_Driver/Inc/stm32f4xx_ll_exti.h ****   */
 704:Drivers/STM32F4xx_HAL_Driver/Inc/stm32f4xx_ll_exti.h **** __STATIC_INLINE void LL_EXTI_DisableFallingTrig_0_31(uint32_t ExtiLine)
 705:Drivers/STM32F4xx_HAL_Driver/Inc/stm32f4xx_ll_exti.h **** {
 706:Drivers/STM32F4xx_HAL_Driver/Inc/stm32f4xx_ll_exti.h ****   CLEAR_BIT(EXTI->FTSR, ExtiLine);
 707:Drivers/STM32F4xx_HAL_Driver/Inc/stm32f4xx_ll_exti.h **** }
 708:Drivers/STM32F4xx_HAL_Driver/Inc/stm32f4xx_ll_exti.h **** 
 709:Drivers/STM32F4xx_HAL_Driver/Inc/stm32f4xx_ll_exti.h **** 
 710:Drivers/STM32F4xx_HAL_Driver/Inc/stm32f4xx_ll_exti.h **** /**
 711:Drivers/STM32F4xx_HAL_Driver/Inc/stm32f4xx_ll_exti.h ****   * @brief  Check if falling edge trigger is enabled for Lines in range 0 to 31
 712:Drivers/STM32F4xx_HAL_Driver/Inc/stm32f4xx_ll_exti.h ****   * @rmtoll FTSR        FTx           LL_EXTI_IsEnabledFallingTrig_0_31
 713:Drivers/STM32F4xx_HAL_Driver/Inc/stm32f4xx_ll_exti.h ****   * @param  ExtiLine This parameter can be a combination of the following values:
 714:Drivers/STM32F4xx_HAL_Driver/Inc/stm32f4xx_ll_exti.h ****   *         @arg @ref LL_EXTI_LINE_0
 715:Drivers/STM32F4xx_HAL_Driver/Inc/stm32f4xx_ll_exti.h ****   *         @arg @ref LL_EXTI_LINE_1
 716:Drivers/STM32F4xx_HAL_Driver/Inc/stm32f4xx_ll_exti.h ****   *         @arg @ref LL_EXTI_LINE_2
 717:Drivers/STM32F4xx_HAL_Driver/Inc/stm32f4xx_ll_exti.h ****   *         @arg @ref LL_EXTI_LINE_3
 718:Drivers/STM32F4xx_HAL_Driver/Inc/stm32f4xx_ll_exti.h ****   *         @arg @ref LL_EXTI_LINE_4
 719:Drivers/STM32F4xx_HAL_Driver/Inc/stm32f4xx_ll_exti.h ****   *         @arg @ref LL_EXTI_LINE_5
 720:Drivers/STM32F4xx_HAL_Driver/Inc/stm32f4xx_ll_exti.h ****   *         @arg @ref LL_EXTI_LINE_6
 721:Drivers/STM32F4xx_HAL_Driver/Inc/stm32f4xx_ll_exti.h ****   *         @arg @ref LL_EXTI_LINE_7
 722:Drivers/STM32F4xx_HAL_Driver/Inc/stm32f4xx_ll_exti.h ****   *         @arg @ref LL_EXTI_LINE_8
 723:Drivers/STM32F4xx_HAL_Driver/Inc/stm32f4xx_ll_exti.h ****   *         @arg @ref LL_EXTI_LINE_9
 724:Drivers/STM32F4xx_HAL_Driver/Inc/stm32f4xx_ll_exti.h ****   *         @arg @ref LL_EXTI_LINE_10
 725:Drivers/STM32F4xx_HAL_Driver/Inc/stm32f4xx_ll_exti.h ****   *         @arg @ref LL_EXTI_LINE_11
 726:Drivers/STM32F4xx_HAL_Driver/Inc/stm32f4xx_ll_exti.h ****   *         @arg @ref LL_EXTI_LINE_12
 727:Drivers/STM32F4xx_HAL_Driver/Inc/stm32f4xx_ll_exti.h ****   *         @arg @ref LL_EXTI_LINE_13
 728:Drivers/STM32F4xx_HAL_Driver/Inc/stm32f4xx_ll_exti.h ****   *         @arg @ref LL_EXTI_LINE_14
 729:Drivers/STM32F4xx_HAL_Driver/Inc/stm32f4xx_ll_exti.h ****   *         @arg @ref LL_EXTI_LINE_15
 730:Drivers/STM32F4xx_HAL_Driver/Inc/stm32f4xx_ll_exti.h ****   *         @arg @ref LL_EXTI_LINE_16
 731:Drivers/STM32F4xx_HAL_Driver/Inc/stm32f4xx_ll_exti.h ****   *         @arg @ref LL_EXTI_LINE_18
 732:Drivers/STM32F4xx_HAL_Driver/Inc/stm32f4xx_ll_exti.h ****   *         @arg @ref LL_EXTI_LINE_19(*)
 733:Drivers/STM32F4xx_HAL_Driver/Inc/stm32f4xx_ll_exti.h ****   *         @arg @ref LL_EXTI_LINE_20(*)
 734:Drivers/STM32F4xx_HAL_Driver/Inc/stm32f4xx_ll_exti.h ****   *         @arg @ref LL_EXTI_LINE_21
 735:Drivers/STM32F4xx_HAL_Driver/Inc/stm32f4xx_ll_exti.h ****   *         @arg @ref LL_EXTI_LINE_22
ARM GAS  C:\Users\zoosman\AppData\Local\Temp\ccgnoQ1j.s 			page 20


 736:Drivers/STM32F4xx_HAL_Driver/Inc/stm32f4xx_ll_exti.h ****   * @note   (*): Available in some devices
 737:Drivers/STM32F4xx_HAL_Driver/Inc/stm32f4xx_ll_exti.h ****   * @note   Please check each device line mapping for EXTI Line availability
 738:Drivers/STM32F4xx_HAL_Driver/Inc/stm32f4xx_ll_exti.h ****   * @retval State of bit (1 or 0).
 739:Drivers/STM32F4xx_HAL_Driver/Inc/stm32f4xx_ll_exti.h ****   */
 740:Drivers/STM32F4xx_HAL_Driver/Inc/stm32f4xx_ll_exti.h **** __STATIC_INLINE uint32_t LL_EXTI_IsEnabledFallingTrig_0_31(uint32_t ExtiLine)
 741:Drivers/STM32F4xx_HAL_Driver/Inc/stm32f4xx_ll_exti.h **** {
 742:Drivers/STM32F4xx_HAL_Driver/Inc/stm32f4xx_ll_exti.h ****   return (READ_BIT(EXTI->FTSR, ExtiLine) == (ExtiLine));
 743:Drivers/STM32F4xx_HAL_Driver/Inc/stm32f4xx_ll_exti.h **** }
 744:Drivers/STM32F4xx_HAL_Driver/Inc/stm32f4xx_ll_exti.h **** 
 745:Drivers/STM32F4xx_HAL_Driver/Inc/stm32f4xx_ll_exti.h **** 
 746:Drivers/STM32F4xx_HAL_Driver/Inc/stm32f4xx_ll_exti.h **** /**
 747:Drivers/STM32F4xx_HAL_Driver/Inc/stm32f4xx_ll_exti.h ****   * @}
 748:Drivers/STM32F4xx_HAL_Driver/Inc/stm32f4xx_ll_exti.h ****   */
 749:Drivers/STM32F4xx_HAL_Driver/Inc/stm32f4xx_ll_exti.h **** 
 750:Drivers/STM32F4xx_HAL_Driver/Inc/stm32f4xx_ll_exti.h **** /** @defgroup EXTI_LL_EF_Software_Interrupt_Management Software_Interrupt_Management
 751:Drivers/STM32F4xx_HAL_Driver/Inc/stm32f4xx_ll_exti.h ****   * @{
 752:Drivers/STM32F4xx_HAL_Driver/Inc/stm32f4xx_ll_exti.h ****   */
 753:Drivers/STM32F4xx_HAL_Driver/Inc/stm32f4xx_ll_exti.h **** 
 754:Drivers/STM32F4xx_HAL_Driver/Inc/stm32f4xx_ll_exti.h **** /**
 755:Drivers/STM32F4xx_HAL_Driver/Inc/stm32f4xx_ll_exti.h ****   * @brief  Generate a software Interrupt Event for Lines in range 0 to 31
 756:Drivers/STM32F4xx_HAL_Driver/Inc/stm32f4xx_ll_exti.h ****   * @note If the interrupt is enabled on this line in the EXTI_IMR, writing a 1 to
 757:Drivers/STM32F4xx_HAL_Driver/Inc/stm32f4xx_ll_exti.h ****   *       this bit when it is at '0' sets the corresponding pending bit in EXTI_PR
 758:Drivers/STM32F4xx_HAL_Driver/Inc/stm32f4xx_ll_exti.h ****   *       resulting in an interrupt request generation.
 759:Drivers/STM32F4xx_HAL_Driver/Inc/stm32f4xx_ll_exti.h ****   *       This bit is cleared by clearing the corresponding bit in the EXTI_PR
 760:Drivers/STM32F4xx_HAL_Driver/Inc/stm32f4xx_ll_exti.h ****   *       register (by writing a 1 into the bit)
 761:Drivers/STM32F4xx_HAL_Driver/Inc/stm32f4xx_ll_exti.h ****   * @rmtoll SWIER       SWIx          LL_EXTI_GenerateSWI_0_31
 762:Drivers/STM32F4xx_HAL_Driver/Inc/stm32f4xx_ll_exti.h ****   * @param  ExtiLine This parameter can be a combination of the following values:
 763:Drivers/STM32F4xx_HAL_Driver/Inc/stm32f4xx_ll_exti.h ****   *         @arg @ref LL_EXTI_LINE_0
 764:Drivers/STM32F4xx_HAL_Driver/Inc/stm32f4xx_ll_exti.h ****   *         @arg @ref LL_EXTI_LINE_1
 765:Drivers/STM32F4xx_HAL_Driver/Inc/stm32f4xx_ll_exti.h ****   *         @arg @ref LL_EXTI_LINE_2
 766:Drivers/STM32F4xx_HAL_Driver/Inc/stm32f4xx_ll_exti.h ****   *         @arg @ref LL_EXTI_LINE_3
 767:Drivers/STM32F4xx_HAL_Driver/Inc/stm32f4xx_ll_exti.h ****   *         @arg @ref LL_EXTI_LINE_4
 768:Drivers/STM32F4xx_HAL_Driver/Inc/stm32f4xx_ll_exti.h ****   *         @arg @ref LL_EXTI_LINE_5
 769:Drivers/STM32F4xx_HAL_Driver/Inc/stm32f4xx_ll_exti.h ****   *         @arg @ref LL_EXTI_LINE_6
 770:Drivers/STM32F4xx_HAL_Driver/Inc/stm32f4xx_ll_exti.h ****   *         @arg @ref LL_EXTI_LINE_7
 771:Drivers/STM32F4xx_HAL_Driver/Inc/stm32f4xx_ll_exti.h ****   *         @arg @ref LL_EXTI_LINE_8
 772:Drivers/STM32F4xx_HAL_Driver/Inc/stm32f4xx_ll_exti.h ****   *         @arg @ref LL_EXTI_LINE_9
 773:Drivers/STM32F4xx_HAL_Driver/Inc/stm32f4xx_ll_exti.h ****   *         @arg @ref LL_EXTI_LINE_10
 774:Drivers/STM32F4xx_HAL_Driver/Inc/stm32f4xx_ll_exti.h ****   *         @arg @ref LL_EXTI_LINE_11
 775:Drivers/STM32F4xx_HAL_Driver/Inc/stm32f4xx_ll_exti.h ****   *         @arg @ref LL_EXTI_LINE_12
 776:Drivers/STM32F4xx_HAL_Driver/Inc/stm32f4xx_ll_exti.h ****   *         @arg @ref LL_EXTI_LINE_13
 777:Drivers/STM32F4xx_HAL_Driver/Inc/stm32f4xx_ll_exti.h ****   *         @arg @ref LL_EXTI_LINE_14
 778:Drivers/STM32F4xx_HAL_Driver/Inc/stm32f4xx_ll_exti.h ****   *         @arg @ref LL_EXTI_LINE_15
 779:Drivers/STM32F4xx_HAL_Driver/Inc/stm32f4xx_ll_exti.h ****   *         @arg @ref LL_EXTI_LINE_16
 780:Drivers/STM32F4xx_HAL_Driver/Inc/stm32f4xx_ll_exti.h ****   *         @arg @ref LL_EXTI_LINE_18
 781:Drivers/STM32F4xx_HAL_Driver/Inc/stm32f4xx_ll_exti.h ****   *         @arg @ref LL_EXTI_LINE_19(*)
 782:Drivers/STM32F4xx_HAL_Driver/Inc/stm32f4xx_ll_exti.h ****   *         @arg @ref LL_EXTI_LINE_20(*)
 783:Drivers/STM32F4xx_HAL_Driver/Inc/stm32f4xx_ll_exti.h ****   *         @arg @ref LL_EXTI_LINE_21
 784:Drivers/STM32F4xx_HAL_Driver/Inc/stm32f4xx_ll_exti.h ****   *         @arg @ref LL_EXTI_LINE_22
 785:Drivers/STM32F4xx_HAL_Driver/Inc/stm32f4xx_ll_exti.h ****   * @note   (*): Available in some devices
 786:Drivers/STM32F4xx_HAL_Driver/Inc/stm32f4xx_ll_exti.h ****   * @note   Please check each device line mapping for EXTI Line availability
 787:Drivers/STM32F4xx_HAL_Driver/Inc/stm32f4xx_ll_exti.h ****   * @retval None
 788:Drivers/STM32F4xx_HAL_Driver/Inc/stm32f4xx_ll_exti.h ****   */
 789:Drivers/STM32F4xx_HAL_Driver/Inc/stm32f4xx_ll_exti.h **** __STATIC_INLINE void LL_EXTI_GenerateSWI_0_31(uint32_t ExtiLine)
 790:Drivers/STM32F4xx_HAL_Driver/Inc/stm32f4xx_ll_exti.h **** {
 791:Drivers/STM32F4xx_HAL_Driver/Inc/stm32f4xx_ll_exti.h ****   SET_BIT(EXTI->SWIER, ExtiLine);
 792:Drivers/STM32F4xx_HAL_Driver/Inc/stm32f4xx_ll_exti.h **** }
ARM GAS  C:\Users\zoosman\AppData\Local\Temp\ccgnoQ1j.s 			page 21


 793:Drivers/STM32F4xx_HAL_Driver/Inc/stm32f4xx_ll_exti.h **** 
 794:Drivers/STM32F4xx_HAL_Driver/Inc/stm32f4xx_ll_exti.h **** 
 795:Drivers/STM32F4xx_HAL_Driver/Inc/stm32f4xx_ll_exti.h **** /**
 796:Drivers/STM32F4xx_HAL_Driver/Inc/stm32f4xx_ll_exti.h ****   * @}
 797:Drivers/STM32F4xx_HAL_Driver/Inc/stm32f4xx_ll_exti.h ****   */
 798:Drivers/STM32F4xx_HAL_Driver/Inc/stm32f4xx_ll_exti.h **** 
 799:Drivers/STM32F4xx_HAL_Driver/Inc/stm32f4xx_ll_exti.h **** /** @defgroup EXTI_LL_EF_Flag_Management Flag_Management
 800:Drivers/STM32F4xx_HAL_Driver/Inc/stm32f4xx_ll_exti.h ****   * @{
 801:Drivers/STM32F4xx_HAL_Driver/Inc/stm32f4xx_ll_exti.h ****   */
 802:Drivers/STM32F4xx_HAL_Driver/Inc/stm32f4xx_ll_exti.h **** 
 803:Drivers/STM32F4xx_HAL_Driver/Inc/stm32f4xx_ll_exti.h **** /**
 804:Drivers/STM32F4xx_HAL_Driver/Inc/stm32f4xx_ll_exti.h ****   * @brief  Check if the ExtLine Flag is set or not for Lines in range 0 to 31
 805:Drivers/STM32F4xx_HAL_Driver/Inc/stm32f4xx_ll_exti.h ****   * @note This bit is set when the selected edge event arrives on the interrupt
 806:Drivers/STM32F4xx_HAL_Driver/Inc/stm32f4xx_ll_exti.h ****   *       line. This bit is cleared by writing a 1 to the bit.
 807:Drivers/STM32F4xx_HAL_Driver/Inc/stm32f4xx_ll_exti.h ****   * @rmtoll PR          PIFx           LL_EXTI_IsActiveFlag_0_31
 808:Drivers/STM32F4xx_HAL_Driver/Inc/stm32f4xx_ll_exti.h ****   * @param  ExtiLine This parameter can be a combination of the following values:
 809:Drivers/STM32F4xx_HAL_Driver/Inc/stm32f4xx_ll_exti.h ****   *         @arg @ref LL_EXTI_LINE_0
 810:Drivers/STM32F4xx_HAL_Driver/Inc/stm32f4xx_ll_exti.h ****   *         @arg @ref LL_EXTI_LINE_1
 811:Drivers/STM32F4xx_HAL_Driver/Inc/stm32f4xx_ll_exti.h ****   *         @arg @ref LL_EXTI_LINE_2
 812:Drivers/STM32F4xx_HAL_Driver/Inc/stm32f4xx_ll_exti.h ****   *         @arg @ref LL_EXTI_LINE_3
 813:Drivers/STM32F4xx_HAL_Driver/Inc/stm32f4xx_ll_exti.h ****   *         @arg @ref LL_EXTI_LINE_4
 814:Drivers/STM32F4xx_HAL_Driver/Inc/stm32f4xx_ll_exti.h ****   *         @arg @ref LL_EXTI_LINE_5
 815:Drivers/STM32F4xx_HAL_Driver/Inc/stm32f4xx_ll_exti.h ****   *         @arg @ref LL_EXTI_LINE_6
 816:Drivers/STM32F4xx_HAL_Driver/Inc/stm32f4xx_ll_exti.h ****   *         @arg @ref LL_EXTI_LINE_7
 817:Drivers/STM32F4xx_HAL_Driver/Inc/stm32f4xx_ll_exti.h ****   *         @arg @ref LL_EXTI_LINE_8
 818:Drivers/STM32F4xx_HAL_Driver/Inc/stm32f4xx_ll_exti.h ****   *         @arg @ref LL_EXTI_LINE_9
 819:Drivers/STM32F4xx_HAL_Driver/Inc/stm32f4xx_ll_exti.h ****   *         @arg @ref LL_EXTI_LINE_10
 820:Drivers/STM32F4xx_HAL_Driver/Inc/stm32f4xx_ll_exti.h ****   *         @arg @ref LL_EXTI_LINE_11
 821:Drivers/STM32F4xx_HAL_Driver/Inc/stm32f4xx_ll_exti.h ****   *         @arg @ref LL_EXTI_LINE_12
 822:Drivers/STM32F4xx_HAL_Driver/Inc/stm32f4xx_ll_exti.h ****   *         @arg @ref LL_EXTI_LINE_13
 823:Drivers/STM32F4xx_HAL_Driver/Inc/stm32f4xx_ll_exti.h ****   *         @arg @ref LL_EXTI_LINE_14
 824:Drivers/STM32F4xx_HAL_Driver/Inc/stm32f4xx_ll_exti.h ****   *         @arg @ref LL_EXTI_LINE_15
 825:Drivers/STM32F4xx_HAL_Driver/Inc/stm32f4xx_ll_exti.h ****   *         @arg @ref LL_EXTI_LINE_16
 826:Drivers/STM32F4xx_HAL_Driver/Inc/stm32f4xx_ll_exti.h ****   *         @arg @ref LL_EXTI_LINE_18
 827:Drivers/STM32F4xx_HAL_Driver/Inc/stm32f4xx_ll_exti.h ****   *         @arg @ref LL_EXTI_LINE_19(*)
 828:Drivers/STM32F4xx_HAL_Driver/Inc/stm32f4xx_ll_exti.h ****   *         @arg @ref LL_EXTI_LINE_20(*)
 829:Drivers/STM32F4xx_HAL_Driver/Inc/stm32f4xx_ll_exti.h ****   *         @arg @ref LL_EXTI_LINE_21
 830:Drivers/STM32F4xx_HAL_Driver/Inc/stm32f4xx_ll_exti.h ****   *         @arg @ref LL_EXTI_LINE_22
 831:Drivers/STM32F4xx_HAL_Driver/Inc/stm32f4xx_ll_exti.h ****   * @note   (*): Available in some devices
 832:Drivers/STM32F4xx_HAL_Driver/Inc/stm32f4xx_ll_exti.h ****   * @note   Please check each device line mapping for EXTI Line availability
 833:Drivers/STM32F4xx_HAL_Driver/Inc/stm32f4xx_ll_exti.h ****   * @retval State of bit (1 or 0).
 834:Drivers/STM32F4xx_HAL_Driver/Inc/stm32f4xx_ll_exti.h ****   */
 835:Drivers/STM32F4xx_HAL_Driver/Inc/stm32f4xx_ll_exti.h **** __STATIC_INLINE uint32_t LL_EXTI_IsActiveFlag_0_31(uint32_t ExtiLine)
 836:Drivers/STM32F4xx_HAL_Driver/Inc/stm32f4xx_ll_exti.h **** {
 837:Drivers/STM32F4xx_HAL_Driver/Inc/stm32f4xx_ll_exti.h ****   return (READ_BIT(EXTI->PR, ExtiLine) == (ExtiLine));
 838:Drivers/STM32F4xx_HAL_Driver/Inc/stm32f4xx_ll_exti.h **** }
 839:Drivers/STM32F4xx_HAL_Driver/Inc/stm32f4xx_ll_exti.h **** 
 840:Drivers/STM32F4xx_HAL_Driver/Inc/stm32f4xx_ll_exti.h **** 
 841:Drivers/STM32F4xx_HAL_Driver/Inc/stm32f4xx_ll_exti.h **** /**
 842:Drivers/STM32F4xx_HAL_Driver/Inc/stm32f4xx_ll_exti.h ****   * @brief  Read ExtLine Combination Flag for Lines in range 0 to 31
 843:Drivers/STM32F4xx_HAL_Driver/Inc/stm32f4xx_ll_exti.h ****   * @note This bit is set when the selected edge event arrives on the interrupt
 844:Drivers/STM32F4xx_HAL_Driver/Inc/stm32f4xx_ll_exti.h ****   *       line. This bit is cleared by writing a 1 to the bit.
 845:Drivers/STM32F4xx_HAL_Driver/Inc/stm32f4xx_ll_exti.h ****   * @rmtoll PR          PIFx           LL_EXTI_ReadFlag_0_31
 846:Drivers/STM32F4xx_HAL_Driver/Inc/stm32f4xx_ll_exti.h ****   * @param  ExtiLine This parameter can be a combination of the following values:
 847:Drivers/STM32F4xx_HAL_Driver/Inc/stm32f4xx_ll_exti.h ****   *         @arg @ref LL_EXTI_LINE_0
 848:Drivers/STM32F4xx_HAL_Driver/Inc/stm32f4xx_ll_exti.h ****   *         @arg @ref LL_EXTI_LINE_1
 849:Drivers/STM32F4xx_HAL_Driver/Inc/stm32f4xx_ll_exti.h ****   *         @arg @ref LL_EXTI_LINE_2
ARM GAS  C:\Users\zoosman\AppData\Local\Temp\ccgnoQ1j.s 			page 22


 850:Drivers/STM32F4xx_HAL_Driver/Inc/stm32f4xx_ll_exti.h ****   *         @arg @ref LL_EXTI_LINE_3
 851:Drivers/STM32F4xx_HAL_Driver/Inc/stm32f4xx_ll_exti.h ****   *         @arg @ref LL_EXTI_LINE_4
 852:Drivers/STM32F4xx_HAL_Driver/Inc/stm32f4xx_ll_exti.h ****   *         @arg @ref LL_EXTI_LINE_5
 853:Drivers/STM32F4xx_HAL_Driver/Inc/stm32f4xx_ll_exti.h ****   *         @arg @ref LL_EXTI_LINE_6
 854:Drivers/STM32F4xx_HAL_Driver/Inc/stm32f4xx_ll_exti.h ****   *         @arg @ref LL_EXTI_LINE_7
 855:Drivers/STM32F4xx_HAL_Driver/Inc/stm32f4xx_ll_exti.h ****   *         @arg @ref LL_EXTI_LINE_8
 856:Drivers/STM32F4xx_HAL_Driver/Inc/stm32f4xx_ll_exti.h ****   *         @arg @ref LL_EXTI_LINE_9
 857:Drivers/STM32F4xx_HAL_Driver/Inc/stm32f4xx_ll_exti.h ****   *         @arg @ref LL_EXTI_LINE_10
 858:Drivers/STM32F4xx_HAL_Driver/Inc/stm32f4xx_ll_exti.h ****   *         @arg @ref LL_EXTI_LINE_11
 859:Drivers/STM32F4xx_HAL_Driver/Inc/stm32f4xx_ll_exti.h ****   *         @arg @ref LL_EXTI_LINE_12
 860:Drivers/STM32F4xx_HAL_Driver/Inc/stm32f4xx_ll_exti.h ****   *         @arg @ref LL_EXTI_LINE_13
 861:Drivers/STM32F4xx_HAL_Driver/Inc/stm32f4xx_ll_exti.h ****   *         @arg @ref LL_EXTI_LINE_14
 862:Drivers/STM32F4xx_HAL_Driver/Inc/stm32f4xx_ll_exti.h ****   *         @arg @ref LL_EXTI_LINE_15
 863:Drivers/STM32F4xx_HAL_Driver/Inc/stm32f4xx_ll_exti.h ****   *         @arg @ref LL_EXTI_LINE_16
 864:Drivers/STM32F4xx_HAL_Driver/Inc/stm32f4xx_ll_exti.h ****   *         @arg @ref LL_EXTI_LINE_18
 865:Drivers/STM32F4xx_HAL_Driver/Inc/stm32f4xx_ll_exti.h ****   *         @arg @ref LL_EXTI_LINE_19(*)
 866:Drivers/STM32F4xx_HAL_Driver/Inc/stm32f4xx_ll_exti.h ****   *         @arg @ref LL_EXTI_LINE_20(*)
 867:Drivers/STM32F4xx_HAL_Driver/Inc/stm32f4xx_ll_exti.h ****   *         @arg @ref LL_EXTI_LINE_21
 868:Drivers/STM32F4xx_HAL_Driver/Inc/stm32f4xx_ll_exti.h ****   *         @arg @ref LL_EXTI_LINE_22
 869:Drivers/STM32F4xx_HAL_Driver/Inc/stm32f4xx_ll_exti.h ****   * @note   (*): Available in some devices
 870:Drivers/STM32F4xx_HAL_Driver/Inc/stm32f4xx_ll_exti.h ****   * @note   Please check each device line mapping for EXTI Line availability
 871:Drivers/STM32F4xx_HAL_Driver/Inc/stm32f4xx_ll_exti.h ****   * @retval @note This bit is set when the selected edge event arrives on the interrupt
 872:Drivers/STM32F4xx_HAL_Driver/Inc/stm32f4xx_ll_exti.h ****   */
 873:Drivers/STM32F4xx_HAL_Driver/Inc/stm32f4xx_ll_exti.h **** __STATIC_INLINE uint32_t LL_EXTI_ReadFlag_0_31(uint32_t ExtiLine)
 874:Drivers/STM32F4xx_HAL_Driver/Inc/stm32f4xx_ll_exti.h **** {
 875:Drivers/STM32F4xx_HAL_Driver/Inc/stm32f4xx_ll_exti.h ****   return (uint32_t)(READ_BIT(EXTI->PR, ExtiLine));
 876:Drivers/STM32F4xx_HAL_Driver/Inc/stm32f4xx_ll_exti.h **** }
 877:Drivers/STM32F4xx_HAL_Driver/Inc/stm32f4xx_ll_exti.h **** 
 878:Drivers/STM32F4xx_HAL_Driver/Inc/stm32f4xx_ll_exti.h **** 
 879:Drivers/STM32F4xx_HAL_Driver/Inc/stm32f4xx_ll_exti.h **** /**
 880:Drivers/STM32F4xx_HAL_Driver/Inc/stm32f4xx_ll_exti.h ****   * @brief  Clear ExtLine Flags  for Lines in range 0 to 31
 881:Drivers/STM32F4xx_HAL_Driver/Inc/stm32f4xx_ll_exti.h ****   * @note This bit is set when the selected edge event arrives on the interrupt
 882:Drivers/STM32F4xx_HAL_Driver/Inc/stm32f4xx_ll_exti.h ****   *       line. This bit is cleared by writing a 1 to the bit.
 883:Drivers/STM32F4xx_HAL_Driver/Inc/stm32f4xx_ll_exti.h ****   * @rmtoll PR          PIFx           LL_EXTI_ClearFlag_0_31
 884:Drivers/STM32F4xx_HAL_Driver/Inc/stm32f4xx_ll_exti.h ****   * @param  ExtiLine This parameter can be a combination of the following values:
 885:Drivers/STM32F4xx_HAL_Driver/Inc/stm32f4xx_ll_exti.h ****   *         @arg @ref LL_EXTI_LINE_0
 886:Drivers/STM32F4xx_HAL_Driver/Inc/stm32f4xx_ll_exti.h ****   *         @arg @ref LL_EXTI_LINE_1
 887:Drivers/STM32F4xx_HAL_Driver/Inc/stm32f4xx_ll_exti.h ****   *         @arg @ref LL_EXTI_LINE_2
 888:Drivers/STM32F4xx_HAL_Driver/Inc/stm32f4xx_ll_exti.h ****   *         @arg @ref LL_EXTI_LINE_3
 889:Drivers/STM32F4xx_HAL_Driver/Inc/stm32f4xx_ll_exti.h ****   *         @arg @ref LL_EXTI_LINE_4
 890:Drivers/STM32F4xx_HAL_Driver/Inc/stm32f4xx_ll_exti.h ****   *         @arg @ref LL_EXTI_LINE_5
 891:Drivers/STM32F4xx_HAL_Driver/Inc/stm32f4xx_ll_exti.h ****   *         @arg @ref LL_EXTI_LINE_6
 892:Drivers/STM32F4xx_HAL_Driver/Inc/stm32f4xx_ll_exti.h ****   *         @arg @ref LL_EXTI_LINE_7
 893:Drivers/STM32F4xx_HAL_Driver/Inc/stm32f4xx_ll_exti.h ****   *         @arg @ref LL_EXTI_LINE_8
 894:Drivers/STM32F4xx_HAL_Driver/Inc/stm32f4xx_ll_exti.h ****   *         @arg @ref LL_EXTI_LINE_9
 895:Drivers/STM32F4xx_HAL_Driver/Inc/stm32f4xx_ll_exti.h ****   *         @arg @ref LL_EXTI_LINE_10
 896:Drivers/STM32F4xx_HAL_Driver/Inc/stm32f4xx_ll_exti.h ****   *         @arg @ref LL_EXTI_LINE_11
 897:Drivers/STM32F4xx_HAL_Driver/Inc/stm32f4xx_ll_exti.h ****   *         @arg @ref LL_EXTI_LINE_12
 898:Drivers/STM32F4xx_HAL_Driver/Inc/stm32f4xx_ll_exti.h ****   *         @arg @ref LL_EXTI_LINE_13
 899:Drivers/STM32F4xx_HAL_Driver/Inc/stm32f4xx_ll_exti.h ****   *         @arg @ref LL_EXTI_LINE_14
 900:Drivers/STM32F4xx_HAL_Driver/Inc/stm32f4xx_ll_exti.h ****   *         @arg @ref LL_EXTI_LINE_15
 901:Drivers/STM32F4xx_HAL_Driver/Inc/stm32f4xx_ll_exti.h ****   *         @arg @ref LL_EXTI_LINE_16
 902:Drivers/STM32F4xx_HAL_Driver/Inc/stm32f4xx_ll_exti.h ****   *         @arg @ref LL_EXTI_LINE_18
 903:Drivers/STM32F4xx_HAL_Driver/Inc/stm32f4xx_ll_exti.h ****   *         @arg @ref LL_EXTI_LINE_19(*)
 904:Drivers/STM32F4xx_HAL_Driver/Inc/stm32f4xx_ll_exti.h ****   *         @arg @ref LL_EXTI_LINE_20(*)
 905:Drivers/STM32F4xx_HAL_Driver/Inc/stm32f4xx_ll_exti.h ****   *         @arg @ref LL_EXTI_LINE_21
 906:Drivers/STM32F4xx_HAL_Driver/Inc/stm32f4xx_ll_exti.h ****   *         @arg @ref LL_EXTI_LINE_22
ARM GAS  C:\Users\zoosman\AppData\Local\Temp\ccgnoQ1j.s 			page 23


 907:Drivers/STM32F4xx_HAL_Driver/Inc/stm32f4xx_ll_exti.h ****   * @note   (*): Available in some devices
 908:Drivers/STM32F4xx_HAL_Driver/Inc/stm32f4xx_ll_exti.h ****   * @note   Please check each device line mapping for EXTI Line availability
 909:Drivers/STM32F4xx_HAL_Driver/Inc/stm32f4xx_ll_exti.h ****   * @retval None
 910:Drivers/STM32F4xx_HAL_Driver/Inc/stm32f4xx_ll_exti.h ****   */
 911:Drivers/STM32F4xx_HAL_Driver/Inc/stm32f4xx_ll_exti.h **** __STATIC_INLINE void LL_EXTI_ClearFlag_0_31(uint32_t ExtiLine)
 256              		.loc 2 911 22 view .LVU20
 257              	.LBB19:
 912:Drivers/STM32F4xx_HAL_Driver/Inc/stm32f4xx_ll_exti.h **** {
 913:Drivers/STM32F4xx_HAL_Driver/Inc/stm32f4xx_ll_exti.h ****   WRITE_REG(EXTI->PR, ExtiLine);
 258              		.loc 2 913 3 view .LVU21
 259 0000 014B     		ldr	r3, .L17
 260 0002 0122     		movs	r2, #1
 261 0004 5A61     		str	r2, [r3, #20]
 262              	.LVL1:
 263              		.loc 2 913 3 is_stmt 0 view .LVU22
 264              	.LBE19:
 265              	.LBE18:
 111:Core/Src/stm32f4xx_it.c **** }
 266              		.loc 1 111 1 view .LVU23
 267 0006 7047     		bx	lr
 268              	.L18:
 269              		.align	2
 270              	.L17:
 271 0008 003C0140 		.word	1073822720
 272              		.cfi_endproc
 273              	.LFE1348:
 275              		.section	.text.USART1_IRQHandler,"ax",%progbits
 276              		.align	1
 277              		.p2align 2,,3
 278              		.global	USART1_IRQHandler
 279              		.syntax unified
 280              		.thumb
 281              		.thumb_func
 282              		.fpu fpv4-sp-d16
 284              	USART1_IRQHandler:
 285              	.LFB1349:
 112:Core/Src/stm32f4xx_it.c **** 
 113:Core/Src/stm32f4xx_it.c **** 
 114:Core/Src/stm32f4xx_it.c **** 
 115:Core/Src/stm32f4xx_it.c **** /**
 116:Core/Src/stm32f4xx_it.c ****   * @brief This function handles USART1 global interrupt.
 117:Core/Src/stm32f4xx_it.c ****   */
 118:Core/Src/stm32f4xx_it.c **** void USART1_IRQHandler(void) {
 286              		.loc 1 118 30 is_stmt 1 view -0
 287              		.cfi_startproc
 288              		@ args = 0, pretend = 0, frame = 0
 289              		@ frame_needed = 0, uses_anonymous_args = 0
 290              		@ link register save eliminated.
 119:Core/Src/stm32f4xx_it.c ****   LL_USART_ClearFlag_RXNE(USART1);
 291              		.loc 1 119 3 view .LVU25
 292              	.LVL2:
 293              	.LBB20:
 294              	.LBI20:
 295              		.file 3 "Drivers/STM32F4xx_HAL_Driver/Inc/stm32f4xx_ll_usart.h"
   1:Drivers/STM32F4xx_HAL_Driver/Inc/stm32f4xx_ll_usart.h **** /**
   2:Drivers/STM32F4xx_HAL_Driver/Inc/stm32f4xx_ll_usart.h ****   ******************************************************************************
   3:Drivers/STM32F4xx_HAL_Driver/Inc/stm32f4xx_ll_usart.h ****   * @file    stm32f4xx_ll_usart.h
ARM GAS  C:\Users\zoosman\AppData\Local\Temp\ccgnoQ1j.s 			page 24


   4:Drivers/STM32F4xx_HAL_Driver/Inc/stm32f4xx_ll_usart.h ****   * @author  MCD Application Team
   5:Drivers/STM32F4xx_HAL_Driver/Inc/stm32f4xx_ll_usart.h ****   * @brief   Header file of USART LL module.
   6:Drivers/STM32F4xx_HAL_Driver/Inc/stm32f4xx_ll_usart.h ****   ******************************************************************************
   7:Drivers/STM32F4xx_HAL_Driver/Inc/stm32f4xx_ll_usart.h ****   * @attention
   8:Drivers/STM32F4xx_HAL_Driver/Inc/stm32f4xx_ll_usart.h ****   *
   9:Drivers/STM32F4xx_HAL_Driver/Inc/stm32f4xx_ll_usart.h ****   * <h2><center>&copy; Copyright (c) 2016 STMicroelectronics.
  10:Drivers/STM32F4xx_HAL_Driver/Inc/stm32f4xx_ll_usart.h ****   * All rights reserved.</center></h2>
  11:Drivers/STM32F4xx_HAL_Driver/Inc/stm32f4xx_ll_usart.h ****   *
  12:Drivers/STM32F4xx_HAL_Driver/Inc/stm32f4xx_ll_usart.h ****   * This software component is licensed by ST under BSD 3-Clause license,
  13:Drivers/STM32F4xx_HAL_Driver/Inc/stm32f4xx_ll_usart.h ****   * the "License"; You may not use this file except in compliance with the
  14:Drivers/STM32F4xx_HAL_Driver/Inc/stm32f4xx_ll_usart.h ****   * License. You may obtain a copy of the License at:
  15:Drivers/STM32F4xx_HAL_Driver/Inc/stm32f4xx_ll_usart.h ****   *                        opensource.org/licenses/BSD-3-Clause
  16:Drivers/STM32F4xx_HAL_Driver/Inc/stm32f4xx_ll_usart.h ****   *
  17:Drivers/STM32F4xx_HAL_Driver/Inc/stm32f4xx_ll_usart.h ****   ******************************************************************************
  18:Drivers/STM32F4xx_HAL_Driver/Inc/stm32f4xx_ll_usart.h ****   */
  19:Drivers/STM32F4xx_HAL_Driver/Inc/stm32f4xx_ll_usart.h **** 
  20:Drivers/STM32F4xx_HAL_Driver/Inc/stm32f4xx_ll_usart.h **** /* Define to prevent recursive inclusion -------------------------------------*/
  21:Drivers/STM32F4xx_HAL_Driver/Inc/stm32f4xx_ll_usart.h **** #ifndef __STM32F4xx_LL_USART_H
  22:Drivers/STM32F4xx_HAL_Driver/Inc/stm32f4xx_ll_usart.h **** #define __STM32F4xx_LL_USART_H
  23:Drivers/STM32F4xx_HAL_Driver/Inc/stm32f4xx_ll_usart.h **** 
  24:Drivers/STM32F4xx_HAL_Driver/Inc/stm32f4xx_ll_usart.h **** #ifdef __cplusplus
  25:Drivers/STM32F4xx_HAL_Driver/Inc/stm32f4xx_ll_usart.h **** extern "C" {
  26:Drivers/STM32F4xx_HAL_Driver/Inc/stm32f4xx_ll_usart.h **** #endif
  27:Drivers/STM32F4xx_HAL_Driver/Inc/stm32f4xx_ll_usart.h **** 
  28:Drivers/STM32F4xx_HAL_Driver/Inc/stm32f4xx_ll_usart.h **** /* Includes ------------------------------------------------------------------*/
  29:Drivers/STM32F4xx_HAL_Driver/Inc/stm32f4xx_ll_usart.h **** #include "stm32f4xx.h"
  30:Drivers/STM32F4xx_HAL_Driver/Inc/stm32f4xx_ll_usart.h **** 
  31:Drivers/STM32F4xx_HAL_Driver/Inc/stm32f4xx_ll_usart.h **** /** @addtogroup STM32F4xx_LL_Driver
  32:Drivers/STM32F4xx_HAL_Driver/Inc/stm32f4xx_ll_usart.h ****   * @{
  33:Drivers/STM32F4xx_HAL_Driver/Inc/stm32f4xx_ll_usart.h ****   */
  34:Drivers/STM32F4xx_HAL_Driver/Inc/stm32f4xx_ll_usart.h **** 
  35:Drivers/STM32F4xx_HAL_Driver/Inc/stm32f4xx_ll_usart.h **** #if defined (USART1) || defined (USART2) || defined (USART3) || defined (USART6) || defined (UART4)
  36:Drivers/STM32F4xx_HAL_Driver/Inc/stm32f4xx_ll_usart.h **** 
  37:Drivers/STM32F4xx_HAL_Driver/Inc/stm32f4xx_ll_usart.h **** /** @defgroup USART_LL USART
  38:Drivers/STM32F4xx_HAL_Driver/Inc/stm32f4xx_ll_usart.h ****   * @{
  39:Drivers/STM32F4xx_HAL_Driver/Inc/stm32f4xx_ll_usart.h ****   */
  40:Drivers/STM32F4xx_HAL_Driver/Inc/stm32f4xx_ll_usart.h **** 
  41:Drivers/STM32F4xx_HAL_Driver/Inc/stm32f4xx_ll_usart.h **** /* Private types -------------------------------------------------------------*/
  42:Drivers/STM32F4xx_HAL_Driver/Inc/stm32f4xx_ll_usart.h **** /* Private variables ---------------------------------------------------------*/
  43:Drivers/STM32F4xx_HAL_Driver/Inc/stm32f4xx_ll_usart.h **** 
  44:Drivers/STM32F4xx_HAL_Driver/Inc/stm32f4xx_ll_usart.h **** /* Private constants ---------------------------------------------------------*/
  45:Drivers/STM32F4xx_HAL_Driver/Inc/stm32f4xx_ll_usart.h **** /** @defgroup USART_LL_Private_Constants USART Private Constants
  46:Drivers/STM32F4xx_HAL_Driver/Inc/stm32f4xx_ll_usart.h ****   * @{
  47:Drivers/STM32F4xx_HAL_Driver/Inc/stm32f4xx_ll_usart.h ****   */
  48:Drivers/STM32F4xx_HAL_Driver/Inc/stm32f4xx_ll_usart.h **** 
  49:Drivers/STM32F4xx_HAL_Driver/Inc/stm32f4xx_ll_usart.h **** /* Defines used for the bit position in the register and perform offsets*/
  50:Drivers/STM32F4xx_HAL_Driver/Inc/stm32f4xx_ll_usart.h **** #define USART_POSITION_GTPR_GT                  USART_GTPR_GT_Pos
  51:Drivers/STM32F4xx_HAL_Driver/Inc/stm32f4xx_ll_usart.h **** /**
  52:Drivers/STM32F4xx_HAL_Driver/Inc/stm32f4xx_ll_usart.h ****   * @}
  53:Drivers/STM32F4xx_HAL_Driver/Inc/stm32f4xx_ll_usart.h ****   */
  54:Drivers/STM32F4xx_HAL_Driver/Inc/stm32f4xx_ll_usart.h **** 
  55:Drivers/STM32F4xx_HAL_Driver/Inc/stm32f4xx_ll_usart.h **** /* Private macros ------------------------------------------------------------*/
  56:Drivers/STM32F4xx_HAL_Driver/Inc/stm32f4xx_ll_usart.h **** #if defined(USE_FULL_LL_DRIVER)
  57:Drivers/STM32F4xx_HAL_Driver/Inc/stm32f4xx_ll_usart.h **** /** @defgroup USART_LL_Private_Macros USART Private Macros
  58:Drivers/STM32F4xx_HAL_Driver/Inc/stm32f4xx_ll_usart.h ****   * @{
  59:Drivers/STM32F4xx_HAL_Driver/Inc/stm32f4xx_ll_usart.h ****   */
  60:Drivers/STM32F4xx_HAL_Driver/Inc/stm32f4xx_ll_usart.h **** /**
ARM GAS  C:\Users\zoosman\AppData\Local\Temp\ccgnoQ1j.s 			page 25


  61:Drivers/STM32F4xx_HAL_Driver/Inc/stm32f4xx_ll_usart.h ****   * @}
  62:Drivers/STM32F4xx_HAL_Driver/Inc/stm32f4xx_ll_usart.h ****   */
  63:Drivers/STM32F4xx_HAL_Driver/Inc/stm32f4xx_ll_usart.h **** #endif /*USE_FULL_LL_DRIVER*/
  64:Drivers/STM32F4xx_HAL_Driver/Inc/stm32f4xx_ll_usart.h **** 
  65:Drivers/STM32F4xx_HAL_Driver/Inc/stm32f4xx_ll_usart.h **** /* Exported types ------------------------------------------------------------*/
  66:Drivers/STM32F4xx_HAL_Driver/Inc/stm32f4xx_ll_usart.h **** #if defined(USE_FULL_LL_DRIVER)
  67:Drivers/STM32F4xx_HAL_Driver/Inc/stm32f4xx_ll_usart.h **** /** @defgroup USART_LL_ES_INIT USART Exported Init structures
  68:Drivers/STM32F4xx_HAL_Driver/Inc/stm32f4xx_ll_usart.h ****   * @{
  69:Drivers/STM32F4xx_HAL_Driver/Inc/stm32f4xx_ll_usart.h ****   */
  70:Drivers/STM32F4xx_HAL_Driver/Inc/stm32f4xx_ll_usart.h **** 
  71:Drivers/STM32F4xx_HAL_Driver/Inc/stm32f4xx_ll_usart.h **** /**
  72:Drivers/STM32F4xx_HAL_Driver/Inc/stm32f4xx_ll_usart.h ****   * @brief LL USART Init Structure definition
  73:Drivers/STM32F4xx_HAL_Driver/Inc/stm32f4xx_ll_usart.h ****   */
  74:Drivers/STM32F4xx_HAL_Driver/Inc/stm32f4xx_ll_usart.h **** typedef struct
  75:Drivers/STM32F4xx_HAL_Driver/Inc/stm32f4xx_ll_usart.h **** {
  76:Drivers/STM32F4xx_HAL_Driver/Inc/stm32f4xx_ll_usart.h ****   uint32_t BaudRate;                  /*!< This field defines expected Usart communication baud rat
  77:Drivers/STM32F4xx_HAL_Driver/Inc/stm32f4xx_ll_usart.h **** 
  78:Drivers/STM32F4xx_HAL_Driver/Inc/stm32f4xx_ll_usart.h ****                                            This feature can be modified afterwards using unitary fu
  79:Drivers/STM32F4xx_HAL_Driver/Inc/stm32f4xx_ll_usart.h **** 
  80:Drivers/STM32F4xx_HAL_Driver/Inc/stm32f4xx_ll_usart.h ****   uint32_t DataWidth;                 /*!< Specifies the number of data bits transmitted or receive
  81:Drivers/STM32F4xx_HAL_Driver/Inc/stm32f4xx_ll_usart.h ****                                            This parameter can be a value of @ref USART_LL_EC_DATAWI
  82:Drivers/STM32F4xx_HAL_Driver/Inc/stm32f4xx_ll_usart.h **** 
  83:Drivers/STM32F4xx_HAL_Driver/Inc/stm32f4xx_ll_usart.h ****                                            This feature can be modified afterwards using unitary fu
  84:Drivers/STM32F4xx_HAL_Driver/Inc/stm32f4xx_ll_usart.h **** 
  85:Drivers/STM32F4xx_HAL_Driver/Inc/stm32f4xx_ll_usart.h ****   uint32_t StopBits;                  /*!< Specifies the number of stop bits transmitted.
  86:Drivers/STM32F4xx_HAL_Driver/Inc/stm32f4xx_ll_usart.h ****                                            This parameter can be a value of @ref USART_LL_EC_STOPBI
  87:Drivers/STM32F4xx_HAL_Driver/Inc/stm32f4xx_ll_usart.h **** 
  88:Drivers/STM32F4xx_HAL_Driver/Inc/stm32f4xx_ll_usart.h ****                                            This feature can be modified afterwards using unitary fu
  89:Drivers/STM32F4xx_HAL_Driver/Inc/stm32f4xx_ll_usart.h **** 
  90:Drivers/STM32F4xx_HAL_Driver/Inc/stm32f4xx_ll_usart.h ****   uint32_t Parity;                    /*!< Specifies the parity mode.
  91:Drivers/STM32F4xx_HAL_Driver/Inc/stm32f4xx_ll_usart.h ****                                            This parameter can be a value of @ref USART_LL_EC_PARITY
  92:Drivers/STM32F4xx_HAL_Driver/Inc/stm32f4xx_ll_usart.h **** 
  93:Drivers/STM32F4xx_HAL_Driver/Inc/stm32f4xx_ll_usart.h ****                                            This feature can be modified afterwards using unitary fu
  94:Drivers/STM32F4xx_HAL_Driver/Inc/stm32f4xx_ll_usart.h **** 
  95:Drivers/STM32F4xx_HAL_Driver/Inc/stm32f4xx_ll_usart.h ****   uint32_t TransferDirection;         /*!< Specifies whether the Receive and/or Transmit mode is en
  96:Drivers/STM32F4xx_HAL_Driver/Inc/stm32f4xx_ll_usart.h ****                                            This parameter can be a value of @ref USART_LL_EC_DIRECT
  97:Drivers/STM32F4xx_HAL_Driver/Inc/stm32f4xx_ll_usart.h **** 
  98:Drivers/STM32F4xx_HAL_Driver/Inc/stm32f4xx_ll_usart.h ****                                            This feature can be modified afterwards using unitary fu
  99:Drivers/STM32F4xx_HAL_Driver/Inc/stm32f4xx_ll_usart.h **** 
 100:Drivers/STM32F4xx_HAL_Driver/Inc/stm32f4xx_ll_usart.h ****   uint32_t HardwareFlowControl;       /*!< Specifies whether the hardware flow control mode is enab
 101:Drivers/STM32F4xx_HAL_Driver/Inc/stm32f4xx_ll_usart.h ****                                            This parameter can be a value of @ref USART_LL_EC_HWCONT
 102:Drivers/STM32F4xx_HAL_Driver/Inc/stm32f4xx_ll_usart.h **** 
 103:Drivers/STM32F4xx_HAL_Driver/Inc/stm32f4xx_ll_usart.h ****                                            This feature can be modified afterwards using unitary fu
 104:Drivers/STM32F4xx_HAL_Driver/Inc/stm32f4xx_ll_usart.h **** 
 105:Drivers/STM32F4xx_HAL_Driver/Inc/stm32f4xx_ll_usart.h ****   uint32_t OverSampling;              /*!< Specifies whether USART oversampling mode is 16 or 8.
 106:Drivers/STM32F4xx_HAL_Driver/Inc/stm32f4xx_ll_usart.h ****                                            This parameter can be a value of @ref USART_LL_EC_OVERSA
 107:Drivers/STM32F4xx_HAL_Driver/Inc/stm32f4xx_ll_usart.h **** 
 108:Drivers/STM32F4xx_HAL_Driver/Inc/stm32f4xx_ll_usart.h ****                                            This feature can be modified afterwards using unitary fu
 109:Drivers/STM32F4xx_HAL_Driver/Inc/stm32f4xx_ll_usart.h **** 
 110:Drivers/STM32F4xx_HAL_Driver/Inc/stm32f4xx_ll_usart.h **** } LL_USART_InitTypeDef;
 111:Drivers/STM32F4xx_HAL_Driver/Inc/stm32f4xx_ll_usart.h **** 
 112:Drivers/STM32F4xx_HAL_Driver/Inc/stm32f4xx_ll_usart.h **** /**
 113:Drivers/STM32F4xx_HAL_Driver/Inc/stm32f4xx_ll_usart.h ****   * @brief LL USART Clock Init Structure definition
 114:Drivers/STM32F4xx_HAL_Driver/Inc/stm32f4xx_ll_usart.h ****   */
 115:Drivers/STM32F4xx_HAL_Driver/Inc/stm32f4xx_ll_usart.h **** typedef struct
 116:Drivers/STM32F4xx_HAL_Driver/Inc/stm32f4xx_ll_usart.h **** {
 117:Drivers/STM32F4xx_HAL_Driver/Inc/stm32f4xx_ll_usart.h ****   uint32_t ClockOutput;               /*!< Specifies whether the USART clock is enabled or disabled
ARM GAS  C:\Users\zoosman\AppData\Local\Temp\ccgnoQ1j.s 			page 26


 118:Drivers/STM32F4xx_HAL_Driver/Inc/stm32f4xx_ll_usart.h ****                                            This parameter can be a value of @ref USART_LL_EC_CLOCK.
 119:Drivers/STM32F4xx_HAL_Driver/Inc/stm32f4xx_ll_usart.h **** 
 120:Drivers/STM32F4xx_HAL_Driver/Inc/stm32f4xx_ll_usart.h ****                                            USART HW configuration can be modified afterwards using 
 121:Drivers/STM32F4xx_HAL_Driver/Inc/stm32f4xx_ll_usart.h ****                                            @ref LL_USART_EnableSCLKOutput() or @ref LL_USART_Disabl
 122:Drivers/STM32F4xx_HAL_Driver/Inc/stm32f4xx_ll_usart.h ****                                            For more details, refer to description of this function.
 123:Drivers/STM32F4xx_HAL_Driver/Inc/stm32f4xx_ll_usart.h **** 
 124:Drivers/STM32F4xx_HAL_Driver/Inc/stm32f4xx_ll_usart.h ****   uint32_t ClockPolarity;             /*!< Specifies the steady state of the serial clock.
 125:Drivers/STM32F4xx_HAL_Driver/Inc/stm32f4xx_ll_usart.h ****                                            This parameter can be a value of @ref USART_LL_EC_POLARI
 126:Drivers/STM32F4xx_HAL_Driver/Inc/stm32f4xx_ll_usart.h **** 
 127:Drivers/STM32F4xx_HAL_Driver/Inc/stm32f4xx_ll_usart.h ****                                            USART HW configuration can be modified afterwards using 
 128:Drivers/STM32F4xx_HAL_Driver/Inc/stm32f4xx_ll_usart.h ****                                            For more details, refer to description of this function.
 129:Drivers/STM32F4xx_HAL_Driver/Inc/stm32f4xx_ll_usart.h **** 
 130:Drivers/STM32F4xx_HAL_Driver/Inc/stm32f4xx_ll_usart.h ****   uint32_t ClockPhase;                /*!< Specifies the clock transition on which the bit capture 
 131:Drivers/STM32F4xx_HAL_Driver/Inc/stm32f4xx_ll_usart.h ****                                            This parameter can be a value of @ref USART_LL_EC_PHASE.
 132:Drivers/STM32F4xx_HAL_Driver/Inc/stm32f4xx_ll_usart.h **** 
 133:Drivers/STM32F4xx_HAL_Driver/Inc/stm32f4xx_ll_usart.h ****                                            USART HW configuration can be modified afterwards using 
 134:Drivers/STM32F4xx_HAL_Driver/Inc/stm32f4xx_ll_usart.h ****                                            For more details, refer to description of this function.
 135:Drivers/STM32F4xx_HAL_Driver/Inc/stm32f4xx_ll_usart.h **** 
 136:Drivers/STM32F4xx_HAL_Driver/Inc/stm32f4xx_ll_usart.h ****   uint32_t LastBitClockPulse;         /*!< Specifies whether the clock pulse corresponding to the l
 137:Drivers/STM32F4xx_HAL_Driver/Inc/stm32f4xx_ll_usart.h ****                                            data bit (MSB) has to be output on the SCLK pin in synch
 138:Drivers/STM32F4xx_HAL_Driver/Inc/stm32f4xx_ll_usart.h ****                                            This parameter can be a value of @ref USART_LL_EC_LASTCL
 139:Drivers/STM32F4xx_HAL_Driver/Inc/stm32f4xx_ll_usart.h **** 
 140:Drivers/STM32F4xx_HAL_Driver/Inc/stm32f4xx_ll_usart.h ****                                            USART HW configuration can be modified afterwards using 
 141:Drivers/STM32F4xx_HAL_Driver/Inc/stm32f4xx_ll_usart.h ****                                            For more details, refer to description of this function.
 142:Drivers/STM32F4xx_HAL_Driver/Inc/stm32f4xx_ll_usart.h **** 
 143:Drivers/STM32F4xx_HAL_Driver/Inc/stm32f4xx_ll_usart.h **** } LL_USART_ClockInitTypeDef;
 144:Drivers/STM32F4xx_HAL_Driver/Inc/stm32f4xx_ll_usart.h **** 
 145:Drivers/STM32F4xx_HAL_Driver/Inc/stm32f4xx_ll_usart.h **** /**
 146:Drivers/STM32F4xx_HAL_Driver/Inc/stm32f4xx_ll_usart.h ****   * @}
 147:Drivers/STM32F4xx_HAL_Driver/Inc/stm32f4xx_ll_usart.h ****   */
 148:Drivers/STM32F4xx_HAL_Driver/Inc/stm32f4xx_ll_usart.h **** #endif /* USE_FULL_LL_DRIVER */
 149:Drivers/STM32F4xx_HAL_Driver/Inc/stm32f4xx_ll_usart.h **** 
 150:Drivers/STM32F4xx_HAL_Driver/Inc/stm32f4xx_ll_usart.h **** /* Exported constants --------------------------------------------------------*/
 151:Drivers/STM32F4xx_HAL_Driver/Inc/stm32f4xx_ll_usart.h **** /** @defgroup USART_LL_Exported_Constants USART Exported Constants
 152:Drivers/STM32F4xx_HAL_Driver/Inc/stm32f4xx_ll_usart.h ****   * @{
 153:Drivers/STM32F4xx_HAL_Driver/Inc/stm32f4xx_ll_usart.h ****   */
 154:Drivers/STM32F4xx_HAL_Driver/Inc/stm32f4xx_ll_usart.h **** 
 155:Drivers/STM32F4xx_HAL_Driver/Inc/stm32f4xx_ll_usart.h **** /** @defgroup USART_LL_EC_GET_FLAG Get Flags Defines
 156:Drivers/STM32F4xx_HAL_Driver/Inc/stm32f4xx_ll_usart.h ****   * @brief    Flags defines which can be used with LL_USART_ReadReg function
 157:Drivers/STM32F4xx_HAL_Driver/Inc/stm32f4xx_ll_usart.h ****   * @{
 158:Drivers/STM32F4xx_HAL_Driver/Inc/stm32f4xx_ll_usart.h ****   */
 159:Drivers/STM32F4xx_HAL_Driver/Inc/stm32f4xx_ll_usart.h **** #define LL_USART_SR_PE                          USART_SR_PE                   /*!< Parity error fla
 160:Drivers/STM32F4xx_HAL_Driver/Inc/stm32f4xx_ll_usart.h **** #define LL_USART_SR_FE                          USART_SR_FE                   /*!< Framing error fl
 161:Drivers/STM32F4xx_HAL_Driver/Inc/stm32f4xx_ll_usart.h **** #define LL_USART_SR_NE                          USART_SR_NE                   /*!< Noise detected f
 162:Drivers/STM32F4xx_HAL_Driver/Inc/stm32f4xx_ll_usart.h **** #define LL_USART_SR_ORE                         USART_SR_ORE                  /*!< Overrun error fl
 163:Drivers/STM32F4xx_HAL_Driver/Inc/stm32f4xx_ll_usart.h **** #define LL_USART_SR_IDLE                        USART_SR_IDLE                 /*!< Idle line detect
 164:Drivers/STM32F4xx_HAL_Driver/Inc/stm32f4xx_ll_usart.h **** #define LL_USART_SR_RXNE                        USART_SR_RXNE                 /*!< Read data regist
 165:Drivers/STM32F4xx_HAL_Driver/Inc/stm32f4xx_ll_usart.h **** #define LL_USART_SR_TC                          USART_SR_TC                   /*!< Transmission com
 166:Drivers/STM32F4xx_HAL_Driver/Inc/stm32f4xx_ll_usart.h **** #define LL_USART_SR_TXE                         USART_SR_TXE                  /*!< Transmit data re
 167:Drivers/STM32F4xx_HAL_Driver/Inc/stm32f4xx_ll_usart.h **** #define LL_USART_SR_LBD                         USART_SR_LBD                  /*!< LIN break detect
 168:Drivers/STM32F4xx_HAL_Driver/Inc/stm32f4xx_ll_usart.h **** #define LL_USART_SR_CTS                         USART_SR_CTS                  /*!< CTS flag */
 169:Drivers/STM32F4xx_HAL_Driver/Inc/stm32f4xx_ll_usart.h **** /**
 170:Drivers/STM32F4xx_HAL_Driver/Inc/stm32f4xx_ll_usart.h ****   * @}
 171:Drivers/STM32F4xx_HAL_Driver/Inc/stm32f4xx_ll_usart.h ****   */
 172:Drivers/STM32F4xx_HAL_Driver/Inc/stm32f4xx_ll_usart.h **** 
 173:Drivers/STM32F4xx_HAL_Driver/Inc/stm32f4xx_ll_usart.h **** /** @defgroup USART_LL_EC_IT IT Defines
 174:Drivers/STM32F4xx_HAL_Driver/Inc/stm32f4xx_ll_usart.h ****   * @brief    IT defines which can be used with LL_USART_ReadReg and  LL_USART_WriteReg functions
ARM GAS  C:\Users\zoosman\AppData\Local\Temp\ccgnoQ1j.s 			page 27


 175:Drivers/STM32F4xx_HAL_Driver/Inc/stm32f4xx_ll_usart.h ****   * @{
 176:Drivers/STM32F4xx_HAL_Driver/Inc/stm32f4xx_ll_usart.h ****   */
 177:Drivers/STM32F4xx_HAL_Driver/Inc/stm32f4xx_ll_usart.h **** #define LL_USART_CR1_IDLEIE                     USART_CR1_IDLEIE              /*!< IDLE interrupt e
 178:Drivers/STM32F4xx_HAL_Driver/Inc/stm32f4xx_ll_usart.h **** #define LL_USART_CR1_RXNEIE                     USART_CR1_RXNEIE              /*!< Read data regist
 179:Drivers/STM32F4xx_HAL_Driver/Inc/stm32f4xx_ll_usart.h **** #define LL_USART_CR1_TCIE                       USART_CR1_TCIE                /*!< Transmission com
 180:Drivers/STM32F4xx_HAL_Driver/Inc/stm32f4xx_ll_usart.h **** #define LL_USART_CR1_TXEIE                      USART_CR1_TXEIE               /*!< Transmit data re
 181:Drivers/STM32F4xx_HAL_Driver/Inc/stm32f4xx_ll_usart.h **** #define LL_USART_CR1_PEIE                       USART_CR1_PEIE                /*!< Parity error */
 182:Drivers/STM32F4xx_HAL_Driver/Inc/stm32f4xx_ll_usart.h **** #define LL_USART_CR2_LBDIE                      USART_CR2_LBDIE               /*!< LIN break detect
 183:Drivers/STM32F4xx_HAL_Driver/Inc/stm32f4xx_ll_usart.h **** #define LL_USART_CR3_EIE                        USART_CR3_EIE                 /*!< Error interrupt 
 184:Drivers/STM32F4xx_HAL_Driver/Inc/stm32f4xx_ll_usart.h **** #define LL_USART_CR3_CTSIE                      USART_CR3_CTSIE               /*!< CTS interrupt en
 185:Drivers/STM32F4xx_HAL_Driver/Inc/stm32f4xx_ll_usart.h **** /**
 186:Drivers/STM32F4xx_HAL_Driver/Inc/stm32f4xx_ll_usart.h ****   * @}
 187:Drivers/STM32F4xx_HAL_Driver/Inc/stm32f4xx_ll_usart.h ****   */
 188:Drivers/STM32F4xx_HAL_Driver/Inc/stm32f4xx_ll_usart.h **** 
 189:Drivers/STM32F4xx_HAL_Driver/Inc/stm32f4xx_ll_usart.h **** /** @defgroup USART_LL_EC_DIRECTION Communication Direction
 190:Drivers/STM32F4xx_HAL_Driver/Inc/stm32f4xx_ll_usart.h ****   * @{
 191:Drivers/STM32F4xx_HAL_Driver/Inc/stm32f4xx_ll_usart.h ****   */
 192:Drivers/STM32F4xx_HAL_Driver/Inc/stm32f4xx_ll_usart.h **** #define LL_USART_DIRECTION_NONE                 0x00000000U                        /*!< Transmitter
 193:Drivers/STM32F4xx_HAL_Driver/Inc/stm32f4xx_ll_usart.h **** #define LL_USART_DIRECTION_RX                   USART_CR1_RE                       /*!< Transmitter
 194:Drivers/STM32F4xx_HAL_Driver/Inc/stm32f4xx_ll_usart.h **** #define LL_USART_DIRECTION_TX                   USART_CR1_TE                       /*!< Transmitter
 195:Drivers/STM32F4xx_HAL_Driver/Inc/stm32f4xx_ll_usart.h **** #define LL_USART_DIRECTION_TX_RX                (USART_CR1_TE |USART_CR1_RE)       /*!< Transmitter
 196:Drivers/STM32F4xx_HAL_Driver/Inc/stm32f4xx_ll_usart.h **** /**
 197:Drivers/STM32F4xx_HAL_Driver/Inc/stm32f4xx_ll_usart.h ****   * @}
 198:Drivers/STM32F4xx_HAL_Driver/Inc/stm32f4xx_ll_usart.h ****   */
 199:Drivers/STM32F4xx_HAL_Driver/Inc/stm32f4xx_ll_usart.h **** 
 200:Drivers/STM32F4xx_HAL_Driver/Inc/stm32f4xx_ll_usart.h **** /** @defgroup USART_LL_EC_PARITY Parity Control
 201:Drivers/STM32F4xx_HAL_Driver/Inc/stm32f4xx_ll_usart.h ****   * @{
 202:Drivers/STM32F4xx_HAL_Driver/Inc/stm32f4xx_ll_usart.h ****   */
 203:Drivers/STM32F4xx_HAL_Driver/Inc/stm32f4xx_ll_usart.h **** #define LL_USART_PARITY_NONE                    0x00000000U                          /*!< Parity co
 204:Drivers/STM32F4xx_HAL_Driver/Inc/stm32f4xx_ll_usart.h **** #define LL_USART_PARITY_EVEN                    USART_CR1_PCE                        /*!< Parity co
 205:Drivers/STM32F4xx_HAL_Driver/Inc/stm32f4xx_ll_usart.h **** #define LL_USART_PARITY_ODD                     (USART_CR1_PCE | USART_CR1_PS)       /*!< Parity co
 206:Drivers/STM32F4xx_HAL_Driver/Inc/stm32f4xx_ll_usart.h **** /**
 207:Drivers/STM32F4xx_HAL_Driver/Inc/stm32f4xx_ll_usart.h ****   * @}
 208:Drivers/STM32F4xx_HAL_Driver/Inc/stm32f4xx_ll_usart.h ****   */
 209:Drivers/STM32F4xx_HAL_Driver/Inc/stm32f4xx_ll_usart.h **** 
 210:Drivers/STM32F4xx_HAL_Driver/Inc/stm32f4xx_ll_usart.h **** /** @defgroup USART_LL_EC_WAKEUP Wakeup
 211:Drivers/STM32F4xx_HAL_Driver/Inc/stm32f4xx_ll_usart.h ****   * @{
 212:Drivers/STM32F4xx_HAL_Driver/Inc/stm32f4xx_ll_usart.h ****   */
 213:Drivers/STM32F4xx_HAL_Driver/Inc/stm32f4xx_ll_usart.h **** #define LL_USART_WAKEUP_IDLELINE                0x00000000U           /*!<  USART wake up from Mute
 214:Drivers/STM32F4xx_HAL_Driver/Inc/stm32f4xx_ll_usart.h **** #define LL_USART_WAKEUP_ADDRESSMARK             USART_CR1_WAKE        /*!<  USART wake up from Mute
 215:Drivers/STM32F4xx_HAL_Driver/Inc/stm32f4xx_ll_usart.h **** /**
 216:Drivers/STM32F4xx_HAL_Driver/Inc/stm32f4xx_ll_usart.h ****   * @}
 217:Drivers/STM32F4xx_HAL_Driver/Inc/stm32f4xx_ll_usart.h ****   */
 218:Drivers/STM32F4xx_HAL_Driver/Inc/stm32f4xx_ll_usart.h **** 
 219:Drivers/STM32F4xx_HAL_Driver/Inc/stm32f4xx_ll_usart.h **** /** @defgroup USART_LL_EC_DATAWIDTH Datawidth
 220:Drivers/STM32F4xx_HAL_Driver/Inc/stm32f4xx_ll_usart.h ****   * @{
 221:Drivers/STM32F4xx_HAL_Driver/Inc/stm32f4xx_ll_usart.h ****   */
 222:Drivers/STM32F4xx_HAL_Driver/Inc/stm32f4xx_ll_usart.h **** #define LL_USART_DATAWIDTH_8B                   0x00000000U             /*!< 8 bits word length : S
 223:Drivers/STM32F4xx_HAL_Driver/Inc/stm32f4xx_ll_usart.h **** #define LL_USART_DATAWIDTH_9B                   USART_CR1_M             /*!< 9 bits word length : S
 224:Drivers/STM32F4xx_HAL_Driver/Inc/stm32f4xx_ll_usart.h **** /**
 225:Drivers/STM32F4xx_HAL_Driver/Inc/stm32f4xx_ll_usart.h ****   * @}
 226:Drivers/STM32F4xx_HAL_Driver/Inc/stm32f4xx_ll_usart.h ****   */
 227:Drivers/STM32F4xx_HAL_Driver/Inc/stm32f4xx_ll_usart.h **** 
 228:Drivers/STM32F4xx_HAL_Driver/Inc/stm32f4xx_ll_usart.h **** /** @defgroup USART_LL_EC_OVERSAMPLING Oversampling
 229:Drivers/STM32F4xx_HAL_Driver/Inc/stm32f4xx_ll_usart.h ****   * @{
 230:Drivers/STM32F4xx_HAL_Driver/Inc/stm32f4xx_ll_usart.h ****   */
 231:Drivers/STM32F4xx_HAL_Driver/Inc/stm32f4xx_ll_usart.h **** #define LL_USART_OVERSAMPLING_16                0x00000000U            /*!< Oversampling by 16 */
ARM GAS  C:\Users\zoosman\AppData\Local\Temp\ccgnoQ1j.s 			page 28


 232:Drivers/STM32F4xx_HAL_Driver/Inc/stm32f4xx_ll_usart.h **** #define LL_USART_OVERSAMPLING_8                 USART_CR1_OVER8        /*!< Oversampling by 8 */
 233:Drivers/STM32F4xx_HAL_Driver/Inc/stm32f4xx_ll_usart.h **** /**
 234:Drivers/STM32F4xx_HAL_Driver/Inc/stm32f4xx_ll_usart.h ****   * @}
 235:Drivers/STM32F4xx_HAL_Driver/Inc/stm32f4xx_ll_usart.h ****   */
 236:Drivers/STM32F4xx_HAL_Driver/Inc/stm32f4xx_ll_usart.h **** 
 237:Drivers/STM32F4xx_HAL_Driver/Inc/stm32f4xx_ll_usart.h **** #if defined(USE_FULL_LL_DRIVER)
 238:Drivers/STM32F4xx_HAL_Driver/Inc/stm32f4xx_ll_usart.h **** /** @defgroup USART_LL_EC_CLOCK Clock Signal
 239:Drivers/STM32F4xx_HAL_Driver/Inc/stm32f4xx_ll_usart.h ****   * @{
 240:Drivers/STM32F4xx_HAL_Driver/Inc/stm32f4xx_ll_usart.h ****   */
 241:Drivers/STM32F4xx_HAL_Driver/Inc/stm32f4xx_ll_usart.h **** 
 242:Drivers/STM32F4xx_HAL_Driver/Inc/stm32f4xx_ll_usart.h **** #define LL_USART_CLOCK_DISABLE                  0x00000000U            /*!< Clock signal not provid
 243:Drivers/STM32F4xx_HAL_Driver/Inc/stm32f4xx_ll_usart.h **** #define LL_USART_CLOCK_ENABLE                   USART_CR2_CLKEN        /*!< Clock signal provided *
 244:Drivers/STM32F4xx_HAL_Driver/Inc/stm32f4xx_ll_usart.h **** /**
 245:Drivers/STM32F4xx_HAL_Driver/Inc/stm32f4xx_ll_usart.h ****   * @}
 246:Drivers/STM32F4xx_HAL_Driver/Inc/stm32f4xx_ll_usart.h ****   */
 247:Drivers/STM32F4xx_HAL_Driver/Inc/stm32f4xx_ll_usart.h **** #endif /*USE_FULL_LL_DRIVER*/
 248:Drivers/STM32F4xx_HAL_Driver/Inc/stm32f4xx_ll_usart.h **** 
 249:Drivers/STM32F4xx_HAL_Driver/Inc/stm32f4xx_ll_usart.h **** /** @defgroup USART_LL_EC_LASTCLKPULSE Last Clock Pulse
 250:Drivers/STM32F4xx_HAL_Driver/Inc/stm32f4xx_ll_usart.h ****   * @{
 251:Drivers/STM32F4xx_HAL_Driver/Inc/stm32f4xx_ll_usart.h ****   */
 252:Drivers/STM32F4xx_HAL_Driver/Inc/stm32f4xx_ll_usart.h **** #define LL_USART_LASTCLKPULSE_NO_OUTPUT         0x00000000U           /*!< The clock pulse of the l
 253:Drivers/STM32F4xx_HAL_Driver/Inc/stm32f4xx_ll_usart.h **** #define LL_USART_LASTCLKPULSE_OUTPUT            USART_CR2_LBCL        /*!< The clock pulse of the l
 254:Drivers/STM32F4xx_HAL_Driver/Inc/stm32f4xx_ll_usart.h **** /**
 255:Drivers/STM32F4xx_HAL_Driver/Inc/stm32f4xx_ll_usart.h ****   * @}
 256:Drivers/STM32F4xx_HAL_Driver/Inc/stm32f4xx_ll_usart.h ****   */
 257:Drivers/STM32F4xx_HAL_Driver/Inc/stm32f4xx_ll_usart.h **** 
 258:Drivers/STM32F4xx_HAL_Driver/Inc/stm32f4xx_ll_usart.h **** /** @defgroup USART_LL_EC_PHASE Clock Phase
 259:Drivers/STM32F4xx_HAL_Driver/Inc/stm32f4xx_ll_usart.h ****   * @{
 260:Drivers/STM32F4xx_HAL_Driver/Inc/stm32f4xx_ll_usart.h ****   */
 261:Drivers/STM32F4xx_HAL_Driver/Inc/stm32f4xx_ll_usart.h **** #define LL_USART_PHASE_1EDGE                    0x00000000U           /*!< The first clock transiti
 262:Drivers/STM32F4xx_HAL_Driver/Inc/stm32f4xx_ll_usart.h **** #define LL_USART_PHASE_2EDGE                    USART_CR2_CPHA        /*!< The second clock transit
 263:Drivers/STM32F4xx_HAL_Driver/Inc/stm32f4xx_ll_usart.h **** /**
 264:Drivers/STM32F4xx_HAL_Driver/Inc/stm32f4xx_ll_usart.h ****   * @}
 265:Drivers/STM32F4xx_HAL_Driver/Inc/stm32f4xx_ll_usart.h ****   */
 266:Drivers/STM32F4xx_HAL_Driver/Inc/stm32f4xx_ll_usart.h **** 
 267:Drivers/STM32F4xx_HAL_Driver/Inc/stm32f4xx_ll_usart.h **** /** @defgroup USART_LL_EC_POLARITY Clock Polarity
 268:Drivers/STM32F4xx_HAL_Driver/Inc/stm32f4xx_ll_usart.h ****   * @{
 269:Drivers/STM32F4xx_HAL_Driver/Inc/stm32f4xx_ll_usart.h ****   */
 270:Drivers/STM32F4xx_HAL_Driver/Inc/stm32f4xx_ll_usart.h **** #define LL_USART_POLARITY_LOW                   0x00000000U           /*!< Steady low value on SCLK
 271:Drivers/STM32F4xx_HAL_Driver/Inc/stm32f4xx_ll_usart.h **** #define LL_USART_POLARITY_HIGH                  USART_CR2_CPOL        /*!< Steady high value on SCL
 272:Drivers/STM32F4xx_HAL_Driver/Inc/stm32f4xx_ll_usart.h **** /**
 273:Drivers/STM32F4xx_HAL_Driver/Inc/stm32f4xx_ll_usart.h ****   * @}
 274:Drivers/STM32F4xx_HAL_Driver/Inc/stm32f4xx_ll_usart.h ****   */
 275:Drivers/STM32F4xx_HAL_Driver/Inc/stm32f4xx_ll_usart.h **** 
 276:Drivers/STM32F4xx_HAL_Driver/Inc/stm32f4xx_ll_usart.h **** /** @defgroup USART_LL_EC_STOPBITS Stop Bits
 277:Drivers/STM32F4xx_HAL_Driver/Inc/stm32f4xx_ll_usart.h ****   * @{
 278:Drivers/STM32F4xx_HAL_Driver/Inc/stm32f4xx_ll_usart.h ****   */
 279:Drivers/STM32F4xx_HAL_Driver/Inc/stm32f4xx_ll_usart.h **** #define LL_USART_STOPBITS_0_5                   USART_CR2_STOP_0                           /*!< 0.5
 280:Drivers/STM32F4xx_HAL_Driver/Inc/stm32f4xx_ll_usart.h **** #define LL_USART_STOPBITS_1                     0x00000000U                                /*!< 1 s
 281:Drivers/STM32F4xx_HAL_Driver/Inc/stm32f4xx_ll_usart.h **** #define LL_USART_STOPBITS_1_5                   (USART_CR2_STOP_0 | USART_CR2_STOP_1)      /*!< 1.5
 282:Drivers/STM32F4xx_HAL_Driver/Inc/stm32f4xx_ll_usart.h **** #define LL_USART_STOPBITS_2                     USART_CR2_STOP_1                           /*!< 2 s
 283:Drivers/STM32F4xx_HAL_Driver/Inc/stm32f4xx_ll_usart.h **** /**
 284:Drivers/STM32F4xx_HAL_Driver/Inc/stm32f4xx_ll_usart.h ****   * @}
 285:Drivers/STM32F4xx_HAL_Driver/Inc/stm32f4xx_ll_usart.h ****   */
 286:Drivers/STM32F4xx_HAL_Driver/Inc/stm32f4xx_ll_usart.h **** 
 287:Drivers/STM32F4xx_HAL_Driver/Inc/stm32f4xx_ll_usart.h **** /** @defgroup USART_LL_EC_HWCONTROL Hardware Control
 288:Drivers/STM32F4xx_HAL_Driver/Inc/stm32f4xx_ll_usart.h ****   * @{
ARM GAS  C:\Users\zoosman\AppData\Local\Temp\ccgnoQ1j.s 			page 29


 289:Drivers/STM32F4xx_HAL_Driver/Inc/stm32f4xx_ll_usart.h ****   */
 290:Drivers/STM32F4xx_HAL_Driver/Inc/stm32f4xx_ll_usart.h **** #define LL_USART_HWCONTROL_NONE                 0x00000000U                          /*!< CTS and R
 291:Drivers/STM32F4xx_HAL_Driver/Inc/stm32f4xx_ll_usart.h **** #define LL_USART_HWCONTROL_RTS                  USART_CR3_RTSE                       /*!< RTS outpu
 292:Drivers/STM32F4xx_HAL_Driver/Inc/stm32f4xx_ll_usart.h **** #define LL_USART_HWCONTROL_CTS                  USART_CR3_CTSE                       /*!< CTS mode 
 293:Drivers/STM32F4xx_HAL_Driver/Inc/stm32f4xx_ll_usart.h **** #define LL_USART_HWCONTROL_RTS_CTS              (USART_CR3_RTSE | USART_CR3_CTSE)    /*!< CTS and R
 294:Drivers/STM32F4xx_HAL_Driver/Inc/stm32f4xx_ll_usart.h **** /**
 295:Drivers/STM32F4xx_HAL_Driver/Inc/stm32f4xx_ll_usart.h ****   * @}
 296:Drivers/STM32F4xx_HAL_Driver/Inc/stm32f4xx_ll_usart.h ****   */
 297:Drivers/STM32F4xx_HAL_Driver/Inc/stm32f4xx_ll_usart.h **** 
 298:Drivers/STM32F4xx_HAL_Driver/Inc/stm32f4xx_ll_usart.h **** /** @defgroup USART_LL_EC_IRDA_POWER IrDA Power
 299:Drivers/STM32F4xx_HAL_Driver/Inc/stm32f4xx_ll_usart.h ****   * @{
 300:Drivers/STM32F4xx_HAL_Driver/Inc/stm32f4xx_ll_usart.h ****   */
 301:Drivers/STM32F4xx_HAL_Driver/Inc/stm32f4xx_ll_usart.h **** #define LL_USART_IRDA_POWER_NORMAL              0x00000000U           /*!< IrDA normal power mode *
 302:Drivers/STM32F4xx_HAL_Driver/Inc/stm32f4xx_ll_usart.h **** #define LL_USART_IRDA_POWER_LOW                 USART_CR3_IRLP        /*!< IrDA low power mode */
 303:Drivers/STM32F4xx_HAL_Driver/Inc/stm32f4xx_ll_usart.h **** /**
 304:Drivers/STM32F4xx_HAL_Driver/Inc/stm32f4xx_ll_usart.h ****   * @}
 305:Drivers/STM32F4xx_HAL_Driver/Inc/stm32f4xx_ll_usart.h ****   */
 306:Drivers/STM32F4xx_HAL_Driver/Inc/stm32f4xx_ll_usart.h **** 
 307:Drivers/STM32F4xx_HAL_Driver/Inc/stm32f4xx_ll_usart.h **** /** @defgroup USART_LL_EC_LINBREAK_DETECT LIN Break Detection Length
 308:Drivers/STM32F4xx_HAL_Driver/Inc/stm32f4xx_ll_usart.h ****   * @{
 309:Drivers/STM32F4xx_HAL_Driver/Inc/stm32f4xx_ll_usart.h ****   */
 310:Drivers/STM32F4xx_HAL_Driver/Inc/stm32f4xx_ll_usart.h **** #define LL_USART_LINBREAK_DETECT_10B            0x00000000U           /*!< 10-bit break detection m
 311:Drivers/STM32F4xx_HAL_Driver/Inc/stm32f4xx_ll_usart.h **** #define LL_USART_LINBREAK_DETECT_11B            USART_CR2_LBDL        /*!< 11-bit break detection m
 312:Drivers/STM32F4xx_HAL_Driver/Inc/stm32f4xx_ll_usart.h **** /**
 313:Drivers/STM32F4xx_HAL_Driver/Inc/stm32f4xx_ll_usart.h ****   * @}
 314:Drivers/STM32F4xx_HAL_Driver/Inc/stm32f4xx_ll_usart.h ****   */
 315:Drivers/STM32F4xx_HAL_Driver/Inc/stm32f4xx_ll_usart.h **** 
 316:Drivers/STM32F4xx_HAL_Driver/Inc/stm32f4xx_ll_usart.h **** /**
 317:Drivers/STM32F4xx_HAL_Driver/Inc/stm32f4xx_ll_usart.h ****   * @}
 318:Drivers/STM32F4xx_HAL_Driver/Inc/stm32f4xx_ll_usart.h ****   */
 319:Drivers/STM32F4xx_HAL_Driver/Inc/stm32f4xx_ll_usart.h **** 
 320:Drivers/STM32F4xx_HAL_Driver/Inc/stm32f4xx_ll_usart.h **** /* Exported macro ------------------------------------------------------------*/
 321:Drivers/STM32F4xx_HAL_Driver/Inc/stm32f4xx_ll_usart.h **** /** @defgroup USART_LL_Exported_Macros USART Exported Macros
 322:Drivers/STM32F4xx_HAL_Driver/Inc/stm32f4xx_ll_usart.h ****   * @{
 323:Drivers/STM32F4xx_HAL_Driver/Inc/stm32f4xx_ll_usart.h ****   */
 324:Drivers/STM32F4xx_HAL_Driver/Inc/stm32f4xx_ll_usart.h **** 
 325:Drivers/STM32F4xx_HAL_Driver/Inc/stm32f4xx_ll_usart.h **** /** @defgroup USART_LL_EM_WRITE_READ Common Write and read registers Macros
 326:Drivers/STM32F4xx_HAL_Driver/Inc/stm32f4xx_ll_usart.h ****   * @{
 327:Drivers/STM32F4xx_HAL_Driver/Inc/stm32f4xx_ll_usart.h ****   */
 328:Drivers/STM32F4xx_HAL_Driver/Inc/stm32f4xx_ll_usart.h **** 
 329:Drivers/STM32F4xx_HAL_Driver/Inc/stm32f4xx_ll_usart.h **** /**
 330:Drivers/STM32F4xx_HAL_Driver/Inc/stm32f4xx_ll_usart.h ****   * @brief  Write a value in USART register
 331:Drivers/STM32F4xx_HAL_Driver/Inc/stm32f4xx_ll_usart.h ****   * @param  __INSTANCE__ USART Instance
 332:Drivers/STM32F4xx_HAL_Driver/Inc/stm32f4xx_ll_usart.h ****   * @param  __REG__ Register to be written
 333:Drivers/STM32F4xx_HAL_Driver/Inc/stm32f4xx_ll_usart.h ****   * @param  __VALUE__ Value to be written in the register
 334:Drivers/STM32F4xx_HAL_Driver/Inc/stm32f4xx_ll_usart.h ****   * @retval None
 335:Drivers/STM32F4xx_HAL_Driver/Inc/stm32f4xx_ll_usart.h ****   */
 336:Drivers/STM32F4xx_HAL_Driver/Inc/stm32f4xx_ll_usart.h **** #define LL_USART_WriteReg(__INSTANCE__, __REG__, __VALUE__) WRITE_REG(__INSTANCE__->__REG__, (__VAL
 337:Drivers/STM32F4xx_HAL_Driver/Inc/stm32f4xx_ll_usart.h **** 
 338:Drivers/STM32F4xx_HAL_Driver/Inc/stm32f4xx_ll_usart.h **** /**
 339:Drivers/STM32F4xx_HAL_Driver/Inc/stm32f4xx_ll_usart.h ****   * @brief  Read a value in USART register
 340:Drivers/STM32F4xx_HAL_Driver/Inc/stm32f4xx_ll_usart.h ****   * @param  __INSTANCE__ USART Instance
 341:Drivers/STM32F4xx_HAL_Driver/Inc/stm32f4xx_ll_usart.h ****   * @param  __REG__ Register to be read
 342:Drivers/STM32F4xx_HAL_Driver/Inc/stm32f4xx_ll_usart.h ****   * @retval Register value
 343:Drivers/STM32F4xx_HAL_Driver/Inc/stm32f4xx_ll_usart.h ****   */
 344:Drivers/STM32F4xx_HAL_Driver/Inc/stm32f4xx_ll_usart.h **** #define LL_USART_ReadReg(__INSTANCE__, __REG__) READ_REG(__INSTANCE__->__REG__)
 345:Drivers/STM32F4xx_HAL_Driver/Inc/stm32f4xx_ll_usart.h **** /**
ARM GAS  C:\Users\zoosman\AppData\Local\Temp\ccgnoQ1j.s 			page 30


 346:Drivers/STM32F4xx_HAL_Driver/Inc/stm32f4xx_ll_usart.h ****   * @}
 347:Drivers/STM32F4xx_HAL_Driver/Inc/stm32f4xx_ll_usart.h ****   */
 348:Drivers/STM32F4xx_HAL_Driver/Inc/stm32f4xx_ll_usart.h **** 
 349:Drivers/STM32F4xx_HAL_Driver/Inc/stm32f4xx_ll_usart.h **** /** @defgroup USART_LL_EM_Exported_Macros_Helper Exported_Macros_Helper
 350:Drivers/STM32F4xx_HAL_Driver/Inc/stm32f4xx_ll_usart.h ****   * @{
 351:Drivers/STM32F4xx_HAL_Driver/Inc/stm32f4xx_ll_usart.h ****   */
 352:Drivers/STM32F4xx_HAL_Driver/Inc/stm32f4xx_ll_usart.h **** 
 353:Drivers/STM32F4xx_HAL_Driver/Inc/stm32f4xx_ll_usart.h **** /**
 354:Drivers/STM32F4xx_HAL_Driver/Inc/stm32f4xx_ll_usart.h ****   * @brief  Compute USARTDIV value according to Peripheral Clock and
 355:Drivers/STM32F4xx_HAL_Driver/Inc/stm32f4xx_ll_usart.h ****   *         expected Baud Rate in 8 bits sampling mode (32 bits value of USARTDIV is returned)
 356:Drivers/STM32F4xx_HAL_Driver/Inc/stm32f4xx_ll_usart.h ****   * @param  __PERIPHCLK__ Peripheral Clock frequency used for USART instance
 357:Drivers/STM32F4xx_HAL_Driver/Inc/stm32f4xx_ll_usart.h ****   * @param  __BAUDRATE__ Baud rate value to achieve
 358:Drivers/STM32F4xx_HAL_Driver/Inc/stm32f4xx_ll_usart.h ****   * @retval USARTDIV value to be used for BRR register filling in OverSampling_8 case
 359:Drivers/STM32F4xx_HAL_Driver/Inc/stm32f4xx_ll_usart.h ****   */
 360:Drivers/STM32F4xx_HAL_Driver/Inc/stm32f4xx_ll_usart.h **** #define __LL_USART_DIV_SAMPLING8_100(__PERIPHCLK__, __BAUDRATE__)      ((uint32_t)((((uint64_t)(__P
 361:Drivers/STM32F4xx_HAL_Driver/Inc/stm32f4xx_ll_usart.h **** #define __LL_USART_DIVMANT_SAMPLING8(__PERIPHCLK__, __BAUDRATE__)      (__LL_USART_DIV_SAMPLING8_10
 362:Drivers/STM32F4xx_HAL_Driver/Inc/stm32f4xx_ll_usart.h **** #define __LL_USART_DIVFRAQ_SAMPLING8(__PERIPHCLK__, __BAUDRATE__)      ((((__LL_USART_DIV_SAMPLING8
 363:Drivers/STM32F4xx_HAL_Driver/Inc/stm32f4xx_ll_usart.h **** /* UART BRR = mantissa + overflow + fraction
 364:Drivers/STM32F4xx_HAL_Driver/Inc/stm32f4xx_ll_usart.h ****             = (UART DIVMANT << 4) + ((UART DIVFRAQ & 0xF8) << 1) + (UART DIVFRAQ & 0x07) */
 365:Drivers/STM32F4xx_HAL_Driver/Inc/stm32f4xx_ll_usart.h **** #define __LL_USART_DIV_SAMPLING8(__PERIPHCLK__, __BAUDRATE__)             (((__LL_USART_DIVMANT_SAM
 366:Drivers/STM32F4xx_HAL_Driver/Inc/stm32f4xx_ll_usart.h ****                                                                            ((__LL_USART_DIVFRAQ_SAM
 367:Drivers/STM32F4xx_HAL_Driver/Inc/stm32f4xx_ll_usart.h ****                                                                            (__LL_USART_DIVFRAQ_SAMP
 368:Drivers/STM32F4xx_HAL_Driver/Inc/stm32f4xx_ll_usart.h **** 
 369:Drivers/STM32F4xx_HAL_Driver/Inc/stm32f4xx_ll_usart.h **** /**
 370:Drivers/STM32F4xx_HAL_Driver/Inc/stm32f4xx_ll_usart.h ****   * @brief  Compute USARTDIV value according to Peripheral Clock and
 371:Drivers/STM32F4xx_HAL_Driver/Inc/stm32f4xx_ll_usart.h ****   *         expected Baud Rate in 16 bits sampling mode (32 bits value of USARTDIV is returned)
 372:Drivers/STM32F4xx_HAL_Driver/Inc/stm32f4xx_ll_usart.h ****   * @param  __PERIPHCLK__ Peripheral Clock frequency used for USART instance
 373:Drivers/STM32F4xx_HAL_Driver/Inc/stm32f4xx_ll_usart.h ****   * @param  __BAUDRATE__ Baud rate value to achieve
 374:Drivers/STM32F4xx_HAL_Driver/Inc/stm32f4xx_ll_usart.h ****   * @retval USARTDIV value to be used for BRR register filling in OverSampling_16 case
 375:Drivers/STM32F4xx_HAL_Driver/Inc/stm32f4xx_ll_usart.h ****   */
 376:Drivers/STM32F4xx_HAL_Driver/Inc/stm32f4xx_ll_usart.h **** #define __LL_USART_DIV_SAMPLING16_100(__PERIPHCLK__, __BAUDRATE__)     ((uint32_t)((((uint64_t)(__P
 377:Drivers/STM32F4xx_HAL_Driver/Inc/stm32f4xx_ll_usart.h **** #define __LL_USART_DIVMANT_SAMPLING16(__PERIPHCLK__, __BAUDRATE__)     (__LL_USART_DIV_SAMPLING16_1
 378:Drivers/STM32F4xx_HAL_Driver/Inc/stm32f4xx_ll_usart.h **** #define __LL_USART_DIVFRAQ_SAMPLING16(__PERIPHCLK__, __BAUDRATE__)     ((((__LL_USART_DIV_SAMPLING1
 379:Drivers/STM32F4xx_HAL_Driver/Inc/stm32f4xx_ll_usart.h **** /* USART BRR = mantissa + overflow + fraction
 380:Drivers/STM32F4xx_HAL_Driver/Inc/stm32f4xx_ll_usart.h ****             = (USART DIVMANT << 4) + (USART DIVFRAQ & 0xF0) + (USART DIVFRAQ & 0x0F) */
 381:Drivers/STM32F4xx_HAL_Driver/Inc/stm32f4xx_ll_usart.h **** #define __LL_USART_DIV_SAMPLING16(__PERIPHCLK__, __BAUDRATE__)            (((__LL_USART_DIVMANT_SAM
 382:Drivers/STM32F4xx_HAL_Driver/Inc/stm32f4xx_ll_usart.h ****                                                                            (__LL_USART_DIVFRAQ_SAMP
 383:Drivers/STM32F4xx_HAL_Driver/Inc/stm32f4xx_ll_usart.h ****                                                                            (__LL_USART_DIVFRAQ_SAMP
 384:Drivers/STM32F4xx_HAL_Driver/Inc/stm32f4xx_ll_usart.h **** 
 385:Drivers/STM32F4xx_HAL_Driver/Inc/stm32f4xx_ll_usart.h **** /**
 386:Drivers/STM32F4xx_HAL_Driver/Inc/stm32f4xx_ll_usart.h ****   * @}
 387:Drivers/STM32F4xx_HAL_Driver/Inc/stm32f4xx_ll_usart.h ****   */
 388:Drivers/STM32F4xx_HAL_Driver/Inc/stm32f4xx_ll_usart.h **** 
 389:Drivers/STM32F4xx_HAL_Driver/Inc/stm32f4xx_ll_usart.h **** /**
 390:Drivers/STM32F4xx_HAL_Driver/Inc/stm32f4xx_ll_usart.h ****   * @}
 391:Drivers/STM32F4xx_HAL_Driver/Inc/stm32f4xx_ll_usart.h ****   */
 392:Drivers/STM32F4xx_HAL_Driver/Inc/stm32f4xx_ll_usart.h **** 
 393:Drivers/STM32F4xx_HAL_Driver/Inc/stm32f4xx_ll_usart.h **** /* Exported functions --------------------------------------------------------*/
 394:Drivers/STM32F4xx_HAL_Driver/Inc/stm32f4xx_ll_usart.h **** 
 395:Drivers/STM32F4xx_HAL_Driver/Inc/stm32f4xx_ll_usart.h **** /** @defgroup USART_LL_Exported_Functions USART Exported Functions
 396:Drivers/STM32F4xx_HAL_Driver/Inc/stm32f4xx_ll_usart.h ****   * @{
 397:Drivers/STM32F4xx_HAL_Driver/Inc/stm32f4xx_ll_usart.h ****   */
 398:Drivers/STM32F4xx_HAL_Driver/Inc/stm32f4xx_ll_usart.h **** 
 399:Drivers/STM32F4xx_HAL_Driver/Inc/stm32f4xx_ll_usart.h **** /** @defgroup USART_LL_EF_Configuration Configuration functions
 400:Drivers/STM32F4xx_HAL_Driver/Inc/stm32f4xx_ll_usart.h ****   * @{
 401:Drivers/STM32F4xx_HAL_Driver/Inc/stm32f4xx_ll_usart.h ****   */
 402:Drivers/STM32F4xx_HAL_Driver/Inc/stm32f4xx_ll_usart.h **** 
ARM GAS  C:\Users\zoosman\AppData\Local\Temp\ccgnoQ1j.s 			page 31


 403:Drivers/STM32F4xx_HAL_Driver/Inc/stm32f4xx_ll_usart.h **** /**
 404:Drivers/STM32F4xx_HAL_Driver/Inc/stm32f4xx_ll_usart.h ****   * @brief  USART Enable
 405:Drivers/STM32F4xx_HAL_Driver/Inc/stm32f4xx_ll_usart.h ****   * @rmtoll CR1          UE            LL_USART_Enable
 406:Drivers/STM32F4xx_HAL_Driver/Inc/stm32f4xx_ll_usart.h ****   * @param  USARTx USART Instance
 407:Drivers/STM32F4xx_HAL_Driver/Inc/stm32f4xx_ll_usart.h ****   * @retval None
 408:Drivers/STM32F4xx_HAL_Driver/Inc/stm32f4xx_ll_usart.h ****   */
 409:Drivers/STM32F4xx_HAL_Driver/Inc/stm32f4xx_ll_usart.h **** __STATIC_INLINE void LL_USART_Enable(USART_TypeDef *USARTx)
 410:Drivers/STM32F4xx_HAL_Driver/Inc/stm32f4xx_ll_usart.h **** {
 411:Drivers/STM32F4xx_HAL_Driver/Inc/stm32f4xx_ll_usart.h ****   SET_BIT(USARTx->CR1, USART_CR1_UE);
 412:Drivers/STM32F4xx_HAL_Driver/Inc/stm32f4xx_ll_usart.h **** }
 413:Drivers/STM32F4xx_HAL_Driver/Inc/stm32f4xx_ll_usart.h **** 
 414:Drivers/STM32F4xx_HAL_Driver/Inc/stm32f4xx_ll_usart.h **** /**
 415:Drivers/STM32F4xx_HAL_Driver/Inc/stm32f4xx_ll_usart.h ****   * @brief  USART Disable (all USART prescalers and outputs are disabled)
 416:Drivers/STM32F4xx_HAL_Driver/Inc/stm32f4xx_ll_usart.h ****   * @note   When USART is disabled, USART prescalers and outputs are stopped immediately,
 417:Drivers/STM32F4xx_HAL_Driver/Inc/stm32f4xx_ll_usart.h ****   *         and current operations are discarded. The configuration of the USART is kept, but all t
 418:Drivers/STM32F4xx_HAL_Driver/Inc/stm32f4xx_ll_usart.h ****   *         flags, in the USARTx_SR are set to their default values.
 419:Drivers/STM32F4xx_HAL_Driver/Inc/stm32f4xx_ll_usart.h ****   * @rmtoll CR1          UE            LL_USART_Disable
 420:Drivers/STM32F4xx_HAL_Driver/Inc/stm32f4xx_ll_usart.h ****   * @param  USARTx USART Instance
 421:Drivers/STM32F4xx_HAL_Driver/Inc/stm32f4xx_ll_usart.h ****   * @retval None
 422:Drivers/STM32F4xx_HAL_Driver/Inc/stm32f4xx_ll_usart.h ****   */
 423:Drivers/STM32F4xx_HAL_Driver/Inc/stm32f4xx_ll_usart.h **** __STATIC_INLINE void LL_USART_Disable(USART_TypeDef *USARTx)
 424:Drivers/STM32F4xx_HAL_Driver/Inc/stm32f4xx_ll_usart.h **** {
 425:Drivers/STM32F4xx_HAL_Driver/Inc/stm32f4xx_ll_usart.h ****   CLEAR_BIT(USARTx->CR1, USART_CR1_UE);
 426:Drivers/STM32F4xx_HAL_Driver/Inc/stm32f4xx_ll_usart.h **** }
 427:Drivers/STM32F4xx_HAL_Driver/Inc/stm32f4xx_ll_usart.h **** 
 428:Drivers/STM32F4xx_HAL_Driver/Inc/stm32f4xx_ll_usart.h **** /**
 429:Drivers/STM32F4xx_HAL_Driver/Inc/stm32f4xx_ll_usart.h ****   * @brief  Indicate if USART is enabled
 430:Drivers/STM32F4xx_HAL_Driver/Inc/stm32f4xx_ll_usart.h ****   * @rmtoll CR1          UE            LL_USART_IsEnabled
 431:Drivers/STM32F4xx_HAL_Driver/Inc/stm32f4xx_ll_usart.h ****   * @param  USARTx USART Instance
 432:Drivers/STM32F4xx_HAL_Driver/Inc/stm32f4xx_ll_usart.h ****   * @retval State of bit (1 or 0).
 433:Drivers/STM32F4xx_HAL_Driver/Inc/stm32f4xx_ll_usart.h ****   */
 434:Drivers/STM32F4xx_HAL_Driver/Inc/stm32f4xx_ll_usart.h **** __STATIC_INLINE uint32_t LL_USART_IsEnabled(USART_TypeDef *USARTx)
 435:Drivers/STM32F4xx_HAL_Driver/Inc/stm32f4xx_ll_usart.h **** {
 436:Drivers/STM32F4xx_HAL_Driver/Inc/stm32f4xx_ll_usart.h ****   return (READ_BIT(USARTx->CR1, USART_CR1_UE) == (USART_CR1_UE));
 437:Drivers/STM32F4xx_HAL_Driver/Inc/stm32f4xx_ll_usart.h **** }
 438:Drivers/STM32F4xx_HAL_Driver/Inc/stm32f4xx_ll_usart.h **** 
 439:Drivers/STM32F4xx_HAL_Driver/Inc/stm32f4xx_ll_usart.h **** /**
 440:Drivers/STM32F4xx_HAL_Driver/Inc/stm32f4xx_ll_usart.h ****   * @brief  Receiver Enable (Receiver is enabled and begins searching for a start bit)
 441:Drivers/STM32F4xx_HAL_Driver/Inc/stm32f4xx_ll_usart.h ****   * @rmtoll CR1          RE            LL_USART_EnableDirectionRx
 442:Drivers/STM32F4xx_HAL_Driver/Inc/stm32f4xx_ll_usart.h ****   * @param  USARTx USART Instance
 443:Drivers/STM32F4xx_HAL_Driver/Inc/stm32f4xx_ll_usart.h ****   * @retval None
 444:Drivers/STM32F4xx_HAL_Driver/Inc/stm32f4xx_ll_usart.h ****   */
 445:Drivers/STM32F4xx_HAL_Driver/Inc/stm32f4xx_ll_usart.h **** __STATIC_INLINE void LL_USART_EnableDirectionRx(USART_TypeDef *USARTx)
 446:Drivers/STM32F4xx_HAL_Driver/Inc/stm32f4xx_ll_usart.h **** {
 447:Drivers/STM32F4xx_HAL_Driver/Inc/stm32f4xx_ll_usart.h ****   SET_BIT(USARTx->CR1, USART_CR1_RE);
 448:Drivers/STM32F4xx_HAL_Driver/Inc/stm32f4xx_ll_usart.h **** }
 449:Drivers/STM32F4xx_HAL_Driver/Inc/stm32f4xx_ll_usart.h **** 
 450:Drivers/STM32F4xx_HAL_Driver/Inc/stm32f4xx_ll_usart.h **** /**
 451:Drivers/STM32F4xx_HAL_Driver/Inc/stm32f4xx_ll_usart.h ****   * @brief  Receiver Disable
 452:Drivers/STM32F4xx_HAL_Driver/Inc/stm32f4xx_ll_usart.h ****   * @rmtoll CR1          RE            LL_USART_DisableDirectionRx
 453:Drivers/STM32F4xx_HAL_Driver/Inc/stm32f4xx_ll_usart.h ****   * @param  USARTx USART Instance
 454:Drivers/STM32F4xx_HAL_Driver/Inc/stm32f4xx_ll_usart.h ****   * @retval None
 455:Drivers/STM32F4xx_HAL_Driver/Inc/stm32f4xx_ll_usart.h ****   */
 456:Drivers/STM32F4xx_HAL_Driver/Inc/stm32f4xx_ll_usart.h **** __STATIC_INLINE void LL_USART_DisableDirectionRx(USART_TypeDef *USARTx)
 457:Drivers/STM32F4xx_HAL_Driver/Inc/stm32f4xx_ll_usart.h **** {
 458:Drivers/STM32F4xx_HAL_Driver/Inc/stm32f4xx_ll_usart.h ****   CLEAR_BIT(USARTx->CR1, USART_CR1_RE);
 459:Drivers/STM32F4xx_HAL_Driver/Inc/stm32f4xx_ll_usart.h **** }
ARM GAS  C:\Users\zoosman\AppData\Local\Temp\ccgnoQ1j.s 			page 32


 460:Drivers/STM32F4xx_HAL_Driver/Inc/stm32f4xx_ll_usart.h **** 
 461:Drivers/STM32F4xx_HAL_Driver/Inc/stm32f4xx_ll_usart.h **** /**
 462:Drivers/STM32F4xx_HAL_Driver/Inc/stm32f4xx_ll_usart.h ****   * @brief  Transmitter Enable
 463:Drivers/STM32F4xx_HAL_Driver/Inc/stm32f4xx_ll_usart.h ****   * @rmtoll CR1          TE            LL_USART_EnableDirectionTx
 464:Drivers/STM32F4xx_HAL_Driver/Inc/stm32f4xx_ll_usart.h ****   * @param  USARTx USART Instance
 465:Drivers/STM32F4xx_HAL_Driver/Inc/stm32f4xx_ll_usart.h ****   * @retval None
 466:Drivers/STM32F4xx_HAL_Driver/Inc/stm32f4xx_ll_usart.h ****   */
 467:Drivers/STM32F4xx_HAL_Driver/Inc/stm32f4xx_ll_usart.h **** __STATIC_INLINE void LL_USART_EnableDirectionTx(USART_TypeDef *USARTx)
 468:Drivers/STM32F4xx_HAL_Driver/Inc/stm32f4xx_ll_usart.h **** {
 469:Drivers/STM32F4xx_HAL_Driver/Inc/stm32f4xx_ll_usart.h ****   SET_BIT(USARTx->CR1, USART_CR1_TE);
 470:Drivers/STM32F4xx_HAL_Driver/Inc/stm32f4xx_ll_usart.h **** }
 471:Drivers/STM32F4xx_HAL_Driver/Inc/stm32f4xx_ll_usart.h **** 
 472:Drivers/STM32F4xx_HAL_Driver/Inc/stm32f4xx_ll_usart.h **** /**
 473:Drivers/STM32F4xx_HAL_Driver/Inc/stm32f4xx_ll_usart.h ****   * @brief  Transmitter Disable
 474:Drivers/STM32F4xx_HAL_Driver/Inc/stm32f4xx_ll_usart.h ****   * @rmtoll CR1          TE            LL_USART_DisableDirectionTx
 475:Drivers/STM32F4xx_HAL_Driver/Inc/stm32f4xx_ll_usart.h ****   * @param  USARTx USART Instance
 476:Drivers/STM32F4xx_HAL_Driver/Inc/stm32f4xx_ll_usart.h ****   * @retval None
 477:Drivers/STM32F4xx_HAL_Driver/Inc/stm32f4xx_ll_usart.h ****   */
 478:Drivers/STM32F4xx_HAL_Driver/Inc/stm32f4xx_ll_usart.h **** __STATIC_INLINE void LL_USART_DisableDirectionTx(USART_TypeDef *USARTx)
 479:Drivers/STM32F4xx_HAL_Driver/Inc/stm32f4xx_ll_usart.h **** {
 480:Drivers/STM32F4xx_HAL_Driver/Inc/stm32f4xx_ll_usart.h ****   CLEAR_BIT(USARTx->CR1, USART_CR1_TE);
 481:Drivers/STM32F4xx_HAL_Driver/Inc/stm32f4xx_ll_usart.h **** }
 482:Drivers/STM32F4xx_HAL_Driver/Inc/stm32f4xx_ll_usart.h **** 
 483:Drivers/STM32F4xx_HAL_Driver/Inc/stm32f4xx_ll_usart.h **** /**
 484:Drivers/STM32F4xx_HAL_Driver/Inc/stm32f4xx_ll_usart.h ****   * @brief  Configure simultaneously enabled/disabled states
 485:Drivers/STM32F4xx_HAL_Driver/Inc/stm32f4xx_ll_usart.h ****   *         of Transmitter and Receiver
 486:Drivers/STM32F4xx_HAL_Driver/Inc/stm32f4xx_ll_usart.h ****   * @rmtoll CR1          RE            LL_USART_SetTransferDirection\n
 487:Drivers/STM32F4xx_HAL_Driver/Inc/stm32f4xx_ll_usart.h ****   *         CR1          TE            LL_USART_SetTransferDirection
 488:Drivers/STM32F4xx_HAL_Driver/Inc/stm32f4xx_ll_usart.h ****   * @param  USARTx USART Instance
 489:Drivers/STM32F4xx_HAL_Driver/Inc/stm32f4xx_ll_usart.h ****   * @param  TransferDirection This parameter can be one of the following values:
 490:Drivers/STM32F4xx_HAL_Driver/Inc/stm32f4xx_ll_usart.h ****   *         @arg @ref LL_USART_DIRECTION_NONE
 491:Drivers/STM32F4xx_HAL_Driver/Inc/stm32f4xx_ll_usart.h ****   *         @arg @ref LL_USART_DIRECTION_RX
 492:Drivers/STM32F4xx_HAL_Driver/Inc/stm32f4xx_ll_usart.h ****   *         @arg @ref LL_USART_DIRECTION_TX
 493:Drivers/STM32F4xx_HAL_Driver/Inc/stm32f4xx_ll_usart.h ****   *         @arg @ref LL_USART_DIRECTION_TX_RX
 494:Drivers/STM32F4xx_HAL_Driver/Inc/stm32f4xx_ll_usart.h ****   * @retval None
 495:Drivers/STM32F4xx_HAL_Driver/Inc/stm32f4xx_ll_usart.h ****   */
 496:Drivers/STM32F4xx_HAL_Driver/Inc/stm32f4xx_ll_usart.h **** __STATIC_INLINE void LL_USART_SetTransferDirection(USART_TypeDef *USARTx, uint32_t TransferDirectio
 497:Drivers/STM32F4xx_HAL_Driver/Inc/stm32f4xx_ll_usart.h **** {
 498:Drivers/STM32F4xx_HAL_Driver/Inc/stm32f4xx_ll_usart.h ****   MODIFY_REG(USARTx->CR1, USART_CR1_RE | USART_CR1_TE, TransferDirection);
 499:Drivers/STM32F4xx_HAL_Driver/Inc/stm32f4xx_ll_usart.h **** }
 500:Drivers/STM32F4xx_HAL_Driver/Inc/stm32f4xx_ll_usart.h **** 
 501:Drivers/STM32F4xx_HAL_Driver/Inc/stm32f4xx_ll_usart.h **** /**
 502:Drivers/STM32F4xx_HAL_Driver/Inc/stm32f4xx_ll_usart.h ****   * @brief  Return enabled/disabled states of Transmitter and Receiver
 503:Drivers/STM32F4xx_HAL_Driver/Inc/stm32f4xx_ll_usart.h ****   * @rmtoll CR1          RE            LL_USART_GetTransferDirection\n
 504:Drivers/STM32F4xx_HAL_Driver/Inc/stm32f4xx_ll_usart.h ****   *         CR1          TE            LL_USART_GetTransferDirection
 505:Drivers/STM32F4xx_HAL_Driver/Inc/stm32f4xx_ll_usart.h ****   * @param  USARTx USART Instance
 506:Drivers/STM32F4xx_HAL_Driver/Inc/stm32f4xx_ll_usart.h ****   * @retval Returned value can be one of the following values:
 507:Drivers/STM32F4xx_HAL_Driver/Inc/stm32f4xx_ll_usart.h ****   *         @arg @ref LL_USART_DIRECTION_NONE
 508:Drivers/STM32F4xx_HAL_Driver/Inc/stm32f4xx_ll_usart.h ****   *         @arg @ref LL_USART_DIRECTION_RX
 509:Drivers/STM32F4xx_HAL_Driver/Inc/stm32f4xx_ll_usart.h ****   *         @arg @ref LL_USART_DIRECTION_TX
 510:Drivers/STM32F4xx_HAL_Driver/Inc/stm32f4xx_ll_usart.h ****   *         @arg @ref LL_USART_DIRECTION_TX_RX
 511:Drivers/STM32F4xx_HAL_Driver/Inc/stm32f4xx_ll_usart.h ****   */
 512:Drivers/STM32F4xx_HAL_Driver/Inc/stm32f4xx_ll_usart.h **** __STATIC_INLINE uint32_t LL_USART_GetTransferDirection(USART_TypeDef *USARTx)
 513:Drivers/STM32F4xx_HAL_Driver/Inc/stm32f4xx_ll_usart.h **** {
 514:Drivers/STM32F4xx_HAL_Driver/Inc/stm32f4xx_ll_usart.h ****   return (uint32_t)(READ_BIT(USARTx->CR1, USART_CR1_RE | USART_CR1_TE));
 515:Drivers/STM32F4xx_HAL_Driver/Inc/stm32f4xx_ll_usart.h **** }
 516:Drivers/STM32F4xx_HAL_Driver/Inc/stm32f4xx_ll_usart.h **** 
ARM GAS  C:\Users\zoosman\AppData\Local\Temp\ccgnoQ1j.s 			page 33


 517:Drivers/STM32F4xx_HAL_Driver/Inc/stm32f4xx_ll_usart.h **** /**
 518:Drivers/STM32F4xx_HAL_Driver/Inc/stm32f4xx_ll_usart.h ****   * @brief  Configure Parity (enabled/disabled and parity mode if enabled).
 519:Drivers/STM32F4xx_HAL_Driver/Inc/stm32f4xx_ll_usart.h ****   * @note   This function selects if hardware parity control (generation and detection) is enabled 
 520:Drivers/STM32F4xx_HAL_Driver/Inc/stm32f4xx_ll_usart.h ****   *         When the parity control is enabled (Odd or Even), computed parity bit is inserted at th
 521:Drivers/STM32F4xx_HAL_Driver/Inc/stm32f4xx_ll_usart.h ****   *         (9th or 8th bit depending on data width) and parity is checked on the received data.
 522:Drivers/STM32F4xx_HAL_Driver/Inc/stm32f4xx_ll_usart.h ****   * @rmtoll CR1          PS            LL_USART_SetParity\n
 523:Drivers/STM32F4xx_HAL_Driver/Inc/stm32f4xx_ll_usart.h ****   *         CR1          PCE           LL_USART_SetParity
 524:Drivers/STM32F4xx_HAL_Driver/Inc/stm32f4xx_ll_usart.h ****   * @param  USARTx USART Instance
 525:Drivers/STM32F4xx_HAL_Driver/Inc/stm32f4xx_ll_usart.h ****   * @param  Parity This parameter can be one of the following values:
 526:Drivers/STM32F4xx_HAL_Driver/Inc/stm32f4xx_ll_usart.h ****   *         @arg @ref LL_USART_PARITY_NONE
 527:Drivers/STM32F4xx_HAL_Driver/Inc/stm32f4xx_ll_usart.h ****   *         @arg @ref LL_USART_PARITY_EVEN
 528:Drivers/STM32F4xx_HAL_Driver/Inc/stm32f4xx_ll_usart.h ****   *         @arg @ref LL_USART_PARITY_ODD
 529:Drivers/STM32F4xx_HAL_Driver/Inc/stm32f4xx_ll_usart.h ****   * @retval None
 530:Drivers/STM32F4xx_HAL_Driver/Inc/stm32f4xx_ll_usart.h ****   */
 531:Drivers/STM32F4xx_HAL_Driver/Inc/stm32f4xx_ll_usart.h **** __STATIC_INLINE void LL_USART_SetParity(USART_TypeDef *USARTx, uint32_t Parity)
 532:Drivers/STM32F4xx_HAL_Driver/Inc/stm32f4xx_ll_usart.h **** {
 533:Drivers/STM32F4xx_HAL_Driver/Inc/stm32f4xx_ll_usart.h ****   MODIFY_REG(USARTx->CR1, USART_CR1_PS | USART_CR1_PCE, Parity);
 534:Drivers/STM32F4xx_HAL_Driver/Inc/stm32f4xx_ll_usart.h **** }
 535:Drivers/STM32F4xx_HAL_Driver/Inc/stm32f4xx_ll_usart.h **** 
 536:Drivers/STM32F4xx_HAL_Driver/Inc/stm32f4xx_ll_usart.h **** /**
 537:Drivers/STM32F4xx_HAL_Driver/Inc/stm32f4xx_ll_usart.h ****   * @brief  Return Parity configuration (enabled/disabled and parity mode if enabled)
 538:Drivers/STM32F4xx_HAL_Driver/Inc/stm32f4xx_ll_usart.h ****   * @rmtoll CR1          PS            LL_USART_GetParity\n
 539:Drivers/STM32F4xx_HAL_Driver/Inc/stm32f4xx_ll_usart.h ****   *         CR1          PCE           LL_USART_GetParity
 540:Drivers/STM32F4xx_HAL_Driver/Inc/stm32f4xx_ll_usart.h ****   * @param  USARTx USART Instance
 541:Drivers/STM32F4xx_HAL_Driver/Inc/stm32f4xx_ll_usart.h ****   * @retval Returned value can be one of the following values:
 542:Drivers/STM32F4xx_HAL_Driver/Inc/stm32f4xx_ll_usart.h ****   *         @arg @ref LL_USART_PARITY_NONE
 543:Drivers/STM32F4xx_HAL_Driver/Inc/stm32f4xx_ll_usart.h ****   *         @arg @ref LL_USART_PARITY_EVEN
 544:Drivers/STM32F4xx_HAL_Driver/Inc/stm32f4xx_ll_usart.h ****   *         @arg @ref LL_USART_PARITY_ODD
 545:Drivers/STM32F4xx_HAL_Driver/Inc/stm32f4xx_ll_usart.h ****   */
 546:Drivers/STM32F4xx_HAL_Driver/Inc/stm32f4xx_ll_usart.h **** __STATIC_INLINE uint32_t LL_USART_GetParity(USART_TypeDef *USARTx)
 547:Drivers/STM32F4xx_HAL_Driver/Inc/stm32f4xx_ll_usart.h **** {
 548:Drivers/STM32F4xx_HAL_Driver/Inc/stm32f4xx_ll_usart.h ****   return (uint32_t)(READ_BIT(USARTx->CR1, USART_CR1_PS | USART_CR1_PCE));
 549:Drivers/STM32F4xx_HAL_Driver/Inc/stm32f4xx_ll_usart.h **** }
 550:Drivers/STM32F4xx_HAL_Driver/Inc/stm32f4xx_ll_usart.h **** 
 551:Drivers/STM32F4xx_HAL_Driver/Inc/stm32f4xx_ll_usart.h **** /**
 552:Drivers/STM32F4xx_HAL_Driver/Inc/stm32f4xx_ll_usart.h ****   * @brief  Set Receiver Wake Up method from Mute mode.
 553:Drivers/STM32F4xx_HAL_Driver/Inc/stm32f4xx_ll_usart.h ****   * @rmtoll CR1          WAKE          LL_USART_SetWakeUpMethod
 554:Drivers/STM32F4xx_HAL_Driver/Inc/stm32f4xx_ll_usart.h ****   * @param  USARTx USART Instance
 555:Drivers/STM32F4xx_HAL_Driver/Inc/stm32f4xx_ll_usart.h ****   * @param  Method This parameter can be one of the following values:
 556:Drivers/STM32F4xx_HAL_Driver/Inc/stm32f4xx_ll_usart.h ****   *         @arg @ref LL_USART_WAKEUP_IDLELINE
 557:Drivers/STM32F4xx_HAL_Driver/Inc/stm32f4xx_ll_usart.h ****   *         @arg @ref LL_USART_WAKEUP_ADDRESSMARK
 558:Drivers/STM32F4xx_HAL_Driver/Inc/stm32f4xx_ll_usart.h ****   * @retval None
 559:Drivers/STM32F4xx_HAL_Driver/Inc/stm32f4xx_ll_usart.h ****   */
 560:Drivers/STM32F4xx_HAL_Driver/Inc/stm32f4xx_ll_usart.h **** __STATIC_INLINE void LL_USART_SetWakeUpMethod(USART_TypeDef *USARTx, uint32_t Method)
 561:Drivers/STM32F4xx_HAL_Driver/Inc/stm32f4xx_ll_usart.h **** {
 562:Drivers/STM32F4xx_HAL_Driver/Inc/stm32f4xx_ll_usart.h ****   MODIFY_REG(USARTx->CR1, USART_CR1_WAKE, Method);
 563:Drivers/STM32F4xx_HAL_Driver/Inc/stm32f4xx_ll_usart.h **** }
 564:Drivers/STM32F4xx_HAL_Driver/Inc/stm32f4xx_ll_usart.h **** 
 565:Drivers/STM32F4xx_HAL_Driver/Inc/stm32f4xx_ll_usart.h **** /**
 566:Drivers/STM32F4xx_HAL_Driver/Inc/stm32f4xx_ll_usart.h ****   * @brief  Return Receiver Wake Up method from Mute mode
 567:Drivers/STM32F4xx_HAL_Driver/Inc/stm32f4xx_ll_usart.h ****   * @rmtoll CR1          WAKE          LL_USART_GetWakeUpMethod
 568:Drivers/STM32F4xx_HAL_Driver/Inc/stm32f4xx_ll_usart.h ****   * @param  USARTx USART Instance
 569:Drivers/STM32F4xx_HAL_Driver/Inc/stm32f4xx_ll_usart.h ****   * @retval Returned value can be one of the following values:
 570:Drivers/STM32F4xx_HAL_Driver/Inc/stm32f4xx_ll_usart.h ****   *         @arg @ref LL_USART_WAKEUP_IDLELINE
 571:Drivers/STM32F4xx_HAL_Driver/Inc/stm32f4xx_ll_usart.h ****   *         @arg @ref LL_USART_WAKEUP_ADDRESSMARK
 572:Drivers/STM32F4xx_HAL_Driver/Inc/stm32f4xx_ll_usart.h ****   */
 573:Drivers/STM32F4xx_HAL_Driver/Inc/stm32f4xx_ll_usart.h **** __STATIC_INLINE uint32_t LL_USART_GetWakeUpMethod(USART_TypeDef *USARTx)
ARM GAS  C:\Users\zoosman\AppData\Local\Temp\ccgnoQ1j.s 			page 34


 574:Drivers/STM32F4xx_HAL_Driver/Inc/stm32f4xx_ll_usart.h **** {
 575:Drivers/STM32F4xx_HAL_Driver/Inc/stm32f4xx_ll_usart.h ****   return (uint32_t)(READ_BIT(USARTx->CR1, USART_CR1_WAKE));
 576:Drivers/STM32F4xx_HAL_Driver/Inc/stm32f4xx_ll_usart.h **** }
 577:Drivers/STM32F4xx_HAL_Driver/Inc/stm32f4xx_ll_usart.h **** 
 578:Drivers/STM32F4xx_HAL_Driver/Inc/stm32f4xx_ll_usart.h **** /**
 579:Drivers/STM32F4xx_HAL_Driver/Inc/stm32f4xx_ll_usart.h ****   * @brief  Set Word length (i.e. nb of data bits, excluding start and stop bits)
 580:Drivers/STM32F4xx_HAL_Driver/Inc/stm32f4xx_ll_usart.h ****   * @rmtoll CR1          M             LL_USART_SetDataWidth
 581:Drivers/STM32F4xx_HAL_Driver/Inc/stm32f4xx_ll_usart.h ****   * @param  USARTx USART Instance
 582:Drivers/STM32F4xx_HAL_Driver/Inc/stm32f4xx_ll_usart.h ****   * @param  DataWidth This parameter can be one of the following values:
 583:Drivers/STM32F4xx_HAL_Driver/Inc/stm32f4xx_ll_usart.h ****   *         @arg @ref LL_USART_DATAWIDTH_8B
 584:Drivers/STM32F4xx_HAL_Driver/Inc/stm32f4xx_ll_usart.h ****   *         @arg @ref LL_USART_DATAWIDTH_9B
 585:Drivers/STM32F4xx_HAL_Driver/Inc/stm32f4xx_ll_usart.h ****   * @retval None
 586:Drivers/STM32F4xx_HAL_Driver/Inc/stm32f4xx_ll_usart.h ****   */
 587:Drivers/STM32F4xx_HAL_Driver/Inc/stm32f4xx_ll_usart.h **** __STATIC_INLINE void LL_USART_SetDataWidth(USART_TypeDef *USARTx, uint32_t DataWidth)
 588:Drivers/STM32F4xx_HAL_Driver/Inc/stm32f4xx_ll_usart.h **** {
 589:Drivers/STM32F4xx_HAL_Driver/Inc/stm32f4xx_ll_usart.h ****   MODIFY_REG(USARTx->CR1, USART_CR1_M, DataWidth);
 590:Drivers/STM32F4xx_HAL_Driver/Inc/stm32f4xx_ll_usart.h **** }
 591:Drivers/STM32F4xx_HAL_Driver/Inc/stm32f4xx_ll_usart.h **** 
 592:Drivers/STM32F4xx_HAL_Driver/Inc/stm32f4xx_ll_usart.h **** /**
 593:Drivers/STM32F4xx_HAL_Driver/Inc/stm32f4xx_ll_usart.h ****   * @brief  Return Word length (i.e. nb of data bits, excluding start and stop bits)
 594:Drivers/STM32F4xx_HAL_Driver/Inc/stm32f4xx_ll_usart.h ****   * @rmtoll CR1          M             LL_USART_GetDataWidth
 595:Drivers/STM32F4xx_HAL_Driver/Inc/stm32f4xx_ll_usart.h ****   * @param  USARTx USART Instance
 596:Drivers/STM32F4xx_HAL_Driver/Inc/stm32f4xx_ll_usart.h ****   * @retval Returned value can be one of the following values:
 597:Drivers/STM32F4xx_HAL_Driver/Inc/stm32f4xx_ll_usart.h ****   *         @arg @ref LL_USART_DATAWIDTH_8B
 598:Drivers/STM32F4xx_HAL_Driver/Inc/stm32f4xx_ll_usart.h ****   *         @arg @ref LL_USART_DATAWIDTH_9B
 599:Drivers/STM32F4xx_HAL_Driver/Inc/stm32f4xx_ll_usart.h ****   */
 600:Drivers/STM32F4xx_HAL_Driver/Inc/stm32f4xx_ll_usart.h **** __STATIC_INLINE uint32_t LL_USART_GetDataWidth(USART_TypeDef *USARTx)
 601:Drivers/STM32F4xx_HAL_Driver/Inc/stm32f4xx_ll_usart.h **** {
 602:Drivers/STM32F4xx_HAL_Driver/Inc/stm32f4xx_ll_usart.h ****   return (uint32_t)(READ_BIT(USARTx->CR1, USART_CR1_M));
 603:Drivers/STM32F4xx_HAL_Driver/Inc/stm32f4xx_ll_usart.h **** }
 604:Drivers/STM32F4xx_HAL_Driver/Inc/stm32f4xx_ll_usart.h **** 
 605:Drivers/STM32F4xx_HAL_Driver/Inc/stm32f4xx_ll_usart.h **** /**
 606:Drivers/STM32F4xx_HAL_Driver/Inc/stm32f4xx_ll_usart.h ****   * @brief  Set Oversampling to 8-bit or 16-bit mode
 607:Drivers/STM32F4xx_HAL_Driver/Inc/stm32f4xx_ll_usart.h ****   * @rmtoll CR1          OVER8         LL_USART_SetOverSampling
 608:Drivers/STM32F4xx_HAL_Driver/Inc/stm32f4xx_ll_usart.h ****   * @param  USARTx USART Instance
 609:Drivers/STM32F4xx_HAL_Driver/Inc/stm32f4xx_ll_usart.h ****   * @param  OverSampling This parameter can be one of the following values:
 610:Drivers/STM32F4xx_HAL_Driver/Inc/stm32f4xx_ll_usart.h ****   *         @arg @ref LL_USART_OVERSAMPLING_16
 611:Drivers/STM32F4xx_HAL_Driver/Inc/stm32f4xx_ll_usart.h ****   *         @arg @ref LL_USART_OVERSAMPLING_8
 612:Drivers/STM32F4xx_HAL_Driver/Inc/stm32f4xx_ll_usart.h ****   * @retval None
 613:Drivers/STM32F4xx_HAL_Driver/Inc/stm32f4xx_ll_usart.h ****   */
 614:Drivers/STM32F4xx_HAL_Driver/Inc/stm32f4xx_ll_usart.h **** __STATIC_INLINE void LL_USART_SetOverSampling(USART_TypeDef *USARTx, uint32_t OverSampling)
 615:Drivers/STM32F4xx_HAL_Driver/Inc/stm32f4xx_ll_usart.h **** {
 616:Drivers/STM32F4xx_HAL_Driver/Inc/stm32f4xx_ll_usart.h ****   MODIFY_REG(USARTx->CR1, USART_CR1_OVER8, OverSampling);
 617:Drivers/STM32F4xx_HAL_Driver/Inc/stm32f4xx_ll_usart.h **** }
 618:Drivers/STM32F4xx_HAL_Driver/Inc/stm32f4xx_ll_usart.h **** 
 619:Drivers/STM32F4xx_HAL_Driver/Inc/stm32f4xx_ll_usart.h **** /**
 620:Drivers/STM32F4xx_HAL_Driver/Inc/stm32f4xx_ll_usart.h ****   * @brief  Return Oversampling mode
 621:Drivers/STM32F4xx_HAL_Driver/Inc/stm32f4xx_ll_usart.h ****   * @rmtoll CR1          OVER8         LL_USART_GetOverSampling
 622:Drivers/STM32F4xx_HAL_Driver/Inc/stm32f4xx_ll_usart.h ****   * @param  USARTx USART Instance
 623:Drivers/STM32F4xx_HAL_Driver/Inc/stm32f4xx_ll_usart.h ****   * @retval Returned value can be one of the following values:
 624:Drivers/STM32F4xx_HAL_Driver/Inc/stm32f4xx_ll_usart.h ****   *         @arg @ref LL_USART_OVERSAMPLING_16
 625:Drivers/STM32F4xx_HAL_Driver/Inc/stm32f4xx_ll_usart.h ****   *         @arg @ref LL_USART_OVERSAMPLING_8
 626:Drivers/STM32F4xx_HAL_Driver/Inc/stm32f4xx_ll_usart.h ****   */
 627:Drivers/STM32F4xx_HAL_Driver/Inc/stm32f4xx_ll_usart.h **** __STATIC_INLINE uint32_t LL_USART_GetOverSampling(USART_TypeDef *USARTx)
 628:Drivers/STM32F4xx_HAL_Driver/Inc/stm32f4xx_ll_usart.h **** {
 629:Drivers/STM32F4xx_HAL_Driver/Inc/stm32f4xx_ll_usart.h ****   return (uint32_t)(READ_BIT(USARTx->CR1, USART_CR1_OVER8));
 630:Drivers/STM32F4xx_HAL_Driver/Inc/stm32f4xx_ll_usart.h **** }
ARM GAS  C:\Users\zoosman\AppData\Local\Temp\ccgnoQ1j.s 			page 35


 631:Drivers/STM32F4xx_HAL_Driver/Inc/stm32f4xx_ll_usart.h **** 
 632:Drivers/STM32F4xx_HAL_Driver/Inc/stm32f4xx_ll_usart.h **** /**
 633:Drivers/STM32F4xx_HAL_Driver/Inc/stm32f4xx_ll_usart.h ****   * @brief  Configure if Clock pulse of the last data bit is output to the SCLK pin or not
 634:Drivers/STM32F4xx_HAL_Driver/Inc/stm32f4xx_ll_usart.h ****   * @note   Macro @ref IS_USART_INSTANCE(USARTx) can be used to check whether or not
 635:Drivers/STM32F4xx_HAL_Driver/Inc/stm32f4xx_ll_usart.h ****   *         Synchronous mode is supported by the USARTx instance.
 636:Drivers/STM32F4xx_HAL_Driver/Inc/stm32f4xx_ll_usart.h ****   * @rmtoll CR2          LBCL          LL_USART_SetLastClkPulseOutput
 637:Drivers/STM32F4xx_HAL_Driver/Inc/stm32f4xx_ll_usart.h ****   * @param  USARTx USART Instance
 638:Drivers/STM32F4xx_HAL_Driver/Inc/stm32f4xx_ll_usart.h ****   * @param  LastBitClockPulse This parameter can be one of the following values:
 639:Drivers/STM32F4xx_HAL_Driver/Inc/stm32f4xx_ll_usart.h ****   *         @arg @ref LL_USART_LASTCLKPULSE_NO_OUTPUT
 640:Drivers/STM32F4xx_HAL_Driver/Inc/stm32f4xx_ll_usart.h ****   *         @arg @ref LL_USART_LASTCLKPULSE_OUTPUT
 641:Drivers/STM32F4xx_HAL_Driver/Inc/stm32f4xx_ll_usart.h ****   * @retval None
 642:Drivers/STM32F4xx_HAL_Driver/Inc/stm32f4xx_ll_usart.h ****   */
 643:Drivers/STM32F4xx_HAL_Driver/Inc/stm32f4xx_ll_usart.h **** __STATIC_INLINE void LL_USART_SetLastClkPulseOutput(USART_TypeDef *USARTx, uint32_t LastBitClockPul
 644:Drivers/STM32F4xx_HAL_Driver/Inc/stm32f4xx_ll_usart.h **** {
 645:Drivers/STM32F4xx_HAL_Driver/Inc/stm32f4xx_ll_usart.h ****   MODIFY_REG(USARTx->CR2, USART_CR2_LBCL, LastBitClockPulse);
 646:Drivers/STM32F4xx_HAL_Driver/Inc/stm32f4xx_ll_usart.h **** }
 647:Drivers/STM32F4xx_HAL_Driver/Inc/stm32f4xx_ll_usart.h **** 
 648:Drivers/STM32F4xx_HAL_Driver/Inc/stm32f4xx_ll_usart.h **** /**
 649:Drivers/STM32F4xx_HAL_Driver/Inc/stm32f4xx_ll_usart.h ****   * @brief  Retrieve Clock pulse of the last data bit output configuration
 650:Drivers/STM32F4xx_HAL_Driver/Inc/stm32f4xx_ll_usart.h ****   *         (Last bit Clock pulse output to the SCLK pin or not)
 651:Drivers/STM32F4xx_HAL_Driver/Inc/stm32f4xx_ll_usart.h ****   * @note   Macro @ref IS_USART_INSTANCE(USARTx) can be used to check whether or not
 652:Drivers/STM32F4xx_HAL_Driver/Inc/stm32f4xx_ll_usart.h ****   *         Synchronous mode is supported by the USARTx instance.
 653:Drivers/STM32F4xx_HAL_Driver/Inc/stm32f4xx_ll_usart.h ****   * @rmtoll CR2          LBCL          LL_USART_GetLastClkPulseOutput
 654:Drivers/STM32F4xx_HAL_Driver/Inc/stm32f4xx_ll_usart.h ****   * @param  USARTx USART Instance
 655:Drivers/STM32F4xx_HAL_Driver/Inc/stm32f4xx_ll_usart.h ****   * @retval Returned value can be one of the following values:
 656:Drivers/STM32F4xx_HAL_Driver/Inc/stm32f4xx_ll_usart.h ****   *         @arg @ref LL_USART_LASTCLKPULSE_NO_OUTPUT
 657:Drivers/STM32F4xx_HAL_Driver/Inc/stm32f4xx_ll_usart.h ****   *         @arg @ref LL_USART_LASTCLKPULSE_OUTPUT
 658:Drivers/STM32F4xx_HAL_Driver/Inc/stm32f4xx_ll_usart.h ****   */
 659:Drivers/STM32F4xx_HAL_Driver/Inc/stm32f4xx_ll_usart.h **** __STATIC_INLINE uint32_t LL_USART_GetLastClkPulseOutput(USART_TypeDef *USARTx)
 660:Drivers/STM32F4xx_HAL_Driver/Inc/stm32f4xx_ll_usart.h **** {
 661:Drivers/STM32F4xx_HAL_Driver/Inc/stm32f4xx_ll_usart.h ****   return (uint32_t)(READ_BIT(USARTx->CR2, USART_CR2_LBCL));
 662:Drivers/STM32F4xx_HAL_Driver/Inc/stm32f4xx_ll_usart.h **** }
 663:Drivers/STM32F4xx_HAL_Driver/Inc/stm32f4xx_ll_usart.h **** 
 664:Drivers/STM32F4xx_HAL_Driver/Inc/stm32f4xx_ll_usart.h **** /**
 665:Drivers/STM32F4xx_HAL_Driver/Inc/stm32f4xx_ll_usart.h ****   * @brief  Select the phase of the clock output on the SCLK pin in synchronous mode
 666:Drivers/STM32F4xx_HAL_Driver/Inc/stm32f4xx_ll_usart.h ****   * @note   Macro @ref IS_USART_INSTANCE(USARTx) can be used to check whether or not
 667:Drivers/STM32F4xx_HAL_Driver/Inc/stm32f4xx_ll_usart.h ****   *         Synchronous mode is supported by the USARTx instance.
 668:Drivers/STM32F4xx_HAL_Driver/Inc/stm32f4xx_ll_usart.h ****   * @rmtoll CR2          CPHA          LL_USART_SetClockPhase
 669:Drivers/STM32F4xx_HAL_Driver/Inc/stm32f4xx_ll_usart.h ****   * @param  USARTx USART Instance
 670:Drivers/STM32F4xx_HAL_Driver/Inc/stm32f4xx_ll_usart.h ****   * @param  ClockPhase This parameter can be one of the following values:
 671:Drivers/STM32F4xx_HAL_Driver/Inc/stm32f4xx_ll_usart.h ****   *         @arg @ref LL_USART_PHASE_1EDGE
 672:Drivers/STM32F4xx_HAL_Driver/Inc/stm32f4xx_ll_usart.h ****   *         @arg @ref LL_USART_PHASE_2EDGE
 673:Drivers/STM32F4xx_HAL_Driver/Inc/stm32f4xx_ll_usart.h ****   * @retval None
 674:Drivers/STM32F4xx_HAL_Driver/Inc/stm32f4xx_ll_usart.h ****   */
 675:Drivers/STM32F4xx_HAL_Driver/Inc/stm32f4xx_ll_usart.h **** __STATIC_INLINE void LL_USART_SetClockPhase(USART_TypeDef *USARTx, uint32_t ClockPhase)
 676:Drivers/STM32F4xx_HAL_Driver/Inc/stm32f4xx_ll_usart.h **** {
 677:Drivers/STM32F4xx_HAL_Driver/Inc/stm32f4xx_ll_usart.h ****   MODIFY_REG(USARTx->CR2, USART_CR2_CPHA, ClockPhase);
 678:Drivers/STM32F4xx_HAL_Driver/Inc/stm32f4xx_ll_usart.h **** }
 679:Drivers/STM32F4xx_HAL_Driver/Inc/stm32f4xx_ll_usart.h **** 
 680:Drivers/STM32F4xx_HAL_Driver/Inc/stm32f4xx_ll_usart.h **** /**
 681:Drivers/STM32F4xx_HAL_Driver/Inc/stm32f4xx_ll_usart.h ****   * @brief  Return phase of the clock output on the SCLK pin in synchronous mode
 682:Drivers/STM32F4xx_HAL_Driver/Inc/stm32f4xx_ll_usart.h ****   * @note   Macro @ref IS_USART_INSTANCE(USARTx) can be used to check whether or not
 683:Drivers/STM32F4xx_HAL_Driver/Inc/stm32f4xx_ll_usart.h ****   *         Synchronous mode is supported by the USARTx instance.
 684:Drivers/STM32F4xx_HAL_Driver/Inc/stm32f4xx_ll_usart.h ****   * @rmtoll CR2          CPHA          LL_USART_GetClockPhase
 685:Drivers/STM32F4xx_HAL_Driver/Inc/stm32f4xx_ll_usart.h ****   * @param  USARTx USART Instance
 686:Drivers/STM32F4xx_HAL_Driver/Inc/stm32f4xx_ll_usart.h ****   * @retval Returned value can be one of the following values:
 687:Drivers/STM32F4xx_HAL_Driver/Inc/stm32f4xx_ll_usart.h ****   *         @arg @ref LL_USART_PHASE_1EDGE
ARM GAS  C:\Users\zoosman\AppData\Local\Temp\ccgnoQ1j.s 			page 36


 688:Drivers/STM32F4xx_HAL_Driver/Inc/stm32f4xx_ll_usart.h ****   *         @arg @ref LL_USART_PHASE_2EDGE
 689:Drivers/STM32F4xx_HAL_Driver/Inc/stm32f4xx_ll_usart.h ****   */
 690:Drivers/STM32F4xx_HAL_Driver/Inc/stm32f4xx_ll_usart.h **** __STATIC_INLINE uint32_t LL_USART_GetClockPhase(USART_TypeDef *USARTx)
 691:Drivers/STM32F4xx_HAL_Driver/Inc/stm32f4xx_ll_usart.h **** {
 692:Drivers/STM32F4xx_HAL_Driver/Inc/stm32f4xx_ll_usart.h ****   return (uint32_t)(READ_BIT(USARTx->CR2, USART_CR2_CPHA));
 693:Drivers/STM32F4xx_HAL_Driver/Inc/stm32f4xx_ll_usart.h **** }
 694:Drivers/STM32F4xx_HAL_Driver/Inc/stm32f4xx_ll_usart.h **** 
 695:Drivers/STM32F4xx_HAL_Driver/Inc/stm32f4xx_ll_usart.h **** /**
 696:Drivers/STM32F4xx_HAL_Driver/Inc/stm32f4xx_ll_usart.h ****   * @brief  Select the polarity of the clock output on the SCLK pin in synchronous mode
 697:Drivers/STM32F4xx_HAL_Driver/Inc/stm32f4xx_ll_usart.h ****   * @note   Macro @ref IS_USART_INSTANCE(USARTx) can be used to check whether or not
 698:Drivers/STM32F4xx_HAL_Driver/Inc/stm32f4xx_ll_usart.h ****   *         Synchronous mode is supported by the USARTx instance.
 699:Drivers/STM32F4xx_HAL_Driver/Inc/stm32f4xx_ll_usart.h ****   * @rmtoll CR2          CPOL          LL_USART_SetClockPolarity
 700:Drivers/STM32F4xx_HAL_Driver/Inc/stm32f4xx_ll_usart.h ****   * @param  USARTx USART Instance
 701:Drivers/STM32F4xx_HAL_Driver/Inc/stm32f4xx_ll_usart.h ****   * @param  ClockPolarity This parameter can be one of the following values:
 702:Drivers/STM32F4xx_HAL_Driver/Inc/stm32f4xx_ll_usart.h ****   *         @arg @ref LL_USART_POLARITY_LOW
 703:Drivers/STM32F4xx_HAL_Driver/Inc/stm32f4xx_ll_usart.h ****   *         @arg @ref LL_USART_POLARITY_HIGH
 704:Drivers/STM32F4xx_HAL_Driver/Inc/stm32f4xx_ll_usart.h ****   * @retval None
 705:Drivers/STM32F4xx_HAL_Driver/Inc/stm32f4xx_ll_usart.h ****   */
 706:Drivers/STM32F4xx_HAL_Driver/Inc/stm32f4xx_ll_usart.h **** __STATIC_INLINE void LL_USART_SetClockPolarity(USART_TypeDef *USARTx, uint32_t ClockPolarity)
 707:Drivers/STM32F4xx_HAL_Driver/Inc/stm32f4xx_ll_usart.h **** {
 708:Drivers/STM32F4xx_HAL_Driver/Inc/stm32f4xx_ll_usart.h ****   MODIFY_REG(USARTx->CR2, USART_CR2_CPOL, ClockPolarity);
 709:Drivers/STM32F4xx_HAL_Driver/Inc/stm32f4xx_ll_usart.h **** }
 710:Drivers/STM32F4xx_HAL_Driver/Inc/stm32f4xx_ll_usart.h **** 
 711:Drivers/STM32F4xx_HAL_Driver/Inc/stm32f4xx_ll_usart.h **** /**
 712:Drivers/STM32F4xx_HAL_Driver/Inc/stm32f4xx_ll_usart.h ****   * @brief  Return polarity of the clock output on the SCLK pin in synchronous mode
 713:Drivers/STM32F4xx_HAL_Driver/Inc/stm32f4xx_ll_usart.h ****   * @note   Macro @ref IS_USART_INSTANCE(USARTx) can be used to check whether or not
 714:Drivers/STM32F4xx_HAL_Driver/Inc/stm32f4xx_ll_usart.h ****   *         Synchronous mode is supported by the USARTx instance.
 715:Drivers/STM32F4xx_HAL_Driver/Inc/stm32f4xx_ll_usart.h ****   * @rmtoll CR2          CPOL          LL_USART_GetClockPolarity
 716:Drivers/STM32F4xx_HAL_Driver/Inc/stm32f4xx_ll_usart.h ****   * @param  USARTx USART Instance
 717:Drivers/STM32F4xx_HAL_Driver/Inc/stm32f4xx_ll_usart.h ****   * @retval Returned value can be one of the following values:
 718:Drivers/STM32F4xx_HAL_Driver/Inc/stm32f4xx_ll_usart.h ****   *         @arg @ref LL_USART_POLARITY_LOW
 719:Drivers/STM32F4xx_HAL_Driver/Inc/stm32f4xx_ll_usart.h ****   *         @arg @ref LL_USART_POLARITY_HIGH
 720:Drivers/STM32F4xx_HAL_Driver/Inc/stm32f4xx_ll_usart.h ****   */
 721:Drivers/STM32F4xx_HAL_Driver/Inc/stm32f4xx_ll_usart.h **** __STATIC_INLINE uint32_t LL_USART_GetClockPolarity(USART_TypeDef *USARTx)
 722:Drivers/STM32F4xx_HAL_Driver/Inc/stm32f4xx_ll_usart.h **** {
 723:Drivers/STM32F4xx_HAL_Driver/Inc/stm32f4xx_ll_usart.h ****   return (uint32_t)(READ_BIT(USARTx->CR2, USART_CR2_CPOL));
 724:Drivers/STM32F4xx_HAL_Driver/Inc/stm32f4xx_ll_usart.h **** }
 725:Drivers/STM32F4xx_HAL_Driver/Inc/stm32f4xx_ll_usart.h **** 
 726:Drivers/STM32F4xx_HAL_Driver/Inc/stm32f4xx_ll_usart.h **** /**
 727:Drivers/STM32F4xx_HAL_Driver/Inc/stm32f4xx_ll_usart.h ****   * @brief  Configure Clock signal format (Phase Polarity and choice about output of last bit clock
 728:Drivers/STM32F4xx_HAL_Driver/Inc/stm32f4xx_ll_usart.h ****   * @note   Macro @ref IS_USART_INSTANCE(USARTx) can be used to check whether or not
 729:Drivers/STM32F4xx_HAL_Driver/Inc/stm32f4xx_ll_usart.h ****   *         Synchronous mode is supported by the USARTx instance.
 730:Drivers/STM32F4xx_HAL_Driver/Inc/stm32f4xx_ll_usart.h ****   * @note   Call of this function is equivalent to following function call sequence :
 731:Drivers/STM32F4xx_HAL_Driver/Inc/stm32f4xx_ll_usart.h ****   *         - Clock Phase configuration using @ref LL_USART_SetClockPhase() function
 732:Drivers/STM32F4xx_HAL_Driver/Inc/stm32f4xx_ll_usart.h ****   *         - Clock Polarity configuration using @ref LL_USART_SetClockPolarity() function
 733:Drivers/STM32F4xx_HAL_Driver/Inc/stm32f4xx_ll_usart.h ****   *         - Output of Last bit Clock pulse configuration using @ref LL_USART_SetLastClkPulseOutpu
 734:Drivers/STM32F4xx_HAL_Driver/Inc/stm32f4xx_ll_usart.h ****   * @rmtoll CR2          CPHA          LL_USART_ConfigClock\n
 735:Drivers/STM32F4xx_HAL_Driver/Inc/stm32f4xx_ll_usart.h ****   *         CR2          CPOL          LL_USART_ConfigClock\n
 736:Drivers/STM32F4xx_HAL_Driver/Inc/stm32f4xx_ll_usart.h ****   *         CR2          LBCL          LL_USART_ConfigClock
 737:Drivers/STM32F4xx_HAL_Driver/Inc/stm32f4xx_ll_usart.h ****   * @param  USARTx USART Instance
 738:Drivers/STM32F4xx_HAL_Driver/Inc/stm32f4xx_ll_usart.h ****   * @param  Phase This parameter can be one of the following values:
 739:Drivers/STM32F4xx_HAL_Driver/Inc/stm32f4xx_ll_usart.h ****   *         @arg @ref LL_USART_PHASE_1EDGE
 740:Drivers/STM32F4xx_HAL_Driver/Inc/stm32f4xx_ll_usart.h ****   *         @arg @ref LL_USART_PHASE_2EDGE
 741:Drivers/STM32F4xx_HAL_Driver/Inc/stm32f4xx_ll_usart.h ****   * @param  Polarity This parameter can be one of the following values:
 742:Drivers/STM32F4xx_HAL_Driver/Inc/stm32f4xx_ll_usart.h ****   *         @arg @ref LL_USART_POLARITY_LOW
 743:Drivers/STM32F4xx_HAL_Driver/Inc/stm32f4xx_ll_usart.h ****   *         @arg @ref LL_USART_POLARITY_HIGH
 744:Drivers/STM32F4xx_HAL_Driver/Inc/stm32f4xx_ll_usart.h ****   * @param  LBCPOutput This parameter can be one of the following values:
ARM GAS  C:\Users\zoosman\AppData\Local\Temp\ccgnoQ1j.s 			page 37


 745:Drivers/STM32F4xx_HAL_Driver/Inc/stm32f4xx_ll_usart.h ****   *         @arg @ref LL_USART_LASTCLKPULSE_NO_OUTPUT
 746:Drivers/STM32F4xx_HAL_Driver/Inc/stm32f4xx_ll_usart.h ****   *         @arg @ref LL_USART_LASTCLKPULSE_OUTPUT
 747:Drivers/STM32F4xx_HAL_Driver/Inc/stm32f4xx_ll_usart.h ****   * @retval None
 748:Drivers/STM32F4xx_HAL_Driver/Inc/stm32f4xx_ll_usart.h ****   */
 749:Drivers/STM32F4xx_HAL_Driver/Inc/stm32f4xx_ll_usart.h **** __STATIC_INLINE void LL_USART_ConfigClock(USART_TypeDef *USARTx, uint32_t Phase, uint32_t Polarity,
 750:Drivers/STM32F4xx_HAL_Driver/Inc/stm32f4xx_ll_usart.h **** {
 751:Drivers/STM32F4xx_HAL_Driver/Inc/stm32f4xx_ll_usart.h ****   MODIFY_REG(USARTx->CR2, USART_CR2_CPHA | USART_CR2_CPOL | USART_CR2_LBCL, Phase | Polarity | LBCP
 752:Drivers/STM32F4xx_HAL_Driver/Inc/stm32f4xx_ll_usart.h **** }
 753:Drivers/STM32F4xx_HAL_Driver/Inc/stm32f4xx_ll_usart.h **** 
 754:Drivers/STM32F4xx_HAL_Driver/Inc/stm32f4xx_ll_usart.h **** /**
 755:Drivers/STM32F4xx_HAL_Driver/Inc/stm32f4xx_ll_usart.h ****   * @brief  Enable Clock output on SCLK pin
 756:Drivers/STM32F4xx_HAL_Driver/Inc/stm32f4xx_ll_usart.h ****   * @note   Macro @ref IS_USART_INSTANCE(USARTx) can be used to check whether or not
 757:Drivers/STM32F4xx_HAL_Driver/Inc/stm32f4xx_ll_usart.h ****   *         Synchronous mode is supported by the USARTx instance.
 758:Drivers/STM32F4xx_HAL_Driver/Inc/stm32f4xx_ll_usart.h ****   * @rmtoll CR2          CLKEN         LL_USART_EnableSCLKOutput
 759:Drivers/STM32F4xx_HAL_Driver/Inc/stm32f4xx_ll_usart.h ****   * @param  USARTx USART Instance
 760:Drivers/STM32F4xx_HAL_Driver/Inc/stm32f4xx_ll_usart.h ****   * @retval None
 761:Drivers/STM32F4xx_HAL_Driver/Inc/stm32f4xx_ll_usart.h ****   */
 762:Drivers/STM32F4xx_HAL_Driver/Inc/stm32f4xx_ll_usart.h **** __STATIC_INLINE void LL_USART_EnableSCLKOutput(USART_TypeDef *USARTx)
 763:Drivers/STM32F4xx_HAL_Driver/Inc/stm32f4xx_ll_usart.h **** {
 764:Drivers/STM32F4xx_HAL_Driver/Inc/stm32f4xx_ll_usart.h ****   SET_BIT(USARTx->CR2, USART_CR2_CLKEN);
 765:Drivers/STM32F4xx_HAL_Driver/Inc/stm32f4xx_ll_usart.h **** }
 766:Drivers/STM32F4xx_HAL_Driver/Inc/stm32f4xx_ll_usart.h **** 
 767:Drivers/STM32F4xx_HAL_Driver/Inc/stm32f4xx_ll_usart.h **** /**
 768:Drivers/STM32F4xx_HAL_Driver/Inc/stm32f4xx_ll_usart.h ****   * @brief  Disable Clock output on SCLK pin
 769:Drivers/STM32F4xx_HAL_Driver/Inc/stm32f4xx_ll_usart.h ****   * @note   Macro @ref IS_USART_INSTANCE(USARTx) can be used to check whether or not
 770:Drivers/STM32F4xx_HAL_Driver/Inc/stm32f4xx_ll_usart.h ****   *         Synchronous mode is supported by the USARTx instance.
 771:Drivers/STM32F4xx_HAL_Driver/Inc/stm32f4xx_ll_usart.h ****   * @rmtoll CR2          CLKEN         LL_USART_DisableSCLKOutput
 772:Drivers/STM32F4xx_HAL_Driver/Inc/stm32f4xx_ll_usart.h ****   * @param  USARTx USART Instance
 773:Drivers/STM32F4xx_HAL_Driver/Inc/stm32f4xx_ll_usart.h ****   * @retval None
 774:Drivers/STM32F4xx_HAL_Driver/Inc/stm32f4xx_ll_usart.h ****   */
 775:Drivers/STM32F4xx_HAL_Driver/Inc/stm32f4xx_ll_usart.h **** __STATIC_INLINE void LL_USART_DisableSCLKOutput(USART_TypeDef *USARTx)
 776:Drivers/STM32F4xx_HAL_Driver/Inc/stm32f4xx_ll_usart.h **** {
 777:Drivers/STM32F4xx_HAL_Driver/Inc/stm32f4xx_ll_usart.h ****   CLEAR_BIT(USARTx->CR2, USART_CR2_CLKEN);
 778:Drivers/STM32F4xx_HAL_Driver/Inc/stm32f4xx_ll_usart.h **** }
 779:Drivers/STM32F4xx_HAL_Driver/Inc/stm32f4xx_ll_usart.h **** 
 780:Drivers/STM32F4xx_HAL_Driver/Inc/stm32f4xx_ll_usart.h **** /**
 781:Drivers/STM32F4xx_HAL_Driver/Inc/stm32f4xx_ll_usart.h ****   * @brief  Indicate if Clock output on SCLK pin is enabled
 782:Drivers/STM32F4xx_HAL_Driver/Inc/stm32f4xx_ll_usart.h ****   * @note   Macro @ref IS_USART_INSTANCE(USARTx) can be used to check whether or not
 783:Drivers/STM32F4xx_HAL_Driver/Inc/stm32f4xx_ll_usart.h ****   *         Synchronous mode is supported by the USARTx instance.
 784:Drivers/STM32F4xx_HAL_Driver/Inc/stm32f4xx_ll_usart.h ****   * @rmtoll CR2          CLKEN         LL_USART_IsEnabledSCLKOutput
 785:Drivers/STM32F4xx_HAL_Driver/Inc/stm32f4xx_ll_usart.h ****   * @param  USARTx USART Instance
 786:Drivers/STM32F4xx_HAL_Driver/Inc/stm32f4xx_ll_usart.h ****   * @retval State of bit (1 or 0).
 787:Drivers/STM32F4xx_HAL_Driver/Inc/stm32f4xx_ll_usart.h ****   */
 788:Drivers/STM32F4xx_HAL_Driver/Inc/stm32f4xx_ll_usart.h **** __STATIC_INLINE uint32_t LL_USART_IsEnabledSCLKOutput(USART_TypeDef *USARTx)
 789:Drivers/STM32F4xx_HAL_Driver/Inc/stm32f4xx_ll_usart.h **** {
 790:Drivers/STM32F4xx_HAL_Driver/Inc/stm32f4xx_ll_usart.h ****   return (READ_BIT(USARTx->CR2, USART_CR2_CLKEN) == (USART_CR2_CLKEN));
 791:Drivers/STM32F4xx_HAL_Driver/Inc/stm32f4xx_ll_usart.h **** }
 792:Drivers/STM32F4xx_HAL_Driver/Inc/stm32f4xx_ll_usart.h **** 
 793:Drivers/STM32F4xx_HAL_Driver/Inc/stm32f4xx_ll_usart.h **** /**
 794:Drivers/STM32F4xx_HAL_Driver/Inc/stm32f4xx_ll_usart.h ****   * @brief  Set the length of the stop bits
 795:Drivers/STM32F4xx_HAL_Driver/Inc/stm32f4xx_ll_usart.h ****   * @rmtoll CR2          STOP          LL_USART_SetStopBitsLength
 796:Drivers/STM32F4xx_HAL_Driver/Inc/stm32f4xx_ll_usart.h ****   * @param  USARTx USART Instance
 797:Drivers/STM32F4xx_HAL_Driver/Inc/stm32f4xx_ll_usart.h ****   * @param  StopBits This parameter can be one of the following values:
 798:Drivers/STM32F4xx_HAL_Driver/Inc/stm32f4xx_ll_usart.h ****   *         @arg @ref LL_USART_STOPBITS_0_5
 799:Drivers/STM32F4xx_HAL_Driver/Inc/stm32f4xx_ll_usart.h ****   *         @arg @ref LL_USART_STOPBITS_1
 800:Drivers/STM32F4xx_HAL_Driver/Inc/stm32f4xx_ll_usart.h ****   *         @arg @ref LL_USART_STOPBITS_1_5
 801:Drivers/STM32F4xx_HAL_Driver/Inc/stm32f4xx_ll_usart.h ****   *         @arg @ref LL_USART_STOPBITS_2
ARM GAS  C:\Users\zoosman\AppData\Local\Temp\ccgnoQ1j.s 			page 38


 802:Drivers/STM32F4xx_HAL_Driver/Inc/stm32f4xx_ll_usart.h ****   * @retval None
 803:Drivers/STM32F4xx_HAL_Driver/Inc/stm32f4xx_ll_usart.h ****   */
 804:Drivers/STM32F4xx_HAL_Driver/Inc/stm32f4xx_ll_usart.h **** __STATIC_INLINE void LL_USART_SetStopBitsLength(USART_TypeDef *USARTx, uint32_t StopBits)
 805:Drivers/STM32F4xx_HAL_Driver/Inc/stm32f4xx_ll_usart.h **** {
 806:Drivers/STM32F4xx_HAL_Driver/Inc/stm32f4xx_ll_usart.h ****   MODIFY_REG(USARTx->CR2, USART_CR2_STOP, StopBits);
 807:Drivers/STM32F4xx_HAL_Driver/Inc/stm32f4xx_ll_usart.h **** }
 808:Drivers/STM32F4xx_HAL_Driver/Inc/stm32f4xx_ll_usart.h **** 
 809:Drivers/STM32F4xx_HAL_Driver/Inc/stm32f4xx_ll_usart.h **** /**
 810:Drivers/STM32F4xx_HAL_Driver/Inc/stm32f4xx_ll_usart.h ****   * @brief  Retrieve the length of the stop bits
 811:Drivers/STM32F4xx_HAL_Driver/Inc/stm32f4xx_ll_usart.h ****   * @rmtoll CR2          STOP          LL_USART_GetStopBitsLength
 812:Drivers/STM32F4xx_HAL_Driver/Inc/stm32f4xx_ll_usart.h ****   * @param  USARTx USART Instance
 813:Drivers/STM32F4xx_HAL_Driver/Inc/stm32f4xx_ll_usart.h ****   * @retval Returned value can be one of the following values:
 814:Drivers/STM32F4xx_HAL_Driver/Inc/stm32f4xx_ll_usart.h ****   *         @arg @ref LL_USART_STOPBITS_0_5
 815:Drivers/STM32F4xx_HAL_Driver/Inc/stm32f4xx_ll_usart.h ****   *         @arg @ref LL_USART_STOPBITS_1
 816:Drivers/STM32F4xx_HAL_Driver/Inc/stm32f4xx_ll_usart.h ****   *         @arg @ref LL_USART_STOPBITS_1_5
 817:Drivers/STM32F4xx_HAL_Driver/Inc/stm32f4xx_ll_usart.h ****   *         @arg @ref LL_USART_STOPBITS_2
 818:Drivers/STM32F4xx_HAL_Driver/Inc/stm32f4xx_ll_usart.h ****   */
 819:Drivers/STM32F4xx_HAL_Driver/Inc/stm32f4xx_ll_usart.h **** __STATIC_INLINE uint32_t LL_USART_GetStopBitsLength(USART_TypeDef *USARTx)
 820:Drivers/STM32F4xx_HAL_Driver/Inc/stm32f4xx_ll_usart.h **** {
 821:Drivers/STM32F4xx_HAL_Driver/Inc/stm32f4xx_ll_usart.h ****   return (uint32_t)(READ_BIT(USARTx->CR2, USART_CR2_STOP));
 822:Drivers/STM32F4xx_HAL_Driver/Inc/stm32f4xx_ll_usart.h **** }
 823:Drivers/STM32F4xx_HAL_Driver/Inc/stm32f4xx_ll_usart.h **** 
 824:Drivers/STM32F4xx_HAL_Driver/Inc/stm32f4xx_ll_usart.h **** /**
 825:Drivers/STM32F4xx_HAL_Driver/Inc/stm32f4xx_ll_usart.h ****   * @brief  Configure Character frame format (Datawidth, Parity control, Stop Bits)
 826:Drivers/STM32F4xx_HAL_Driver/Inc/stm32f4xx_ll_usart.h ****   * @note   Call of this function is equivalent to following function call sequence :
 827:Drivers/STM32F4xx_HAL_Driver/Inc/stm32f4xx_ll_usart.h ****   *         - Data Width configuration using @ref LL_USART_SetDataWidth() function
 828:Drivers/STM32F4xx_HAL_Driver/Inc/stm32f4xx_ll_usart.h ****   *         - Parity Control and mode configuration using @ref LL_USART_SetParity() function
 829:Drivers/STM32F4xx_HAL_Driver/Inc/stm32f4xx_ll_usart.h ****   *         - Stop bits configuration using @ref LL_USART_SetStopBitsLength() function
 830:Drivers/STM32F4xx_HAL_Driver/Inc/stm32f4xx_ll_usart.h ****   * @rmtoll CR1          PS            LL_USART_ConfigCharacter\n
 831:Drivers/STM32F4xx_HAL_Driver/Inc/stm32f4xx_ll_usart.h ****   *         CR1          PCE           LL_USART_ConfigCharacter\n
 832:Drivers/STM32F4xx_HAL_Driver/Inc/stm32f4xx_ll_usart.h ****   *         CR1          M             LL_USART_ConfigCharacter\n
 833:Drivers/STM32F4xx_HAL_Driver/Inc/stm32f4xx_ll_usart.h ****   *         CR2          STOP          LL_USART_ConfigCharacter
 834:Drivers/STM32F4xx_HAL_Driver/Inc/stm32f4xx_ll_usart.h ****   * @param  USARTx USART Instance
 835:Drivers/STM32F4xx_HAL_Driver/Inc/stm32f4xx_ll_usart.h ****   * @param  DataWidth This parameter can be one of the following values:
 836:Drivers/STM32F4xx_HAL_Driver/Inc/stm32f4xx_ll_usart.h ****   *         @arg @ref LL_USART_DATAWIDTH_8B
 837:Drivers/STM32F4xx_HAL_Driver/Inc/stm32f4xx_ll_usart.h ****   *         @arg @ref LL_USART_DATAWIDTH_9B
 838:Drivers/STM32F4xx_HAL_Driver/Inc/stm32f4xx_ll_usart.h ****   * @param  Parity This parameter can be one of the following values:
 839:Drivers/STM32F4xx_HAL_Driver/Inc/stm32f4xx_ll_usart.h ****   *         @arg @ref LL_USART_PARITY_NONE
 840:Drivers/STM32F4xx_HAL_Driver/Inc/stm32f4xx_ll_usart.h ****   *         @arg @ref LL_USART_PARITY_EVEN
 841:Drivers/STM32F4xx_HAL_Driver/Inc/stm32f4xx_ll_usart.h ****   *         @arg @ref LL_USART_PARITY_ODD
 842:Drivers/STM32F4xx_HAL_Driver/Inc/stm32f4xx_ll_usart.h ****   * @param  StopBits This parameter can be one of the following values:
 843:Drivers/STM32F4xx_HAL_Driver/Inc/stm32f4xx_ll_usart.h ****   *         @arg @ref LL_USART_STOPBITS_0_5
 844:Drivers/STM32F4xx_HAL_Driver/Inc/stm32f4xx_ll_usart.h ****   *         @arg @ref LL_USART_STOPBITS_1
 845:Drivers/STM32F4xx_HAL_Driver/Inc/stm32f4xx_ll_usart.h ****   *         @arg @ref LL_USART_STOPBITS_1_5
 846:Drivers/STM32F4xx_HAL_Driver/Inc/stm32f4xx_ll_usart.h ****   *         @arg @ref LL_USART_STOPBITS_2
 847:Drivers/STM32F4xx_HAL_Driver/Inc/stm32f4xx_ll_usart.h ****   * @retval None
 848:Drivers/STM32F4xx_HAL_Driver/Inc/stm32f4xx_ll_usart.h ****   */
 849:Drivers/STM32F4xx_HAL_Driver/Inc/stm32f4xx_ll_usart.h **** __STATIC_INLINE void LL_USART_ConfigCharacter(USART_TypeDef *USARTx, uint32_t DataWidth, uint32_t P
 850:Drivers/STM32F4xx_HAL_Driver/Inc/stm32f4xx_ll_usart.h ****                                               uint32_t StopBits)
 851:Drivers/STM32F4xx_HAL_Driver/Inc/stm32f4xx_ll_usart.h **** {
 852:Drivers/STM32F4xx_HAL_Driver/Inc/stm32f4xx_ll_usart.h ****   MODIFY_REG(USARTx->CR1, USART_CR1_PS | USART_CR1_PCE | USART_CR1_M, Parity | DataWidth);
 853:Drivers/STM32F4xx_HAL_Driver/Inc/stm32f4xx_ll_usart.h ****   MODIFY_REG(USARTx->CR2, USART_CR2_STOP, StopBits);
 854:Drivers/STM32F4xx_HAL_Driver/Inc/stm32f4xx_ll_usart.h **** }
 855:Drivers/STM32F4xx_HAL_Driver/Inc/stm32f4xx_ll_usart.h **** 
 856:Drivers/STM32F4xx_HAL_Driver/Inc/stm32f4xx_ll_usart.h **** /**
 857:Drivers/STM32F4xx_HAL_Driver/Inc/stm32f4xx_ll_usart.h ****   * @brief  Set Address of the USART node.
 858:Drivers/STM32F4xx_HAL_Driver/Inc/stm32f4xx_ll_usart.h ****   * @note   This is used in multiprocessor communication during Mute mode or Stop mode,
ARM GAS  C:\Users\zoosman\AppData\Local\Temp\ccgnoQ1j.s 			page 39


 859:Drivers/STM32F4xx_HAL_Driver/Inc/stm32f4xx_ll_usart.h ****   *         for wake up with address mark detection.
 860:Drivers/STM32F4xx_HAL_Driver/Inc/stm32f4xx_ll_usart.h ****   * @rmtoll CR2          ADD           LL_USART_SetNodeAddress
 861:Drivers/STM32F4xx_HAL_Driver/Inc/stm32f4xx_ll_usart.h ****   * @param  USARTx USART Instance
 862:Drivers/STM32F4xx_HAL_Driver/Inc/stm32f4xx_ll_usart.h ****   * @param  NodeAddress 4 bit Address of the USART node.
 863:Drivers/STM32F4xx_HAL_Driver/Inc/stm32f4xx_ll_usart.h ****   * @retval None
 864:Drivers/STM32F4xx_HAL_Driver/Inc/stm32f4xx_ll_usart.h ****   */
 865:Drivers/STM32F4xx_HAL_Driver/Inc/stm32f4xx_ll_usart.h **** __STATIC_INLINE void LL_USART_SetNodeAddress(USART_TypeDef *USARTx, uint32_t NodeAddress)
 866:Drivers/STM32F4xx_HAL_Driver/Inc/stm32f4xx_ll_usart.h **** {
 867:Drivers/STM32F4xx_HAL_Driver/Inc/stm32f4xx_ll_usart.h ****   MODIFY_REG(USARTx->CR2, USART_CR2_ADD, (NodeAddress & USART_CR2_ADD));
 868:Drivers/STM32F4xx_HAL_Driver/Inc/stm32f4xx_ll_usart.h **** }
 869:Drivers/STM32F4xx_HAL_Driver/Inc/stm32f4xx_ll_usart.h **** 
 870:Drivers/STM32F4xx_HAL_Driver/Inc/stm32f4xx_ll_usart.h **** /**
 871:Drivers/STM32F4xx_HAL_Driver/Inc/stm32f4xx_ll_usart.h ****   * @brief  Return 4 bit Address of the USART node as set in ADD field of CR2.
 872:Drivers/STM32F4xx_HAL_Driver/Inc/stm32f4xx_ll_usart.h ****   * @note   only 4bits (b3-b0) of returned value are relevant (b31-b4 are not relevant)
 873:Drivers/STM32F4xx_HAL_Driver/Inc/stm32f4xx_ll_usart.h ****   * @rmtoll CR2          ADD           LL_USART_GetNodeAddress
 874:Drivers/STM32F4xx_HAL_Driver/Inc/stm32f4xx_ll_usart.h ****   * @param  USARTx USART Instance
 875:Drivers/STM32F4xx_HAL_Driver/Inc/stm32f4xx_ll_usart.h ****   * @retval Address of the USART node (Value between Min_Data=0 and Max_Data=255)
 876:Drivers/STM32F4xx_HAL_Driver/Inc/stm32f4xx_ll_usart.h ****   */
 877:Drivers/STM32F4xx_HAL_Driver/Inc/stm32f4xx_ll_usart.h **** __STATIC_INLINE uint32_t LL_USART_GetNodeAddress(USART_TypeDef *USARTx)
 878:Drivers/STM32F4xx_HAL_Driver/Inc/stm32f4xx_ll_usart.h **** {
 879:Drivers/STM32F4xx_HAL_Driver/Inc/stm32f4xx_ll_usart.h ****   return (uint32_t)(READ_BIT(USARTx->CR2, USART_CR2_ADD));
 880:Drivers/STM32F4xx_HAL_Driver/Inc/stm32f4xx_ll_usart.h **** }
 881:Drivers/STM32F4xx_HAL_Driver/Inc/stm32f4xx_ll_usart.h **** 
 882:Drivers/STM32F4xx_HAL_Driver/Inc/stm32f4xx_ll_usart.h **** /**
 883:Drivers/STM32F4xx_HAL_Driver/Inc/stm32f4xx_ll_usart.h ****   * @brief  Enable RTS HW Flow Control
 884:Drivers/STM32F4xx_HAL_Driver/Inc/stm32f4xx_ll_usart.h ****   * @note   Macro @ref IS_UART_HWFLOW_INSTANCE(USARTx) can be used to check whether or not
 885:Drivers/STM32F4xx_HAL_Driver/Inc/stm32f4xx_ll_usart.h ****   *         Hardware Flow control feature is supported by the USARTx instance.
 886:Drivers/STM32F4xx_HAL_Driver/Inc/stm32f4xx_ll_usart.h ****   * @rmtoll CR3          RTSE          LL_USART_EnableRTSHWFlowCtrl
 887:Drivers/STM32F4xx_HAL_Driver/Inc/stm32f4xx_ll_usart.h ****   * @param  USARTx USART Instance
 888:Drivers/STM32F4xx_HAL_Driver/Inc/stm32f4xx_ll_usart.h ****   * @retval None
 889:Drivers/STM32F4xx_HAL_Driver/Inc/stm32f4xx_ll_usart.h ****   */
 890:Drivers/STM32F4xx_HAL_Driver/Inc/stm32f4xx_ll_usart.h **** __STATIC_INLINE void LL_USART_EnableRTSHWFlowCtrl(USART_TypeDef *USARTx)
 891:Drivers/STM32F4xx_HAL_Driver/Inc/stm32f4xx_ll_usart.h **** {
 892:Drivers/STM32F4xx_HAL_Driver/Inc/stm32f4xx_ll_usart.h ****   SET_BIT(USARTx->CR3, USART_CR3_RTSE);
 893:Drivers/STM32F4xx_HAL_Driver/Inc/stm32f4xx_ll_usart.h **** }
 894:Drivers/STM32F4xx_HAL_Driver/Inc/stm32f4xx_ll_usart.h **** 
 895:Drivers/STM32F4xx_HAL_Driver/Inc/stm32f4xx_ll_usart.h **** /**
 896:Drivers/STM32F4xx_HAL_Driver/Inc/stm32f4xx_ll_usart.h ****   * @brief  Disable RTS HW Flow Control
 897:Drivers/STM32F4xx_HAL_Driver/Inc/stm32f4xx_ll_usart.h ****   * @note   Macro @ref IS_UART_HWFLOW_INSTANCE(USARTx) can be used to check whether or not
 898:Drivers/STM32F4xx_HAL_Driver/Inc/stm32f4xx_ll_usart.h ****   *         Hardware Flow control feature is supported by the USARTx instance.
 899:Drivers/STM32F4xx_HAL_Driver/Inc/stm32f4xx_ll_usart.h ****   * @rmtoll CR3          RTSE          LL_USART_DisableRTSHWFlowCtrl
 900:Drivers/STM32F4xx_HAL_Driver/Inc/stm32f4xx_ll_usart.h ****   * @param  USARTx USART Instance
 901:Drivers/STM32F4xx_HAL_Driver/Inc/stm32f4xx_ll_usart.h ****   * @retval None
 902:Drivers/STM32F4xx_HAL_Driver/Inc/stm32f4xx_ll_usart.h ****   */
 903:Drivers/STM32F4xx_HAL_Driver/Inc/stm32f4xx_ll_usart.h **** __STATIC_INLINE void LL_USART_DisableRTSHWFlowCtrl(USART_TypeDef *USARTx)
 904:Drivers/STM32F4xx_HAL_Driver/Inc/stm32f4xx_ll_usart.h **** {
 905:Drivers/STM32F4xx_HAL_Driver/Inc/stm32f4xx_ll_usart.h ****   CLEAR_BIT(USARTx->CR3, USART_CR3_RTSE);
 906:Drivers/STM32F4xx_HAL_Driver/Inc/stm32f4xx_ll_usart.h **** }
 907:Drivers/STM32F4xx_HAL_Driver/Inc/stm32f4xx_ll_usart.h **** 
 908:Drivers/STM32F4xx_HAL_Driver/Inc/stm32f4xx_ll_usart.h **** /**
 909:Drivers/STM32F4xx_HAL_Driver/Inc/stm32f4xx_ll_usart.h ****   * @brief  Enable CTS HW Flow Control
 910:Drivers/STM32F4xx_HAL_Driver/Inc/stm32f4xx_ll_usart.h ****   * @note   Macro @ref IS_UART_HWFLOW_INSTANCE(USARTx) can be used to check whether or not
 911:Drivers/STM32F4xx_HAL_Driver/Inc/stm32f4xx_ll_usart.h ****   *         Hardware Flow control feature is supported by the USARTx instance.
 912:Drivers/STM32F4xx_HAL_Driver/Inc/stm32f4xx_ll_usart.h ****   * @rmtoll CR3          CTSE          LL_USART_EnableCTSHWFlowCtrl
 913:Drivers/STM32F4xx_HAL_Driver/Inc/stm32f4xx_ll_usart.h ****   * @param  USARTx USART Instance
 914:Drivers/STM32F4xx_HAL_Driver/Inc/stm32f4xx_ll_usart.h ****   * @retval None
 915:Drivers/STM32F4xx_HAL_Driver/Inc/stm32f4xx_ll_usart.h ****   */
ARM GAS  C:\Users\zoosman\AppData\Local\Temp\ccgnoQ1j.s 			page 40


 916:Drivers/STM32F4xx_HAL_Driver/Inc/stm32f4xx_ll_usart.h **** __STATIC_INLINE void LL_USART_EnableCTSHWFlowCtrl(USART_TypeDef *USARTx)
 917:Drivers/STM32F4xx_HAL_Driver/Inc/stm32f4xx_ll_usart.h **** {
 918:Drivers/STM32F4xx_HAL_Driver/Inc/stm32f4xx_ll_usart.h ****   SET_BIT(USARTx->CR3, USART_CR3_CTSE);
 919:Drivers/STM32F4xx_HAL_Driver/Inc/stm32f4xx_ll_usart.h **** }
 920:Drivers/STM32F4xx_HAL_Driver/Inc/stm32f4xx_ll_usart.h **** 
 921:Drivers/STM32F4xx_HAL_Driver/Inc/stm32f4xx_ll_usart.h **** /**
 922:Drivers/STM32F4xx_HAL_Driver/Inc/stm32f4xx_ll_usart.h ****   * @brief  Disable CTS HW Flow Control
 923:Drivers/STM32F4xx_HAL_Driver/Inc/stm32f4xx_ll_usart.h ****   * @note   Macro @ref IS_UART_HWFLOW_INSTANCE(USARTx) can be used to check whether or not
 924:Drivers/STM32F4xx_HAL_Driver/Inc/stm32f4xx_ll_usart.h ****   *         Hardware Flow control feature is supported by the USARTx instance.
 925:Drivers/STM32F4xx_HAL_Driver/Inc/stm32f4xx_ll_usart.h ****   * @rmtoll CR3          CTSE          LL_USART_DisableCTSHWFlowCtrl
 926:Drivers/STM32F4xx_HAL_Driver/Inc/stm32f4xx_ll_usart.h ****   * @param  USARTx USART Instance
 927:Drivers/STM32F4xx_HAL_Driver/Inc/stm32f4xx_ll_usart.h ****   * @retval None
 928:Drivers/STM32F4xx_HAL_Driver/Inc/stm32f4xx_ll_usart.h ****   */
 929:Drivers/STM32F4xx_HAL_Driver/Inc/stm32f4xx_ll_usart.h **** __STATIC_INLINE void LL_USART_DisableCTSHWFlowCtrl(USART_TypeDef *USARTx)
 930:Drivers/STM32F4xx_HAL_Driver/Inc/stm32f4xx_ll_usart.h **** {
 931:Drivers/STM32F4xx_HAL_Driver/Inc/stm32f4xx_ll_usart.h ****   CLEAR_BIT(USARTx->CR3, USART_CR3_CTSE);
 932:Drivers/STM32F4xx_HAL_Driver/Inc/stm32f4xx_ll_usart.h **** }
 933:Drivers/STM32F4xx_HAL_Driver/Inc/stm32f4xx_ll_usart.h **** 
 934:Drivers/STM32F4xx_HAL_Driver/Inc/stm32f4xx_ll_usart.h **** /**
 935:Drivers/STM32F4xx_HAL_Driver/Inc/stm32f4xx_ll_usart.h ****   * @brief  Configure HW Flow Control mode (both CTS and RTS)
 936:Drivers/STM32F4xx_HAL_Driver/Inc/stm32f4xx_ll_usart.h ****   * @note   Macro @ref IS_UART_HWFLOW_INSTANCE(USARTx) can be used to check whether or not
 937:Drivers/STM32F4xx_HAL_Driver/Inc/stm32f4xx_ll_usart.h ****   *         Hardware Flow control feature is supported by the USARTx instance.
 938:Drivers/STM32F4xx_HAL_Driver/Inc/stm32f4xx_ll_usart.h ****   * @rmtoll CR3          RTSE          LL_USART_SetHWFlowCtrl\n
 939:Drivers/STM32F4xx_HAL_Driver/Inc/stm32f4xx_ll_usart.h ****   *         CR3          CTSE          LL_USART_SetHWFlowCtrl
 940:Drivers/STM32F4xx_HAL_Driver/Inc/stm32f4xx_ll_usart.h ****   * @param  USARTx USART Instance
 941:Drivers/STM32F4xx_HAL_Driver/Inc/stm32f4xx_ll_usart.h ****   * @param  HardwareFlowControl This parameter can be one of the following values:
 942:Drivers/STM32F4xx_HAL_Driver/Inc/stm32f4xx_ll_usart.h ****   *         @arg @ref LL_USART_HWCONTROL_NONE
 943:Drivers/STM32F4xx_HAL_Driver/Inc/stm32f4xx_ll_usart.h ****   *         @arg @ref LL_USART_HWCONTROL_RTS
 944:Drivers/STM32F4xx_HAL_Driver/Inc/stm32f4xx_ll_usart.h ****   *         @arg @ref LL_USART_HWCONTROL_CTS
 945:Drivers/STM32F4xx_HAL_Driver/Inc/stm32f4xx_ll_usart.h ****   *         @arg @ref LL_USART_HWCONTROL_RTS_CTS
 946:Drivers/STM32F4xx_HAL_Driver/Inc/stm32f4xx_ll_usart.h ****   * @retval None
 947:Drivers/STM32F4xx_HAL_Driver/Inc/stm32f4xx_ll_usart.h ****   */
 948:Drivers/STM32F4xx_HAL_Driver/Inc/stm32f4xx_ll_usart.h **** __STATIC_INLINE void LL_USART_SetHWFlowCtrl(USART_TypeDef *USARTx, uint32_t HardwareFlowControl)
 949:Drivers/STM32F4xx_HAL_Driver/Inc/stm32f4xx_ll_usart.h **** {
 950:Drivers/STM32F4xx_HAL_Driver/Inc/stm32f4xx_ll_usart.h ****   MODIFY_REG(USARTx->CR3, USART_CR3_RTSE | USART_CR3_CTSE, HardwareFlowControl);
 951:Drivers/STM32F4xx_HAL_Driver/Inc/stm32f4xx_ll_usart.h **** }
 952:Drivers/STM32F4xx_HAL_Driver/Inc/stm32f4xx_ll_usart.h **** 
 953:Drivers/STM32F4xx_HAL_Driver/Inc/stm32f4xx_ll_usart.h **** /**
 954:Drivers/STM32F4xx_HAL_Driver/Inc/stm32f4xx_ll_usart.h ****   * @brief  Return HW Flow Control configuration (both CTS and RTS)
 955:Drivers/STM32F4xx_HAL_Driver/Inc/stm32f4xx_ll_usart.h ****   * @note   Macro @ref IS_UART_HWFLOW_INSTANCE(USARTx) can be used to check whether or not
 956:Drivers/STM32F4xx_HAL_Driver/Inc/stm32f4xx_ll_usart.h ****   *         Hardware Flow control feature is supported by the USARTx instance.
 957:Drivers/STM32F4xx_HAL_Driver/Inc/stm32f4xx_ll_usart.h ****   * @rmtoll CR3          RTSE          LL_USART_GetHWFlowCtrl\n
 958:Drivers/STM32F4xx_HAL_Driver/Inc/stm32f4xx_ll_usart.h ****   *         CR3          CTSE          LL_USART_GetHWFlowCtrl
 959:Drivers/STM32F4xx_HAL_Driver/Inc/stm32f4xx_ll_usart.h ****   * @param  USARTx USART Instance
 960:Drivers/STM32F4xx_HAL_Driver/Inc/stm32f4xx_ll_usart.h ****   * @retval Returned value can be one of the following values:
 961:Drivers/STM32F4xx_HAL_Driver/Inc/stm32f4xx_ll_usart.h ****   *         @arg @ref LL_USART_HWCONTROL_NONE
 962:Drivers/STM32F4xx_HAL_Driver/Inc/stm32f4xx_ll_usart.h ****   *         @arg @ref LL_USART_HWCONTROL_RTS
 963:Drivers/STM32F4xx_HAL_Driver/Inc/stm32f4xx_ll_usart.h ****   *         @arg @ref LL_USART_HWCONTROL_CTS
 964:Drivers/STM32F4xx_HAL_Driver/Inc/stm32f4xx_ll_usart.h ****   *         @arg @ref LL_USART_HWCONTROL_RTS_CTS
 965:Drivers/STM32F4xx_HAL_Driver/Inc/stm32f4xx_ll_usart.h ****   */
 966:Drivers/STM32F4xx_HAL_Driver/Inc/stm32f4xx_ll_usart.h **** __STATIC_INLINE uint32_t LL_USART_GetHWFlowCtrl(USART_TypeDef *USARTx)
 967:Drivers/STM32F4xx_HAL_Driver/Inc/stm32f4xx_ll_usart.h **** {
 968:Drivers/STM32F4xx_HAL_Driver/Inc/stm32f4xx_ll_usart.h ****   return (uint32_t)(READ_BIT(USARTx->CR3, USART_CR3_RTSE | USART_CR3_CTSE));
 969:Drivers/STM32F4xx_HAL_Driver/Inc/stm32f4xx_ll_usart.h **** }
 970:Drivers/STM32F4xx_HAL_Driver/Inc/stm32f4xx_ll_usart.h **** 
 971:Drivers/STM32F4xx_HAL_Driver/Inc/stm32f4xx_ll_usart.h **** /**
 972:Drivers/STM32F4xx_HAL_Driver/Inc/stm32f4xx_ll_usart.h ****   * @brief  Enable One bit sampling method
ARM GAS  C:\Users\zoosman\AppData\Local\Temp\ccgnoQ1j.s 			page 41


 973:Drivers/STM32F4xx_HAL_Driver/Inc/stm32f4xx_ll_usart.h ****   * @rmtoll CR3          ONEBIT        LL_USART_EnableOneBitSamp
 974:Drivers/STM32F4xx_HAL_Driver/Inc/stm32f4xx_ll_usart.h ****   * @param  USARTx USART Instance
 975:Drivers/STM32F4xx_HAL_Driver/Inc/stm32f4xx_ll_usart.h ****   * @retval None
 976:Drivers/STM32F4xx_HAL_Driver/Inc/stm32f4xx_ll_usart.h ****   */
 977:Drivers/STM32F4xx_HAL_Driver/Inc/stm32f4xx_ll_usart.h **** __STATIC_INLINE void LL_USART_EnableOneBitSamp(USART_TypeDef *USARTx)
 978:Drivers/STM32F4xx_HAL_Driver/Inc/stm32f4xx_ll_usart.h **** {
 979:Drivers/STM32F4xx_HAL_Driver/Inc/stm32f4xx_ll_usart.h ****   SET_BIT(USARTx->CR3, USART_CR3_ONEBIT);
 980:Drivers/STM32F4xx_HAL_Driver/Inc/stm32f4xx_ll_usart.h **** }
 981:Drivers/STM32F4xx_HAL_Driver/Inc/stm32f4xx_ll_usart.h **** 
 982:Drivers/STM32F4xx_HAL_Driver/Inc/stm32f4xx_ll_usart.h **** /**
 983:Drivers/STM32F4xx_HAL_Driver/Inc/stm32f4xx_ll_usart.h ****   * @brief  Disable One bit sampling method
 984:Drivers/STM32F4xx_HAL_Driver/Inc/stm32f4xx_ll_usart.h ****   * @rmtoll CR3          ONEBIT        LL_USART_DisableOneBitSamp
 985:Drivers/STM32F4xx_HAL_Driver/Inc/stm32f4xx_ll_usart.h ****   * @param  USARTx USART Instance
 986:Drivers/STM32F4xx_HAL_Driver/Inc/stm32f4xx_ll_usart.h ****   * @retval None
 987:Drivers/STM32F4xx_HAL_Driver/Inc/stm32f4xx_ll_usart.h ****   */
 988:Drivers/STM32F4xx_HAL_Driver/Inc/stm32f4xx_ll_usart.h **** __STATIC_INLINE void LL_USART_DisableOneBitSamp(USART_TypeDef *USARTx)
 989:Drivers/STM32F4xx_HAL_Driver/Inc/stm32f4xx_ll_usart.h **** {
 990:Drivers/STM32F4xx_HAL_Driver/Inc/stm32f4xx_ll_usart.h ****   CLEAR_BIT(USARTx->CR3, USART_CR3_ONEBIT);
 991:Drivers/STM32F4xx_HAL_Driver/Inc/stm32f4xx_ll_usart.h **** }
 992:Drivers/STM32F4xx_HAL_Driver/Inc/stm32f4xx_ll_usart.h **** 
 993:Drivers/STM32F4xx_HAL_Driver/Inc/stm32f4xx_ll_usart.h **** /**
 994:Drivers/STM32F4xx_HAL_Driver/Inc/stm32f4xx_ll_usart.h ****   * @brief  Indicate if One bit sampling method is enabled
 995:Drivers/STM32F4xx_HAL_Driver/Inc/stm32f4xx_ll_usart.h ****   * @rmtoll CR3          ONEBIT        LL_USART_IsEnabledOneBitSamp
 996:Drivers/STM32F4xx_HAL_Driver/Inc/stm32f4xx_ll_usart.h ****   * @param  USARTx USART Instance
 997:Drivers/STM32F4xx_HAL_Driver/Inc/stm32f4xx_ll_usart.h ****   * @retval State of bit (1 or 0).
 998:Drivers/STM32F4xx_HAL_Driver/Inc/stm32f4xx_ll_usart.h ****   */
 999:Drivers/STM32F4xx_HAL_Driver/Inc/stm32f4xx_ll_usart.h **** __STATIC_INLINE uint32_t LL_USART_IsEnabledOneBitSamp(USART_TypeDef *USARTx)
1000:Drivers/STM32F4xx_HAL_Driver/Inc/stm32f4xx_ll_usart.h **** {
1001:Drivers/STM32F4xx_HAL_Driver/Inc/stm32f4xx_ll_usart.h ****   return (READ_BIT(USARTx->CR3, USART_CR3_ONEBIT) == (USART_CR3_ONEBIT));
1002:Drivers/STM32F4xx_HAL_Driver/Inc/stm32f4xx_ll_usart.h **** }
1003:Drivers/STM32F4xx_HAL_Driver/Inc/stm32f4xx_ll_usart.h **** 
1004:Drivers/STM32F4xx_HAL_Driver/Inc/stm32f4xx_ll_usart.h **** /**
1005:Drivers/STM32F4xx_HAL_Driver/Inc/stm32f4xx_ll_usart.h ****   * @brief  Configure USART BRR register for achieving expected Baud Rate value.
1006:Drivers/STM32F4xx_HAL_Driver/Inc/stm32f4xx_ll_usart.h ****   * @note   Compute and set USARTDIV value in BRR Register (full BRR content)
1007:Drivers/STM32F4xx_HAL_Driver/Inc/stm32f4xx_ll_usart.h ****   *         according to used Peripheral Clock, Oversampling mode, and expected Baud Rate values
1008:Drivers/STM32F4xx_HAL_Driver/Inc/stm32f4xx_ll_usart.h ****   * @note   Peripheral clock and Baud rate values provided as function parameters should be valid
1009:Drivers/STM32F4xx_HAL_Driver/Inc/stm32f4xx_ll_usart.h ****   *         (Baud rate value != 0)
1010:Drivers/STM32F4xx_HAL_Driver/Inc/stm32f4xx_ll_usart.h ****   * @rmtoll BRR          BRR           LL_USART_SetBaudRate
1011:Drivers/STM32F4xx_HAL_Driver/Inc/stm32f4xx_ll_usart.h ****   * @param  USARTx USART Instance
1012:Drivers/STM32F4xx_HAL_Driver/Inc/stm32f4xx_ll_usart.h ****   * @param  PeriphClk Peripheral Clock
1013:Drivers/STM32F4xx_HAL_Driver/Inc/stm32f4xx_ll_usart.h ****   * @param  OverSampling This parameter can be one of the following values:
1014:Drivers/STM32F4xx_HAL_Driver/Inc/stm32f4xx_ll_usart.h ****   *         @arg @ref LL_USART_OVERSAMPLING_16
1015:Drivers/STM32F4xx_HAL_Driver/Inc/stm32f4xx_ll_usart.h ****   *         @arg @ref LL_USART_OVERSAMPLING_8
1016:Drivers/STM32F4xx_HAL_Driver/Inc/stm32f4xx_ll_usart.h ****   * @param  BaudRate Baud Rate
1017:Drivers/STM32F4xx_HAL_Driver/Inc/stm32f4xx_ll_usart.h ****   * @retval None
1018:Drivers/STM32F4xx_HAL_Driver/Inc/stm32f4xx_ll_usart.h ****   */
1019:Drivers/STM32F4xx_HAL_Driver/Inc/stm32f4xx_ll_usart.h **** __STATIC_INLINE void LL_USART_SetBaudRate(USART_TypeDef *USARTx, uint32_t PeriphClk, uint32_t OverS
1020:Drivers/STM32F4xx_HAL_Driver/Inc/stm32f4xx_ll_usart.h ****                                           uint32_t BaudRate)
1021:Drivers/STM32F4xx_HAL_Driver/Inc/stm32f4xx_ll_usart.h **** {
1022:Drivers/STM32F4xx_HAL_Driver/Inc/stm32f4xx_ll_usart.h ****   if (OverSampling == LL_USART_OVERSAMPLING_8)
1023:Drivers/STM32F4xx_HAL_Driver/Inc/stm32f4xx_ll_usart.h ****   {
1024:Drivers/STM32F4xx_HAL_Driver/Inc/stm32f4xx_ll_usart.h ****     USARTx->BRR = (uint16_t)(__LL_USART_DIV_SAMPLING8(PeriphClk, BaudRate));
1025:Drivers/STM32F4xx_HAL_Driver/Inc/stm32f4xx_ll_usart.h ****   }
1026:Drivers/STM32F4xx_HAL_Driver/Inc/stm32f4xx_ll_usart.h ****   else
1027:Drivers/STM32F4xx_HAL_Driver/Inc/stm32f4xx_ll_usart.h ****   {
1028:Drivers/STM32F4xx_HAL_Driver/Inc/stm32f4xx_ll_usart.h ****     USARTx->BRR = (uint16_t)(__LL_USART_DIV_SAMPLING16(PeriphClk, BaudRate));
1029:Drivers/STM32F4xx_HAL_Driver/Inc/stm32f4xx_ll_usart.h ****   }
ARM GAS  C:\Users\zoosman\AppData\Local\Temp\ccgnoQ1j.s 			page 42


1030:Drivers/STM32F4xx_HAL_Driver/Inc/stm32f4xx_ll_usart.h **** }
1031:Drivers/STM32F4xx_HAL_Driver/Inc/stm32f4xx_ll_usart.h **** 
1032:Drivers/STM32F4xx_HAL_Driver/Inc/stm32f4xx_ll_usart.h **** /**
1033:Drivers/STM32F4xx_HAL_Driver/Inc/stm32f4xx_ll_usart.h ****   * @brief  Return current Baud Rate value, according to USARTDIV present in BRR register
1034:Drivers/STM32F4xx_HAL_Driver/Inc/stm32f4xx_ll_usart.h ****   *         (full BRR content), and to used Peripheral Clock and Oversampling mode values
1035:Drivers/STM32F4xx_HAL_Driver/Inc/stm32f4xx_ll_usart.h ****   * @note   In case of non-initialized or invalid value stored in BRR register, value 0 will be ret
1036:Drivers/STM32F4xx_HAL_Driver/Inc/stm32f4xx_ll_usart.h ****   * @rmtoll BRR          BRR           LL_USART_GetBaudRate
1037:Drivers/STM32F4xx_HAL_Driver/Inc/stm32f4xx_ll_usart.h ****   * @param  USARTx USART Instance
1038:Drivers/STM32F4xx_HAL_Driver/Inc/stm32f4xx_ll_usart.h ****   * @param  PeriphClk Peripheral Clock
1039:Drivers/STM32F4xx_HAL_Driver/Inc/stm32f4xx_ll_usart.h ****   * @param  OverSampling This parameter can be one of the following values:
1040:Drivers/STM32F4xx_HAL_Driver/Inc/stm32f4xx_ll_usart.h ****   *         @arg @ref LL_USART_OVERSAMPLING_16
1041:Drivers/STM32F4xx_HAL_Driver/Inc/stm32f4xx_ll_usart.h ****   *         @arg @ref LL_USART_OVERSAMPLING_8
1042:Drivers/STM32F4xx_HAL_Driver/Inc/stm32f4xx_ll_usart.h ****   * @retval Baud Rate
1043:Drivers/STM32F4xx_HAL_Driver/Inc/stm32f4xx_ll_usart.h ****   */
1044:Drivers/STM32F4xx_HAL_Driver/Inc/stm32f4xx_ll_usart.h **** __STATIC_INLINE uint32_t LL_USART_GetBaudRate(USART_TypeDef *USARTx, uint32_t PeriphClk, uint32_t O
1045:Drivers/STM32F4xx_HAL_Driver/Inc/stm32f4xx_ll_usart.h **** {
1046:Drivers/STM32F4xx_HAL_Driver/Inc/stm32f4xx_ll_usart.h ****   register uint32_t usartdiv = 0x0U;
1047:Drivers/STM32F4xx_HAL_Driver/Inc/stm32f4xx_ll_usart.h ****   register uint32_t brrresult = 0x0U;
1048:Drivers/STM32F4xx_HAL_Driver/Inc/stm32f4xx_ll_usart.h **** 
1049:Drivers/STM32F4xx_HAL_Driver/Inc/stm32f4xx_ll_usart.h ****   usartdiv = USARTx->BRR;
1050:Drivers/STM32F4xx_HAL_Driver/Inc/stm32f4xx_ll_usart.h **** 
1051:Drivers/STM32F4xx_HAL_Driver/Inc/stm32f4xx_ll_usart.h ****   if (OverSampling == LL_USART_OVERSAMPLING_8)
1052:Drivers/STM32F4xx_HAL_Driver/Inc/stm32f4xx_ll_usart.h ****   {
1053:Drivers/STM32F4xx_HAL_Driver/Inc/stm32f4xx_ll_usart.h ****     if ((usartdiv & 0xFFF7U) != 0U)
1054:Drivers/STM32F4xx_HAL_Driver/Inc/stm32f4xx_ll_usart.h ****     {
1055:Drivers/STM32F4xx_HAL_Driver/Inc/stm32f4xx_ll_usart.h ****       usartdiv = (uint16_t)((usartdiv & 0xFFF0U) | ((usartdiv & 0x0007U) << 1U)) ;
1056:Drivers/STM32F4xx_HAL_Driver/Inc/stm32f4xx_ll_usart.h ****       brrresult = (PeriphClk * 2U) / usartdiv;
1057:Drivers/STM32F4xx_HAL_Driver/Inc/stm32f4xx_ll_usart.h ****     }
1058:Drivers/STM32F4xx_HAL_Driver/Inc/stm32f4xx_ll_usart.h ****   }
1059:Drivers/STM32F4xx_HAL_Driver/Inc/stm32f4xx_ll_usart.h ****   else
1060:Drivers/STM32F4xx_HAL_Driver/Inc/stm32f4xx_ll_usart.h ****   {
1061:Drivers/STM32F4xx_HAL_Driver/Inc/stm32f4xx_ll_usart.h ****     if ((usartdiv & 0xFFFFU) != 0U)
1062:Drivers/STM32F4xx_HAL_Driver/Inc/stm32f4xx_ll_usart.h ****     {
1063:Drivers/STM32F4xx_HAL_Driver/Inc/stm32f4xx_ll_usart.h ****       brrresult = PeriphClk / usartdiv;
1064:Drivers/STM32F4xx_HAL_Driver/Inc/stm32f4xx_ll_usart.h ****     }
1065:Drivers/STM32F4xx_HAL_Driver/Inc/stm32f4xx_ll_usart.h ****   }
1066:Drivers/STM32F4xx_HAL_Driver/Inc/stm32f4xx_ll_usart.h ****   return (brrresult);
1067:Drivers/STM32F4xx_HAL_Driver/Inc/stm32f4xx_ll_usart.h **** }
1068:Drivers/STM32F4xx_HAL_Driver/Inc/stm32f4xx_ll_usart.h **** 
1069:Drivers/STM32F4xx_HAL_Driver/Inc/stm32f4xx_ll_usart.h **** /**
1070:Drivers/STM32F4xx_HAL_Driver/Inc/stm32f4xx_ll_usart.h ****   * @}
1071:Drivers/STM32F4xx_HAL_Driver/Inc/stm32f4xx_ll_usart.h ****   */
1072:Drivers/STM32F4xx_HAL_Driver/Inc/stm32f4xx_ll_usart.h **** 
1073:Drivers/STM32F4xx_HAL_Driver/Inc/stm32f4xx_ll_usart.h **** /** @defgroup USART_LL_EF_Configuration_IRDA Configuration functions related to Irda feature
1074:Drivers/STM32F4xx_HAL_Driver/Inc/stm32f4xx_ll_usart.h ****   * @{
1075:Drivers/STM32F4xx_HAL_Driver/Inc/stm32f4xx_ll_usart.h ****   */
1076:Drivers/STM32F4xx_HAL_Driver/Inc/stm32f4xx_ll_usart.h **** 
1077:Drivers/STM32F4xx_HAL_Driver/Inc/stm32f4xx_ll_usart.h **** /**
1078:Drivers/STM32F4xx_HAL_Driver/Inc/stm32f4xx_ll_usart.h ****   * @brief  Enable IrDA mode
1079:Drivers/STM32F4xx_HAL_Driver/Inc/stm32f4xx_ll_usart.h ****   * @note   Macro @ref IS_IRDA_INSTANCE(USARTx) can be used to check whether or not
1080:Drivers/STM32F4xx_HAL_Driver/Inc/stm32f4xx_ll_usart.h ****   *         IrDA feature is supported by the USARTx instance.
1081:Drivers/STM32F4xx_HAL_Driver/Inc/stm32f4xx_ll_usart.h ****   * @rmtoll CR3          IREN          LL_USART_EnableIrda
1082:Drivers/STM32F4xx_HAL_Driver/Inc/stm32f4xx_ll_usart.h ****   * @param  USARTx USART Instance
1083:Drivers/STM32F4xx_HAL_Driver/Inc/stm32f4xx_ll_usart.h ****   * @retval None
1084:Drivers/STM32F4xx_HAL_Driver/Inc/stm32f4xx_ll_usart.h ****   */
1085:Drivers/STM32F4xx_HAL_Driver/Inc/stm32f4xx_ll_usart.h **** __STATIC_INLINE void LL_USART_EnableIrda(USART_TypeDef *USARTx)
1086:Drivers/STM32F4xx_HAL_Driver/Inc/stm32f4xx_ll_usart.h **** {
ARM GAS  C:\Users\zoosman\AppData\Local\Temp\ccgnoQ1j.s 			page 43


1087:Drivers/STM32F4xx_HAL_Driver/Inc/stm32f4xx_ll_usart.h ****   SET_BIT(USARTx->CR3, USART_CR3_IREN);
1088:Drivers/STM32F4xx_HAL_Driver/Inc/stm32f4xx_ll_usart.h **** }
1089:Drivers/STM32F4xx_HAL_Driver/Inc/stm32f4xx_ll_usart.h **** 
1090:Drivers/STM32F4xx_HAL_Driver/Inc/stm32f4xx_ll_usart.h **** /**
1091:Drivers/STM32F4xx_HAL_Driver/Inc/stm32f4xx_ll_usart.h ****   * @brief  Disable IrDA mode
1092:Drivers/STM32F4xx_HAL_Driver/Inc/stm32f4xx_ll_usart.h ****   * @note   Macro @ref IS_IRDA_INSTANCE(USARTx) can be used to check whether or not
1093:Drivers/STM32F4xx_HAL_Driver/Inc/stm32f4xx_ll_usart.h ****   *         IrDA feature is supported by the USARTx instance.
1094:Drivers/STM32F4xx_HAL_Driver/Inc/stm32f4xx_ll_usart.h ****   * @rmtoll CR3          IREN          LL_USART_DisableIrda
1095:Drivers/STM32F4xx_HAL_Driver/Inc/stm32f4xx_ll_usart.h ****   * @param  USARTx USART Instance
1096:Drivers/STM32F4xx_HAL_Driver/Inc/stm32f4xx_ll_usart.h ****   * @retval None
1097:Drivers/STM32F4xx_HAL_Driver/Inc/stm32f4xx_ll_usart.h ****   */
1098:Drivers/STM32F4xx_HAL_Driver/Inc/stm32f4xx_ll_usart.h **** __STATIC_INLINE void LL_USART_DisableIrda(USART_TypeDef *USARTx)
1099:Drivers/STM32F4xx_HAL_Driver/Inc/stm32f4xx_ll_usart.h **** {
1100:Drivers/STM32F4xx_HAL_Driver/Inc/stm32f4xx_ll_usart.h ****   CLEAR_BIT(USARTx->CR3, USART_CR3_IREN);
1101:Drivers/STM32F4xx_HAL_Driver/Inc/stm32f4xx_ll_usart.h **** }
1102:Drivers/STM32F4xx_HAL_Driver/Inc/stm32f4xx_ll_usart.h **** 
1103:Drivers/STM32F4xx_HAL_Driver/Inc/stm32f4xx_ll_usart.h **** /**
1104:Drivers/STM32F4xx_HAL_Driver/Inc/stm32f4xx_ll_usart.h ****   * @brief  Indicate if IrDA mode is enabled
1105:Drivers/STM32F4xx_HAL_Driver/Inc/stm32f4xx_ll_usart.h ****   * @note   Macro @ref IS_IRDA_INSTANCE(USARTx) can be used to check whether or not
1106:Drivers/STM32F4xx_HAL_Driver/Inc/stm32f4xx_ll_usart.h ****   *         IrDA feature is supported by the USARTx instance.
1107:Drivers/STM32F4xx_HAL_Driver/Inc/stm32f4xx_ll_usart.h ****   * @rmtoll CR3          IREN          LL_USART_IsEnabledIrda
1108:Drivers/STM32F4xx_HAL_Driver/Inc/stm32f4xx_ll_usart.h ****   * @param  USARTx USART Instance
1109:Drivers/STM32F4xx_HAL_Driver/Inc/stm32f4xx_ll_usart.h ****   * @retval State of bit (1 or 0).
1110:Drivers/STM32F4xx_HAL_Driver/Inc/stm32f4xx_ll_usart.h ****   */
1111:Drivers/STM32F4xx_HAL_Driver/Inc/stm32f4xx_ll_usart.h **** __STATIC_INLINE uint32_t LL_USART_IsEnabledIrda(USART_TypeDef *USARTx)
1112:Drivers/STM32F4xx_HAL_Driver/Inc/stm32f4xx_ll_usart.h **** {
1113:Drivers/STM32F4xx_HAL_Driver/Inc/stm32f4xx_ll_usart.h ****   return (READ_BIT(USARTx->CR3, USART_CR3_IREN) == (USART_CR3_IREN));
1114:Drivers/STM32F4xx_HAL_Driver/Inc/stm32f4xx_ll_usart.h **** }
1115:Drivers/STM32F4xx_HAL_Driver/Inc/stm32f4xx_ll_usart.h **** 
1116:Drivers/STM32F4xx_HAL_Driver/Inc/stm32f4xx_ll_usart.h **** /**
1117:Drivers/STM32F4xx_HAL_Driver/Inc/stm32f4xx_ll_usart.h ****   * @brief  Configure IrDA Power Mode (Normal or Low Power)
1118:Drivers/STM32F4xx_HAL_Driver/Inc/stm32f4xx_ll_usart.h ****   * @note   Macro @ref IS_IRDA_INSTANCE(USARTx) can be used to check whether or not
1119:Drivers/STM32F4xx_HAL_Driver/Inc/stm32f4xx_ll_usart.h ****   *         IrDA feature is supported by the USARTx instance.
1120:Drivers/STM32F4xx_HAL_Driver/Inc/stm32f4xx_ll_usart.h ****   * @rmtoll CR3          IRLP          LL_USART_SetIrdaPowerMode
1121:Drivers/STM32F4xx_HAL_Driver/Inc/stm32f4xx_ll_usart.h ****   * @param  USARTx USART Instance
1122:Drivers/STM32F4xx_HAL_Driver/Inc/stm32f4xx_ll_usart.h ****   * @param  PowerMode This parameter can be one of the following values:
1123:Drivers/STM32F4xx_HAL_Driver/Inc/stm32f4xx_ll_usart.h ****   *         @arg @ref LL_USART_IRDA_POWER_NORMAL
1124:Drivers/STM32F4xx_HAL_Driver/Inc/stm32f4xx_ll_usart.h ****   *         @arg @ref LL_USART_IRDA_POWER_LOW
1125:Drivers/STM32F4xx_HAL_Driver/Inc/stm32f4xx_ll_usart.h ****   * @retval None
1126:Drivers/STM32F4xx_HAL_Driver/Inc/stm32f4xx_ll_usart.h ****   */
1127:Drivers/STM32F4xx_HAL_Driver/Inc/stm32f4xx_ll_usart.h **** __STATIC_INLINE void LL_USART_SetIrdaPowerMode(USART_TypeDef *USARTx, uint32_t PowerMode)
1128:Drivers/STM32F4xx_HAL_Driver/Inc/stm32f4xx_ll_usart.h **** {
1129:Drivers/STM32F4xx_HAL_Driver/Inc/stm32f4xx_ll_usart.h ****   MODIFY_REG(USARTx->CR3, USART_CR3_IRLP, PowerMode);
1130:Drivers/STM32F4xx_HAL_Driver/Inc/stm32f4xx_ll_usart.h **** }
1131:Drivers/STM32F4xx_HAL_Driver/Inc/stm32f4xx_ll_usart.h **** 
1132:Drivers/STM32F4xx_HAL_Driver/Inc/stm32f4xx_ll_usart.h **** /**
1133:Drivers/STM32F4xx_HAL_Driver/Inc/stm32f4xx_ll_usart.h ****   * @brief  Retrieve IrDA Power Mode configuration (Normal or Low Power)
1134:Drivers/STM32F4xx_HAL_Driver/Inc/stm32f4xx_ll_usart.h ****   * @note   Macro @ref IS_IRDA_INSTANCE(USARTx) can be used to check whether or not
1135:Drivers/STM32F4xx_HAL_Driver/Inc/stm32f4xx_ll_usart.h ****   *         IrDA feature is supported by the USARTx instance.
1136:Drivers/STM32F4xx_HAL_Driver/Inc/stm32f4xx_ll_usart.h ****   * @rmtoll CR3          IRLP          LL_USART_GetIrdaPowerMode
1137:Drivers/STM32F4xx_HAL_Driver/Inc/stm32f4xx_ll_usart.h ****   * @param  USARTx USART Instance
1138:Drivers/STM32F4xx_HAL_Driver/Inc/stm32f4xx_ll_usart.h ****   * @retval Returned value can be one of the following values:
1139:Drivers/STM32F4xx_HAL_Driver/Inc/stm32f4xx_ll_usart.h ****   *         @arg @ref LL_USART_IRDA_POWER_NORMAL
1140:Drivers/STM32F4xx_HAL_Driver/Inc/stm32f4xx_ll_usart.h ****   *         @arg @ref LL_USART_PHASE_2EDGE
1141:Drivers/STM32F4xx_HAL_Driver/Inc/stm32f4xx_ll_usart.h ****   */
1142:Drivers/STM32F4xx_HAL_Driver/Inc/stm32f4xx_ll_usart.h **** __STATIC_INLINE uint32_t LL_USART_GetIrdaPowerMode(USART_TypeDef *USARTx)
1143:Drivers/STM32F4xx_HAL_Driver/Inc/stm32f4xx_ll_usart.h **** {
ARM GAS  C:\Users\zoosman\AppData\Local\Temp\ccgnoQ1j.s 			page 44


1144:Drivers/STM32F4xx_HAL_Driver/Inc/stm32f4xx_ll_usart.h ****   return (uint32_t)(READ_BIT(USARTx->CR3, USART_CR3_IRLP));
1145:Drivers/STM32F4xx_HAL_Driver/Inc/stm32f4xx_ll_usart.h **** }
1146:Drivers/STM32F4xx_HAL_Driver/Inc/stm32f4xx_ll_usart.h **** 
1147:Drivers/STM32F4xx_HAL_Driver/Inc/stm32f4xx_ll_usart.h **** /**
1148:Drivers/STM32F4xx_HAL_Driver/Inc/stm32f4xx_ll_usart.h ****   * @brief  Set Irda prescaler value, used for dividing the USART clock source
1149:Drivers/STM32F4xx_HAL_Driver/Inc/stm32f4xx_ll_usart.h ****   *         to achieve the Irda Low Power frequency (8 bits value)
1150:Drivers/STM32F4xx_HAL_Driver/Inc/stm32f4xx_ll_usart.h ****   * @note   Macro @ref IS_IRDA_INSTANCE(USARTx) can be used to check whether or not
1151:Drivers/STM32F4xx_HAL_Driver/Inc/stm32f4xx_ll_usart.h ****   *         IrDA feature is supported by the USARTx instance.
1152:Drivers/STM32F4xx_HAL_Driver/Inc/stm32f4xx_ll_usart.h ****   * @rmtoll GTPR         PSC           LL_USART_SetIrdaPrescaler
1153:Drivers/STM32F4xx_HAL_Driver/Inc/stm32f4xx_ll_usart.h ****   * @param  USARTx USART Instance
1154:Drivers/STM32F4xx_HAL_Driver/Inc/stm32f4xx_ll_usart.h ****   * @param  PrescalerValue Value between Min_Data=0x00 and Max_Data=0xFF
1155:Drivers/STM32F4xx_HAL_Driver/Inc/stm32f4xx_ll_usart.h ****   * @retval None
1156:Drivers/STM32F4xx_HAL_Driver/Inc/stm32f4xx_ll_usart.h ****   */
1157:Drivers/STM32F4xx_HAL_Driver/Inc/stm32f4xx_ll_usart.h **** __STATIC_INLINE void LL_USART_SetIrdaPrescaler(USART_TypeDef *USARTx, uint32_t PrescalerValue)
1158:Drivers/STM32F4xx_HAL_Driver/Inc/stm32f4xx_ll_usart.h **** {
1159:Drivers/STM32F4xx_HAL_Driver/Inc/stm32f4xx_ll_usart.h ****   MODIFY_REG(USARTx->GTPR, USART_GTPR_PSC, PrescalerValue);
1160:Drivers/STM32F4xx_HAL_Driver/Inc/stm32f4xx_ll_usart.h **** }
1161:Drivers/STM32F4xx_HAL_Driver/Inc/stm32f4xx_ll_usart.h **** 
1162:Drivers/STM32F4xx_HAL_Driver/Inc/stm32f4xx_ll_usart.h **** /**
1163:Drivers/STM32F4xx_HAL_Driver/Inc/stm32f4xx_ll_usart.h ****   * @brief  Return Irda prescaler value, used for dividing the USART clock source
1164:Drivers/STM32F4xx_HAL_Driver/Inc/stm32f4xx_ll_usart.h ****   *         to achieve the Irda Low Power frequency (8 bits value)
1165:Drivers/STM32F4xx_HAL_Driver/Inc/stm32f4xx_ll_usart.h ****   * @note   Macro @ref IS_IRDA_INSTANCE(USARTx) can be used to check whether or not
1166:Drivers/STM32F4xx_HAL_Driver/Inc/stm32f4xx_ll_usart.h ****   *         IrDA feature is supported by the USARTx instance.
1167:Drivers/STM32F4xx_HAL_Driver/Inc/stm32f4xx_ll_usart.h ****   * @rmtoll GTPR         PSC           LL_USART_GetIrdaPrescaler
1168:Drivers/STM32F4xx_HAL_Driver/Inc/stm32f4xx_ll_usart.h ****   * @param  USARTx USART Instance
1169:Drivers/STM32F4xx_HAL_Driver/Inc/stm32f4xx_ll_usart.h ****   * @retval Irda prescaler value (Value between Min_Data=0x00 and Max_Data=0xFF)
1170:Drivers/STM32F4xx_HAL_Driver/Inc/stm32f4xx_ll_usart.h ****   */
1171:Drivers/STM32F4xx_HAL_Driver/Inc/stm32f4xx_ll_usart.h **** __STATIC_INLINE uint32_t LL_USART_GetIrdaPrescaler(USART_TypeDef *USARTx)
1172:Drivers/STM32F4xx_HAL_Driver/Inc/stm32f4xx_ll_usart.h **** {
1173:Drivers/STM32F4xx_HAL_Driver/Inc/stm32f4xx_ll_usart.h ****   return (uint32_t)(READ_BIT(USARTx->GTPR, USART_GTPR_PSC));
1174:Drivers/STM32F4xx_HAL_Driver/Inc/stm32f4xx_ll_usart.h **** }
1175:Drivers/STM32F4xx_HAL_Driver/Inc/stm32f4xx_ll_usart.h **** 
1176:Drivers/STM32F4xx_HAL_Driver/Inc/stm32f4xx_ll_usart.h **** /**
1177:Drivers/STM32F4xx_HAL_Driver/Inc/stm32f4xx_ll_usart.h ****   * @}
1178:Drivers/STM32F4xx_HAL_Driver/Inc/stm32f4xx_ll_usart.h ****   */
1179:Drivers/STM32F4xx_HAL_Driver/Inc/stm32f4xx_ll_usart.h **** 
1180:Drivers/STM32F4xx_HAL_Driver/Inc/stm32f4xx_ll_usart.h **** /** @defgroup USART_LL_EF_Configuration_Smartcard Configuration functions related to Smartcard feat
1181:Drivers/STM32F4xx_HAL_Driver/Inc/stm32f4xx_ll_usart.h ****   * @{
1182:Drivers/STM32F4xx_HAL_Driver/Inc/stm32f4xx_ll_usart.h ****   */
1183:Drivers/STM32F4xx_HAL_Driver/Inc/stm32f4xx_ll_usart.h **** 
1184:Drivers/STM32F4xx_HAL_Driver/Inc/stm32f4xx_ll_usart.h **** /**
1185:Drivers/STM32F4xx_HAL_Driver/Inc/stm32f4xx_ll_usart.h ****   * @brief  Enable Smartcard NACK transmission
1186:Drivers/STM32F4xx_HAL_Driver/Inc/stm32f4xx_ll_usart.h ****   * @note   Macro @ref IS_SMARTCARD_INSTANCE(USARTx) can be used to check whether or not
1187:Drivers/STM32F4xx_HAL_Driver/Inc/stm32f4xx_ll_usart.h ****   *         Smartcard feature is supported by the USARTx instance.
1188:Drivers/STM32F4xx_HAL_Driver/Inc/stm32f4xx_ll_usart.h ****   * @rmtoll CR3          NACK          LL_USART_EnableSmartcardNACK
1189:Drivers/STM32F4xx_HAL_Driver/Inc/stm32f4xx_ll_usart.h ****   * @param  USARTx USART Instance
1190:Drivers/STM32F4xx_HAL_Driver/Inc/stm32f4xx_ll_usart.h ****   * @retval None
1191:Drivers/STM32F4xx_HAL_Driver/Inc/stm32f4xx_ll_usart.h ****   */
1192:Drivers/STM32F4xx_HAL_Driver/Inc/stm32f4xx_ll_usart.h **** __STATIC_INLINE void LL_USART_EnableSmartcardNACK(USART_TypeDef *USARTx)
1193:Drivers/STM32F4xx_HAL_Driver/Inc/stm32f4xx_ll_usart.h **** {
1194:Drivers/STM32F4xx_HAL_Driver/Inc/stm32f4xx_ll_usart.h ****   SET_BIT(USARTx->CR3, USART_CR3_NACK);
1195:Drivers/STM32F4xx_HAL_Driver/Inc/stm32f4xx_ll_usart.h **** }
1196:Drivers/STM32F4xx_HAL_Driver/Inc/stm32f4xx_ll_usart.h **** 
1197:Drivers/STM32F4xx_HAL_Driver/Inc/stm32f4xx_ll_usart.h **** /**
1198:Drivers/STM32F4xx_HAL_Driver/Inc/stm32f4xx_ll_usart.h ****   * @brief  Disable Smartcard NACK transmission
1199:Drivers/STM32F4xx_HAL_Driver/Inc/stm32f4xx_ll_usart.h ****   * @note   Macro @ref IS_SMARTCARD_INSTANCE(USARTx) can be used to check whether or not
1200:Drivers/STM32F4xx_HAL_Driver/Inc/stm32f4xx_ll_usart.h ****   *         Smartcard feature is supported by the USARTx instance.
ARM GAS  C:\Users\zoosman\AppData\Local\Temp\ccgnoQ1j.s 			page 45


1201:Drivers/STM32F4xx_HAL_Driver/Inc/stm32f4xx_ll_usart.h ****   * @rmtoll CR3          NACK          LL_USART_DisableSmartcardNACK
1202:Drivers/STM32F4xx_HAL_Driver/Inc/stm32f4xx_ll_usart.h ****   * @param  USARTx USART Instance
1203:Drivers/STM32F4xx_HAL_Driver/Inc/stm32f4xx_ll_usart.h ****   * @retval None
1204:Drivers/STM32F4xx_HAL_Driver/Inc/stm32f4xx_ll_usart.h ****   */
1205:Drivers/STM32F4xx_HAL_Driver/Inc/stm32f4xx_ll_usart.h **** __STATIC_INLINE void LL_USART_DisableSmartcardNACK(USART_TypeDef *USARTx)
1206:Drivers/STM32F4xx_HAL_Driver/Inc/stm32f4xx_ll_usart.h **** {
1207:Drivers/STM32F4xx_HAL_Driver/Inc/stm32f4xx_ll_usart.h ****   CLEAR_BIT(USARTx->CR3, USART_CR3_NACK);
1208:Drivers/STM32F4xx_HAL_Driver/Inc/stm32f4xx_ll_usart.h **** }
1209:Drivers/STM32F4xx_HAL_Driver/Inc/stm32f4xx_ll_usart.h **** 
1210:Drivers/STM32F4xx_HAL_Driver/Inc/stm32f4xx_ll_usart.h **** /**
1211:Drivers/STM32F4xx_HAL_Driver/Inc/stm32f4xx_ll_usart.h ****   * @brief  Indicate if Smartcard NACK transmission is enabled
1212:Drivers/STM32F4xx_HAL_Driver/Inc/stm32f4xx_ll_usart.h ****   * @note   Macro @ref IS_SMARTCARD_INSTANCE(USARTx) can be used to check whether or not
1213:Drivers/STM32F4xx_HAL_Driver/Inc/stm32f4xx_ll_usart.h ****   *         Smartcard feature is supported by the USARTx instance.
1214:Drivers/STM32F4xx_HAL_Driver/Inc/stm32f4xx_ll_usart.h ****   * @rmtoll CR3          NACK          LL_USART_IsEnabledSmartcardNACK
1215:Drivers/STM32F4xx_HAL_Driver/Inc/stm32f4xx_ll_usart.h ****   * @param  USARTx USART Instance
1216:Drivers/STM32F4xx_HAL_Driver/Inc/stm32f4xx_ll_usart.h ****   * @retval State of bit (1 or 0).
1217:Drivers/STM32F4xx_HAL_Driver/Inc/stm32f4xx_ll_usart.h ****   */
1218:Drivers/STM32F4xx_HAL_Driver/Inc/stm32f4xx_ll_usart.h **** __STATIC_INLINE uint32_t LL_USART_IsEnabledSmartcardNACK(USART_TypeDef *USARTx)
1219:Drivers/STM32F4xx_HAL_Driver/Inc/stm32f4xx_ll_usart.h **** {
1220:Drivers/STM32F4xx_HAL_Driver/Inc/stm32f4xx_ll_usart.h ****   return (READ_BIT(USARTx->CR3, USART_CR3_NACK) == (USART_CR3_NACK));
1221:Drivers/STM32F4xx_HAL_Driver/Inc/stm32f4xx_ll_usart.h **** }
1222:Drivers/STM32F4xx_HAL_Driver/Inc/stm32f4xx_ll_usart.h **** 
1223:Drivers/STM32F4xx_HAL_Driver/Inc/stm32f4xx_ll_usart.h **** /**
1224:Drivers/STM32F4xx_HAL_Driver/Inc/stm32f4xx_ll_usart.h ****   * @brief  Enable Smartcard mode
1225:Drivers/STM32F4xx_HAL_Driver/Inc/stm32f4xx_ll_usart.h ****   * @note   Macro @ref IS_SMARTCARD_INSTANCE(USARTx) can be used to check whether or not
1226:Drivers/STM32F4xx_HAL_Driver/Inc/stm32f4xx_ll_usart.h ****   *         Smartcard feature is supported by the USARTx instance.
1227:Drivers/STM32F4xx_HAL_Driver/Inc/stm32f4xx_ll_usart.h ****   * @rmtoll CR3          SCEN          LL_USART_EnableSmartcard
1228:Drivers/STM32F4xx_HAL_Driver/Inc/stm32f4xx_ll_usart.h ****   * @param  USARTx USART Instance
1229:Drivers/STM32F4xx_HAL_Driver/Inc/stm32f4xx_ll_usart.h ****   * @retval None
1230:Drivers/STM32F4xx_HAL_Driver/Inc/stm32f4xx_ll_usart.h ****   */
1231:Drivers/STM32F4xx_HAL_Driver/Inc/stm32f4xx_ll_usart.h **** __STATIC_INLINE void LL_USART_EnableSmartcard(USART_TypeDef *USARTx)
1232:Drivers/STM32F4xx_HAL_Driver/Inc/stm32f4xx_ll_usart.h **** {
1233:Drivers/STM32F4xx_HAL_Driver/Inc/stm32f4xx_ll_usart.h ****   SET_BIT(USARTx->CR3, USART_CR3_SCEN);
1234:Drivers/STM32F4xx_HAL_Driver/Inc/stm32f4xx_ll_usart.h **** }
1235:Drivers/STM32F4xx_HAL_Driver/Inc/stm32f4xx_ll_usart.h **** 
1236:Drivers/STM32F4xx_HAL_Driver/Inc/stm32f4xx_ll_usart.h **** /**
1237:Drivers/STM32F4xx_HAL_Driver/Inc/stm32f4xx_ll_usart.h ****   * @brief  Disable Smartcard mode
1238:Drivers/STM32F4xx_HAL_Driver/Inc/stm32f4xx_ll_usart.h ****   * @note   Macro @ref IS_SMARTCARD_INSTANCE(USARTx) can be used to check whether or not
1239:Drivers/STM32F4xx_HAL_Driver/Inc/stm32f4xx_ll_usart.h ****   *         Smartcard feature is supported by the USARTx instance.
1240:Drivers/STM32F4xx_HAL_Driver/Inc/stm32f4xx_ll_usart.h ****   * @rmtoll CR3          SCEN          LL_USART_DisableSmartcard
1241:Drivers/STM32F4xx_HAL_Driver/Inc/stm32f4xx_ll_usart.h ****   * @param  USARTx USART Instance
1242:Drivers/STM32F4xx_HAL_Driver/Inc/stm32f4xx_ll_usart.h ****   * @retval None
1243:Drivers/STM32F4xx_HAL_Driver/Inc/stm32f4xx_ll_usart.h ****   */
1244:Drivers/STM32F4xx_HAL_Driver/Inc/stm32f4xx_ll_usart.h **** __STATIC_INLINE void LL_USART_DisableSmartcard(USART_TypeDef *USARTx)
1245:Drivers/STM32F4xx_HAL_Driver/Inc/stm32f4xx_ll_usart.h **** {
1246:Drivers/STM32F4xx_HAL_Driver/Inc/stm32f4xx_ll_usart.h ****   CLEAR_BIT(USARTx->CR3, USART_CR3_SCEN);
1247:Drivers/STM32F4xx_HAL_Driver/Inc/stm32f4xx_ll_usart.h **** }
1248:Drivers/STM32F4xx_HAL_Driver/Inc/stm32f4xx_ll_usart.h **** 
1249:Drivers/STM32F4xx_HAL_Driver/Inc/stm32f4xx_ll_usart.h **** /**
1250:Drivers/STM32F4xx_HAL_Driver/Inc/stm32f4xx_ll_usart.h ****   * @brief  Indicate if Smartcard mode is enabled
1251:Drivers/STM32F4xx_HAL_Driver/Inc/stm32f4xx_ll_usart.h ****   * @note   Macro @ref IS_SMARTCARD_INSTANCE(USARTx) can be used to check whether or not
1252:Drivers/STM32F4xx_HAL_Driver/Inc/stm32f4xx_ll_usart.h ****   *         Smartcard feature is supported by the USARTx instance.
1253:Drivers/STM32F4xx_HAL_Driver/Inc/stm32f4xx_ll_usart.h ****   * @rmtoll CR3          SCEN          LL_USART_IsEnabledSmartcard
1254:Drivers/STM32F4xx_HAL_Driver/Inc/stm32f4xx_ll_usart.h ****   * @param  USARTx USART Instance
1255:Drivers/STM32F4xx_HAL_Driver/Inc/stm32f4xx_ll_usart.h ****   * @retval State of bit (1 or 0).
1256:Drivers/STM32F4xx_HAL_Driver/Inc/stm32f4xx_ll_usart.h ****   */
1257:Drivers/STM32F4xx_HAL_Driver/Inc/stm32f4xx_ll_usart.h **** __STATIC_INLINE uint32_t LL_USART_IsEnabledSmartcard(USART_TypeDef *USARTx)
ARM GAS  C:\Users\zoosman\AppData\Local\Temp\ccgnoQ1j.s 			page 46


1258:Drivers/STM32F4xx_HAL_Driver/Inc/stm32f4xx_ll_usart.h **** {
1259:Drivers/STM32F4xx_HAL_Driver/Inc/stm32f4xx_ll_usart.h ****   return (READ_BIT(USARTx->CR3, USART_CR3_SCEN) == (USART_CR3_SCEN));
1260:Drivers/STM32F4xx_HAL_Driver/Inc/stm32f4xx_ll_usart.h **** }
1261:Drivers/STM32F4xx_HAL_Driver/Inc/stm32f4xx_ll_usart.h **** 
1262:Drivers/STM32F4xx_HAL_Driver/Inc/stm32f4xx_ll_usart.h **** /**
1263:Drivers/STM32F4xx_HAL_Driver/Inc/stm32f4xx_ll_usart.h ****   * @brief  Set Smartcard prescaler value, used for dividing the USART clock
1264:Drivers/STM32F4xx_HAL_Driver/Inc/stm32f4xx_ll_usart.h ****   *         source to provide the SMARTCARD Clock (5 bits value)
1265:Drivers/STM32F4xx_HAL_Driver/Inc/stm32f4xx_ll_usart.h ****   * @note   Macro @ref IS_SMARTCARD_INSTANCE(USARTx) can be used to check whether or not
1266:Drivers/STM32F4xx_HAL_Driver/Inc/stm32f4xx_ll_usart.h ****   *         Smartcard feature is supported by the USARTx instance.
1267:Drivers/STM32F4xx_HAL_Driver/Inc/stm32f4xx_ll_usart.h ****   * @rmtoll GTPR         PSC           LL_USART_SetSmartcardPrescaler
1268:Drivers/STM32F4xx_HAL_Driver/Inc/stm32f4xx_ll_usart.h ****   * @param  USARTx USART Instance
1269:Drivers/STM32F4xx_HAL_Driver/Inc/stm32f4xx_ll_usart.h ****   * @param  PrescalerValue Value between Min_Data=0 and Max_Data=31
1270:Drivers/STM32F4xx_HAL_Driver/Inc/stm32f4xx_ll_usart.h ****   * @retval None
1271:Drivers/STM32F4xx_HAL_Driver/Inc/stm32f4xx_ll_usart.h ****   */
1272:Drivers/STM32F4xx_HAL_Driver/Inc/stm32f4xx_ll_usart.h **** __STATIC_INLINE void LL_USART_SetSmartcardPrescaler(USART_TypeDef *USARTx, uint32_t PrescalerValue)
1273:Drivers/STM32F4xx_HAL_Driver/Inc/stm32f4xx_ll_usart.h **** {
1274:Drivers/STM32F4xx_HAL_Driver/Inc/stm32f4xx_ll_usart.h ****   MODIFY_REG(USARTx->GTPR, USART_GTPR_PSC, PrescalerValue);
1275:Drivers/STM32F4xx_HAL_Driver/Inc/stm32f4xx_ll_usart.h **** }
1276:Drivers/STM32F4xx_HAL_Driver/Inc/stm32f4xx_ll_usart.h **** 
1277:Drivers/STM32F4xx_HAL_Driver/Inc/stm32f4xx_ll_usart.h **** /**
1278:Drivers/STM32F4xx_HAL_Driver/Inc/stm32f4xx_ll_usart.h ****   * @brief  Return Smartcard prescaler value, used for dividing the USART clock
1279:Drivers/STM32F4xx_HAL_Driver/Inc/stm32f4xx_ll_usart.h ****   *         source to provide the SMARTCARD Clock (5 bits value)
1280:Drivers/STM32F4xx_HAL_Driver/Inc/stm32f4xx_ll_usart.h ****   * @note   Macro @ref IS_SMARTCARD_INSTANCE(USARTx) can be used to check whether or not
1281:Drivers/STM32F4xx_HAL_Driver/Inc/stm32f4xx_ll_usart.h ****   *         Smartcard feature is supported by the USARTx instance.
1282:Drivers/STM32F4xx_HAL_Driver/Inc/stm32f4xx_ll_usart.h ****   * @rmtoll GTPR         PSC           LL_USART_GetSmartcardPrescaler
1283:Drivers/STM32F4xx_HAL_Driver/Inc/stm32f4xx_ll_usart.h ****   * @param  USARTx USART Instance
1284:Drivers/STM32F4xx_HAL_Driver/Inc/stm32f4xx_ll_usart.h ****   * @retval Smartcard prescaler value (Value between Min_Data=0 and Max_Data=31)
1285:Drivers/STM32F4xx_HAL_Driver/Inc/stm32f4xx_ll_usart.h ****   */
1286:Drivers/STM32F4xx_HAL_Driver/Inc/stm32f4xx_ll_usart.h **** __STATIC_INLINE uint32_t LL_USART_GetSmartcardPrescaler(USART_TypeDef *USARTx)
1287:Drivers/STM32F4xx_HAL_Driver/Inc/stm32f4xx_ll_usart.h **** {
1288:Drivers/STM32F4xx_HAL_Driver/Inc/stm32f4xx_ll_usart.h ****   return (uint32_t)(READ_BIT(USARTx->GTPR, USART_GTPR_PSC));
1289:Drivers/STM32F4xx_HAL_Driver/Inc/stm32f4xx_ll_usart.h **** }
1290:Drivers/STM32F4xx_HAL_Driver/Inc/stm32f4xx_ll_usart.h **** 
1291:Drivers/STM32F4xx_HAL_Driver/Inc/stm32f4xx_ll_usart.h **** /**
1292:Drivers/STM32F4xx_HAL_Driver/Inc/stm32f4xx_ll_usart.h ****   * @brief  Set Smartcard Guard time value, expressed in nb of baud clocks periods
1293:Drivers/STM32F4xx_HAL_Driver/Inc/stm32f4xx_ll_usart.h ****   *         (GT[7:0] bits : Guard time value)
1294:Drivers/STM32F4xx_HAL_Driver/Inc/stm32f4xx_ll_usart.h ****   * @note   Macro @ref IS_SMARTCARD_INSTANCE(USARTx) can be used to check whether or not
1295:Drivers/STM32F4xx_HAL_Driver/Inc/stm32f4xx_ll_usart.h ****   *         Smartcard feature is supported by the USARTx instance.
1296:Drivers/STM32F4xx_HAL_Driver/Inc/stm32f4xx_ll_usart.h ****   * @rmtoll GTPR         GT            LL_USART_SetSmartcardGuardTime
1297:Drivers/STM32F4xx_HAL_Driver/Inc/stm32f4xx_ll_usart.h ****   * @param  USARTx USART Instance
1298:Drivers/STM32F4xx_HAL_Driver/Inc/stm32f4xx_ll_usart.h ****   * @param  GuardTime Value between Min_Data=0x00 and Max_Data=0xFF
1299:Drivers/STM32F4xx_HAL_Driver/Inc/stm32f4xx_ll_usart.h ****   * @retval None
1300:Drivers/STM32F4xx_HAL_Driver/Inc/stm32f4xx_ll_usart.h ****   */
1301:Drivers/STM32F4xx_HAL_Driver/Inc/stm32f4xx_ll_usart.h **** __STATIC_INLINE void LL_USART_SetSmartcardGuardTime(USART_TypeDef *USARTx, uint32_t GuardTime)
1302:Drivers/STM32F4xx_HAL_Driver/Inc/stm32f4xx_ll_usart.h **** {
1303:Drivers/STM32F4xx_HAL_Driver/Inc/stm32f4xx_ll_usart.h ****   MODIFY_REG(USARTx->GTPR, USART_GTPR_GT, GuardTime << USART_POSITION_GTPR_GT);
1304:Drivers/STM32F4xx_HAL_Driver/Inc/stm32f4xx_ll_usart.h **** }
1305:Drivers/STM32F4xx_HAL_Driver/Inc/stm32f4xx_ll_usart.h **** 
1306:Drivers/STM32F4xx_HAL_Driver/Inc/stm32f4xx_ll_usart.h **** /**
1307:Drivers/STM32F4xx_HAL_Driver/Inc/stm32f4xx_ll_usart.h ****   * @brief  Return Smartcard Guard time value, expressed in nb of baud clocks periods
1308:Drivers/STM32F4xx_HAL_Driver/Inc/stm32f4xx_ll_usart.h ****   *         (GT[7:0] bits : Guard time value)
1309:Drivers/STM32F4xx_HAL_Driver/Inc/stm32f4xx_ll_usart.h ****   * @note   Macro @ref IS_SMARTCARD_INSTANCE(USARTx) can be used to check whether or not
1310:Drivers/STM32F4xx_HAL_Driver/Inc/stm32f4xx_ll_usart.h ****   *         Smartcard feature is supported by the USARTx instance.
1311:Drivers/STM32F4xx_HAL_Driver/Inc/stm32f4xx_ll_usart.h ****   * @rmtoll GTPR         GT            LL_USART_GetSmartcardGuardTime
1312:Drivers/STM32F4xx_HAL_Driver/Inc/stm32f4xx_ll_usart.h ****   * @param  USARTx USART Instance
1313:Drivers/STM32F4xx_HAL_Driver/Inc/stm32f4xx_ll_usart.h ****   * @retval Smartcard Guard time value (Value between Min_Data=0x00 and Max_Data=0xFF)
1314:Drivers/STM32F4xx_HAL_Driver/Inc/stm32f4xx_ll_usart.h ****   */
ARM GAS  C:\Users\zoosman\AppData\Local\Temp\ccgnoQ1j.s 			page 47


1315:Drivers/STM32F4xx_HAL_Driver/Inc/stm32f4xx_ll_usart.h **** __STATIC_INLINE uint32_t LL_USART_GetSmartcardGuardTime(USART_TypeDef *USARTx)
1316:Drivers/STM32F4xx_HAL_Driver/Inc/stm32f4xx_ll_usart.h **** {
1317:Drivers/STM32F4xx_HAL_Driver/Inc/stm32f4xx_ll_usart.h ****   return (uint32_t)(READ_BIT(USARTx->GTPR, USART_GTPR_GT) >> USART_POSITION_GTPR_GT);
1318:Drivers/STM32F4xx_HAL_Driver/Inc/stm32f4xx_ll_usart.h **** }
1319:Drivers/STM32F4xx_HAL_Driver/Inc/stm32f4xx_ll_usart.h **** 
1320:Drivers/STM32F4xx_HAL_Driver/Inc/stm32f4xx_ll_usart.h **** /**
1321:Drivers/STM32F4xx_HAL_Driver/Inc/stm32f4xx_ll_usart.h ****   * @}
1322:Drivers/STM32F4xx_HAL_Driver/Inc/stm32f4xx_ll_usart.h ****   */
1323:Drivers/STM32F4xx_HAL_Driver/Inc/stm32f4xx_ll_usart.h **** 
1324:Drivers/STM32F4xx_HAL_Driver/Inc/stm32f4xx_ll_usart.h **** /** @defgroup USART_LL_EF_Configuration_HalfDuplex Configuration functions related to Half Duplex f
1325:Drivers/STM32F4xx_HAL_Driver/Inc/stm32f4xx_ll_usart.h ****   * @{
1326:Drivers/STM32F4xx_HAL_Driver/Inc/stm32f4xx_ll_usart.h ****   */
1327:Drivers/STM32F4xx_HAL_Driver/Inc/stm32f4xx_ll_usart.h **** 
1328:Drivers/STM32F4xx_HAL_Driver/Inc/stm32f4xx_ll_usart.h **** /**
1329:Drivers/STM32F4xx_HAL_Driver/Inc/stm32f4xx_ll_usart.h ****   * @brief  Enable Single Wire Half-Duplex mode
1330:Drivers/STM32F4xx_HAL_Driver/Inc/stm32f4xx_ll_usart.h ****   * @note   Macro @ref IS_UART_HALFDUPLEX_INSTANCE(USARTx) can be used to check whether or not
1331:Drivers/STM32F4xx_HAL_Driver/Inc/stm32f4xx_ll_usart.h ****   *         Half-Duplex mode is supported by the USARTx instance.
1332:Drivers/STM32F4xx_HAL_Driver/Inc/stm32f4xx_ll_usart.h ****   * @rmtoll CR3          HDSEL         LL_USART_EnableHalfDuplex
1333:Drivers/STM32F4xx_HAL_Driver/Inc/stm32f4xx_ll_usart.h ****   * @param  USARTx USART Instance
1334:Drivers/STM32F4xx_HAL_Driver/Inc/stm32f4xx_ll_usart.h ****   * @retval None
1335:Drivers/STM32F4xx_HAL_Driver/Inc/stm32f4xx_ll_usart.h ****   */
1336:Drivers/STM32F4xx_HAL_Driver/Inc/stm32f4xx_ll_usart.h **** __STATIC_INLINE void LL_USART_EnableHalfDuplex(USART_TypeDef *USARTx)
1337:Drivers/STM32F4xx_HAL_Driver/Inc/stm32f4xx_ll_usart.h **** {
1338:Drivers/STM32F4xx_HAL_Driver/Inc/stm32f4xx_ll_usart.h ****   SET_BIT(USARTx->CR3, USART_CR3_HDSEL);
1339:Drivers/STM32F4xx_HAL_Driver/Inc/stm32f4xx_ll_usart.h **** }
1340:Drivers/STM32F4xx_HAL_Driver/Inc/stm32f4xx_ll_usart.h **** 
